文件：global.h     编译器版本 HGASM 0202 页次1


   1  0000              ; Generated by holtek-gcc v3.18, Mon Sep 10 09:39:41 2018
   2  0000              ; 
   3  0000              ; Configuration:
   4  0000              ;       without long instruction
   5  0000              ;       Multi-ROM, Multi-RAM
   6  0000              ;       bits_per_rom_unit:16
   7  0000              ;       with mp1
   8  0000              ;       with tbhp, address(0x9)
   9  0000              ;          Use tabrd-const
  10  0000              ;       
  11  0000              ;       
  12  0000              ;       
  13  0000              ; use 'tabrdc' instead of 'tabrd'
  14  0000              ;       
  15  0000              
  16  0000              #pragma translator "holtek-gcc 4.6.4" "3.18" "build 20130711"
  17  0000              ; Rebuild 521
  18  0000              
  19  0000              ir equ [2]
  20  0000              mp equ [3]
  21  0000              sbp equ [1]
  22  0000              acc equ [5]
  23  0000              bp equ [4]
  24  0000              tblp equ [7]
  25  0000              tbhp equ [9]
  26  0000              status equ [10]
  27  0000              c equ [10].0
  28  0000              ac equ [10].1
  29  0000              z equ [10].2
  30  0000              ov equ [10].3
  31  0000              intc equ [11]
  32  0000              
  33  0000              extern ra:byte
  34  0000              extern rb:byte
  35  0000              extern rc:byte
  36  0000              extern rd:byte
  37  0000              extern re:byte
  38  0000              extern rf:byte
  39  0000              extern rg:byte
  40  0000              extern rh:byte
  41  0000              extern _Crom2Prom:near
  42  0000              extern _Crom2PromNext:near
  43  0000              
  44  0000              RAMBANK 0 @HCCINIT, @HCCINIT0
  45  0000              
  46  0000              RAMBANK 0 @BITDATASEC, @BITDATASEC1
  47  0000              @HCCINIT	.section 'data'
  48  0000              @HCCINIT0	.section 'data'
  49  0000              @BITDATASEC	 .section 'data'
  50  0000              @BITDATASEC1	 .section 'data'
  51  0000              
  52  0000              #pragma debug scope 1 1
  53  0000              	extern __DELAY3:near
  54  0000              	extern __DELAYX3:near
  55  0000              	extern __DELAYX6:near
  56  0000              	extern __DELAYY5:near
  57  0000              	extern __DELAYY3:near
  58  0000              	extern _builtin_holtek_delay_2:byte
  59  0000              public _Delay_25mSx
文件：global.ASM   编译器版本 HGASM 0202 页次2

  60  0000              #pragma debug scope 2 1

  13  0000              #line 13 "D:\zhan\G-777-test\global.c"
  13  0000              _Delay_25mSx .section 'code'
  13  0000              _Delay_25mSx proc
  13  0000  00              local _Delay_25mSx_2 db 1 dup(?)	; 0,1
  13  0000  0080     R  	mov _Delay_25mSx_2[0],a
  13  0001              #pragma debug variable 8 2 _Delay_25mSx_2+0 "SEC"
  14  0001              #line 14 "D:\zhan\G-777-test\global.c"
  14  0001  1F00     R  	clr _i5[0]
  14  0002  2800     R  	jmp _L2
  14  0003              _L3:
  16  0003              #line 16 "D:\zhan\G-777-test\global.c"
  16  0003  0F19        	mov a,25
  16  0004  0080     E  	mov _me_delay_ms_2[0],a
  16  0005  1F00     E  	clr _me_delay_ms_2[1]
  16  0006              	fcall _me_delay_ms
  14  000D              #line 14 "D:\zhan\G-777-test\global.c"
  14  000D  1480     R  	inc _i5[0]
  14  000E              _L2:
  14  000E  0700     R  	mov a,_i5[0]
  14  000F  0200     R  	sub a,_Delay_25mSx_2[0]
  14  0010  380A        	snz c
  14  0011  2800     R  	jmp _L3
  14  0012  0003        	ret
  14  0013              _Delay_25mSx endp
  14  0013              #line 14 "D:\zhan\G-777-test\global.c"
  14  0013              #pragma debug scope 1 1
  14  0013              ___adcr0 equ [68]
  14  0013              ___adrh equ [67]
  14  0013              ___adrl equ [61]
  14  0013              public _GlobFun_Adc
  14  0013              #pragma debug scope 3 1
  25  0013              #line 25 "D:\zhan\G-777-test\global.c"
  25  0000              _GlobFun_Adc .section 'code'
  25  0000              _GlobFun_Adc proc
  25  0000  0003[           local _GlobFun_Adc_2 db 3 dup(?)	; 0,3
            00
            ]
  25  0000  0080     R  	mov _GlobFun_Adc_2[0],a
  25  0001              #pragma debug variable 8 3 _GlobFun_Adc_2+0 "T"
  26  0001              #line 26 "D:\zhan\G-777-test\global.c"
  26  0001  1F00     R  	clr _Adc_Data16T[0]
  26  0002  1F00     R  	clr _Adc_Data16T[1]
  29  0003              #line 29 "D:\zhan\G-777-test\global.c"
  29  0003  1F00     R  	clr _i1[0]
  29  0004  2800     R  	jmp _L6
  29  0005              _L8:
  31  0005              #line 31 "D:\zhan\G-777-test\global.c"
  31  0005  37C4        	clr [68].7
  32  0006              #line 32 "D:\zhan\G-777-test\global.c"
  32  0006              ;# 32 "D:\zhan\G-777-test\global.c" 1
  32  0006  0000        	nop
  33  0007              #line 33 "D:\zhan\G-777-test\global.c"
  33  0007  33C4        	set [68].7
  34  0008              #line 34 "D:\zhan\G-777-test\global.c"
  34  0008              ;# 34 "D:\zhan\G-777-test\global.c" 1
  34  0008  0000        	nop
  35  0009              #line 35 "D:\zhan\G-777-test\global.c"
  35  0009  37C4        	clr [68].7
文件：global.c     编译器版本 HGASM 0202 页次3

  40  000A              #line 40 "D:\zhan\G-777-test\global.c"
  40  000A              	fcall _me_delay_150us
  43  0011              #line 43 "D:\zhan\G-777-test\global.c"
  43  0011  3F44        	sz [68].6
  43  0012  2800     R  	jmp _L7
  46  0013              #line 46 "D:\zhan\G-777-test\global.c"
  46  0013  0743        	mov a,[67]
  46  0014  0080     R  	mov _GlobFun_Adc_2[2],a
  46  0015  1F00     R  	clr _GlobFun_Adc_2[1]
  46  0016  0700     R  	mov a,_GlobFun_Adc_2[2]
  46  0017  0080     E  	mov rc,a
  46  0018  073D        	mov a,[61]
  46  0019  0500     R  	or a,_GlobFun_Adc_2[1]
  46  001A  0080     E  	mov rb,a
  47  001B              #line 47 "D:\zhan\G-777-test\global.c"
  47  001B  0700     E  	mov a,rb
  47  001C  0080     E  	mov rd,a
  47  001D  0700     E  	mov a,rc
  47  001E  0080     E  	mov re,a
  47  001F  0F04        	mov a,4
  47  0020              _LI1:
  47  0020  340A        	clr c
  47  0021  1B80     E  	rrc re
  47  0022  1B80     E  	rrc rd
  47  0023  1785        	sdz acc
  47  0024  2800     R  	jmp _LI1
  47  0025  0700     E  	mov a,rd
  47  0026  0080     R  	mov _Adc_DataTemp[0],a
  47  0027  0700     E  	mov a,re
  47  0028  0080     R  	mov _Adc_DataTemp[1],a
  47  0029              _L7:
  50  0029              #line 50 "D:\zhan\G-777-test\global.c"
  50  0029  0700     R  	mov a,_Adc_DataTemp[0]
  50  002A  0380     R  	addm a,_Adc_Data16T[0]
  50  002B  0700     R  	mov a,_Adc_DataTemp[1]
  50  002C  1380     R  	adcm a,_Adc_Data16T[1]
  29  002D              #line 29 "D:\zhan\G-777-test\global.c"
  29  002D  1480     R  	inc _i1[0]
  29  002E              _L6:
  29  002E  0700     R  	mov a,_i1[0]
  29  002F  0200     R  	sub a,_GlobFun_Adc_2[0]
  29  0030  380A        	snz c
  29  0031  2800     R  	jmp _L8
  29  0032  0003        	ret
  29  0033              _GlobFun_Adc endp
  29  0033              #line 29 "D:\zhan\G-777-test\global.c"
  29  0033              #pragma debug scope 1 1
  29  0033              public _GET_Adc_Data16Tx16
  29  0033              #pragma debug scope 4 1
  59  0033              #line 59 "D:\zhan\G-777-test\global.c"
  59  0000              _GET_Adc_Data16Tx16 .section 'code'
  59  0000              _GET_Adc_Data16Tx16 proc
  61  0000              #line 61 "D:\zhan\G-777-test\global.c"
  61  0000  0F10        	mov a,16
  61  0001              	fcall _GlobFun_Adc
  62  0008              #line 62 "D:\zhan\G-777-test\global.c"
  62  0008  1F00     R  	clr _Adc_Data16Tx16[0]
  62  0009  1F00     R  	clr _Adc_Data16Tx16[1]
  64  000A              #line 64 "D:\zhan\G-777-test\global.c"
  64  000A  1F00     R  	clr _i2[0]
文件：global.c     编译器版本 HGASM 0202 页次4

  64  000B  2800     R  	jmp _L10
  64  000C              _L11:
  66  000C              #line 66 "D:\zhan\G-777-test\global.c"
  66  000C  0F10        	mov a,16
  66  000D              	fcall _GlobFun_Adc
  67  0014              #line 67 "D:\zhan\G-777-test\global.c"
  67  0014  0700     R  	mov a,_Adc_Data16T[0]
  67  0015  0080     E  	mov rb,a
  67  0016  0700     R  	mov a,_Adc_Data16T[1]
  67  0017  0080     E  	mov rc,a
  67  0018  0F04        	mov a,4
  67  0019              _LI2:
  67  0019  340A        	clr c
  67  001A  1B80     E  	rrc rc
  67  001B  1B80     E  	rrc rb
  67  001C  1785        	sdz acc
  67  001D  2800     R  	jmp _LI2
  67  001E  0700     E  	mov a,rb
  67  001F  0080     R  	mov _Adc_DataTemp[0],a
  67  0020  0700     E  	mov a,rc
  67  0021  0080     R  	mov _Adc_DataTemp[1],a
  68  0022              #line 68 "D:\zhan\G-777-test\global.c"
  68  0022  0700     E  	mov a,rb
  68  0023  0380     R  	addm a,_Adc_Data16Tx16[0]
  68  0024  0700     E  	mov a,rc
  68  0025  1380     R  	adcm a,_Adc_Data16Tx16[1]
  64  0026              #line 64 "D:\zhan\G-777-test\global.c"
  64  0026  1480     R  	inc _i2[0]
  64  0027              _L10:
  64  0027  0F0F        	mov a,15
  64  0028  0200     R  	sub a,_i2[0]
  64  0029  3C0A        	sz c
  64  002A  2800     R  	jmp _L11
  64  002B  0003        	ret
  64  002C              _GET_Adc_Data16Tx16 endp
  64  002C              #line 64 "D:\zhan\G-777-test\global.c"
  64  002C              #pragma debug scope 1 1
  64  002C              public _GET_Adc_Data16Tx8
  64  002C              #pragma debug scope 5 1
  82  002C              #line 82 "D:\zhan\G-777-test\global.c"
  82  0000              _GET_Adc_Data16Tx8 .section 'code'
  82  0000              _GET_Adc_Data16Tx8 proc
  84  0000              #line 84 "D:\zhan\G-777-test\global.c"
  84  0000  0F04        	mov a,4
  84  0001              	fcall _GlobFun_Adc
  85  0008              #line 85 "D:\zhan\G-777-test\global.c"
  85  0008  1F00     R  	clr _Adc_Data16Tx16[0]
  85  0009  1F00     R  	clr _Adc_Data16Tx16[1]
  87  000A              #line 87 "D:\zhan\G-777-test\global.c"
  87  000A  1F00     R  	clr _i2[0]
  87  000B  2800     R  	jmp _L13
  87  000C              _L14:
  89  000C              #line 89 "D:\zhan\G-777-test\global.c"
  89  000C  0F10        	mov a,16
  89  000D              	fcall _GlobFun_Adc
  90  0014              #line 90 "D:\zhan\G-777-test\global.c"
  90  0014  0700     R  	mov a,_Adc_Data16T[0]
  90  0015  0080     E  	mov rb,a
  90  0016  0700     R  	mov a,_Adc_Data16T[1]
  90  0017  0080     E  	mov rc,a
文件：global.c     编译器版本 HGASM 0202 页次5

  90  0018  0F04        	mov a,4
  90  0019              _LI3:
  90  0019  340A        	clr c
  90  001A  1B80     E  	rrc rc
  90  001B  1B80     E  	rrc rb
  90  001C  1785        	sdz acc
  90  001D  2800     R  	jmp _LI3
  90  001E  0700     E  	mov a,rb
  90  001F  0080     R  	mov _Adc_DataTemp[0],a
  90  0020  0700     E  	mov a,rc
  90  0021  0080     R  	mov _Adc_DataTemp[1],a
  91  0022              #line 91 "D:\zhan\G-777-test\global.c"
  91  0022  0700     E  	mov a,rb
  91  0023  0380     R  	addm a,_Adc_Data16Tx16[0]
  91  0024  0700     E  	mov a,rc
  91  0025  1380     R  	adcm a,_Adc_Data16Tx16[1]
  87  0026              #line 87 "D:\zhan\G-777-test\global.c"
  87  0026  1480     R  	inc _i2[0]
  87  0027              _L13:
  87  0027  0F07        	mov a,7
  87  0028  0200     R  	sub a,_i2[0]
  87  0029  3C0A        	sz c
  87  002A  2800     R  	jmp _L14
  87  002B  0003        	ret
  87  002C              _GET_Adc_Data16Tx8 endp
  87  002C              #line 87 "D:\zhan\G-777-test\global.c"
  87  002C              #pragma debug scope 1 1
  87  002C              public _GET_BG_Data16
  87  002C              #pragma debug scope 6 1
 101  002C              #line 101 "D:\zhan\G-777-test\global.c"
 101  0000              _GET_BG_Data16 .section 'code'
 101  0000              _GET_BG_Data16 proc
 102  0000              #line 102 "D:\zhan\G-777-test\global.c"
 102  0000  3544        	clr [68].2
 103  0001              #line 103 "D:\zhan\G-777-test\global.c"
 103  0001  34C4        	clr [68].1
 104  0002              #line 104 "D:\zhan\G-777-test\global.c"
 104  0002  3044        	set [68].0
 105  0003              #line 105 "D:\zhan\G-777-test\global.c"
 105  0003  0F10        	mov a,16
 105  0004              	fcall _GlobFun_Adc
 105  000B  0003        	ret
 105  000C              _GET_BG_Data16 endp
 105  000C              #line 105 "D:\zhan\G-777-test\global.c"
 105  000C              #pragma debug scope 1 1
 105  000C              public _GET_BG_Data256
 105  000C              #pragma debug scope 7 1
 113  000C              #line 113 "D:\zhan\G-777-test\global.c"
 113  0000              _GET_BG_Data256 .section 'code'
 113  0000              _GET_BG_Data256 proc
 114  0000              #line 114 "D:\zhan\G-777-test\global.c"
 114  0000  3544        	clr [68].2
 115  0001              #line 115 "D:\zhan\G-777-test\global.c"
 115  0001  34C4        	clr [68].1
 116  0002              #line 116 "D:\zhan\G-777-test\global.c"
 116  0002  3044        	set [68].0
 117  0003              #line 117 "D:\zhan\G-777-test\global.c"
 117  0003              	fcall _GET_Adc_Data16Tx16
 117  000A  0003        	ret
 117  000B              _GET_BG_Data256 endp
文件：global.c     编译器版本 HGASM 0202 页次6

 117  000B              #line 117 "D:\zhan\G-777-test\global.c"
 117  000B              #pragma debug scope 1 1
 117  000B              public _GET_BG_Data128
 117  000B              #pragma debug scope 8 1
 125  000B              #line 125 "D:\zhan\G-777-test\global.c"
 125  0000              _GET_BG_Data128 .section 'code'
 125  0000              _GET_BG_Data128 proc
 126  0000              #line 126 "D:\zhan\G-777-test\global.c"
 126  0000  3544        	clr [68].2
 127  0001              #line 127 "D:\zhan\G-777-test\global.c"
 127  0001  34C4        	clr [68].1
 128  0002              #line 128 "D:\zhan\G-777-test\global.c"
 128  0002  3044        	set [68].0
 129  0003              #line 129 "D:\zhan\G-777-test\global.c"
 129  0003              	fcall _GET_Adc_Data16Tx8
 129  000A  0003        	ret
 129  000B              _GET_BG_Data128 endp
 129  000B              #line 129 "D:\zhan\G-777-test\global.c"
 129  000B              #pragma debug scope 1 1
 129  000B              public _GET_NTC_Data
 129  000B              #pragma debug scope 9 1
 137  000B              #line 137 "D:\zhan\G-777-test\global.c"
 137  0000              _GET_NTC_Data .section 'code'
 137  0000              _GET_NTC_Data proc
 138  0000              #line 138 "D:\zhan\G-777-test\global.c"
 138  0000  3544        	clr [68].2
 139  0001              #line 139 "D:\zhan\G-777-test\global.c"
 139  0001  34C4        	clr [68].1
 140  0002              #line 140 "D:\zhan\G-777-test\global.c"
 140  0002  3444        	clr [68].0
 142  0003              #line 142 "D:\zhan\G-777-test\global.c"
 142  0003              	fcall _GET_Adc_Data16Tx16
 144  000A              #line 144 "D:\zhan\G-777-test\global.c"
 144  000A  0F49        	mov a,73
 144  000B  0080     R  	mov _Adc_DataTemp[0],a
 144  000C  0F0A        	mov a,10
 144  000D  0080     R  	mov _Adc_DataTemp[1],a
 145  000E              #line 145 "D:\zhan\G-777-test\global.c"
 145  000E  0700     R  	mov a,_Adc_Data16Tx16[0]
 145  000F  0080     E  	mov rb,a
 145  0010  0700     R  	mov a,_Adc_Data16Tx16[1]
 145  0011  0080     E  	mov rc,a
 145  0012  0F90        	mov a,144
 145  0013  0200     E  	sub a,rb
 145  0014  0FA4        	mov a,164
 145  0015  1200     E  	sbc a,rc
 145  0016  3C0A        	sz c
 145  0017  2800     R  	jmp _L19
 147  0018              #line 147 "D:\zhan\G-777-test\global.c"
 147  0018  0F09        	mov a,9
 147  0019  0080     R  	mov _Temperature[0],a
 147  001A  2800     R  	jmp _L18
 147  001B              _L19:
 147  001B  0F49        	mov a,73
 147  001C  0080     E  	mov rd,a
 147  001D  0F0A        	mov a,10
 147  001E  0080     E  	mov re,a
 147  001F  0700     R  	mov a,_Temperature[0]
 147  0020  0080     E  	mov rh,a
 151  0021              #line 151 "D:\zhan\G-777-test\global.c"
文件：global.c     编译器版本 HGASM 0202 页次7

 151  0021  1F00     E  	clr ra
 151  0022              _L21:
 151  0022  0F1F        	mov a,31
 151  0023  0200     E  	sub a,ra
 151  0024  380A        	snz c
 151  0025  2800     R  	jmp _L24
 153  0026              #line 153 "D:\zhan\G-777-test\global.c"
 153  0026  0F00     R  	mov a,low offset _NTC_table
 153  0027  0300     E  	add a,ra
 153  0028  0083        	mov mp,a
 153  0029  0F00     R  	mov a,high offset _NTC_table
 153  002A  1F01        	clr sbp
 153  002B  1381        	adcm a,sbp
 153  002C              	fcall _Crom2Prom
 153  0033  0080     E  	mov rf,a
 153  0034  0700     E  	mov a,rd
 153  0035  0200     E  	sub a,rf
 153  0036  0080     E  	mov rd,a
 153  0037  0700     E  	mov a,re
 153  0038  1F00     E  	clr re
 153  0039  1280     E  	sbcm a,re
 154  003A              #line 154 "D:\zhan\G-777-test\global.c"
 154  003A  1100     E  	swapa re
 154  003B  0EF0        	and a,0f0h
 154  003C  0080     E  	mov rg,a
 154  003D  1100     E  	swapa rd
 154  003E  0E0F        	and a,0fh
 154  003F  0580     E  	orm a,rg
 154  0040  1100     E  	swapa rd
 154  0041  0EF0        	and a,0f0h
 154  0042  0080     E  	mov rf,a
 154  0043  0700     E  	mov a,rb
 154  0044  0200     E  	sub a,rf
 154  0045  0700     E  	mov a,rc
 154  0046  1200     E  	sbc a,rg
 154  0047  3C0A        	sz c
 154  0048  2800     R  	jmp _L22
 156  0049              #line 156 "D:\zhan\G-777-test\global.c"
 156  0049  0700     E  	mov a,ra
 156  004A  0B0A        	add a,10
 156  004B  0080     E  	mov rh,a
 156  004C              _L22:
 156  004C  1480     E  	inc ra
 156  004D  2800     R  	jmp _L21
 156  004E              _L24:
 156  004E  0700     E  	mov a,rd
 156  004F  0080     R  	mov _Adc_DataTemp[0],a
 156  0050  0700     E  	mov a,re
 156  0051  0080     R  	mov _Adc_DataTemp[1],a
 156  0052  0700     E  	mov a,rh
 156  0053  0080     R  	mov _Temperature[0],a
 156  0054  0700     E  	mov a,ra
 156  0055  0080     R  	mov _i2[0],a
 156  0056              _L18:
 156  0056  0003        	ret
 156  0057              _GET_NTC_Data endp
 156  0057              #line 156 "D:\zhan\G-777-test\global.c"
 156  0057              #pragma debug scope 1 1
 156  0057              ___pb equ [29]
 156  0057              public _GET_1_2VCC_Data256
文件：global.c     编译器版本 HGASM 0202 页次8

 156  0057              #pragma debug scope 10 1
 169  0057              #line 169 "D:\zhan\G-777-test\global.c"
 169  0000              _GET_1_2VCC_Data256 .section 'code'
 169  0000              _GET_1_2VCC_Data256 proc
 170  0000              #line 170 "D:\zhan\G-777-test\global.c"
 170  0000  371D        	clr [29].6
 172  0001              #line 172 "D:\zhan\G-777-test\global.c"
 172  0001  3544        	clr [68].2
 173  0002              #line 173 "D:\zhan\G-777-test\global.c"
 173  0002  30C4        	set [68].1
 174  0003              #line 174 "D:\zhan\G-777-test\global.c"
 174  0003  3444        	clr [68].0
 175  0004              #line 175 "D:\zhan\G-777-test\global.c"
 175  0004  0F02        	mov a,2
 175  0005              	fcall _Delay_25mSx
 177  000C              #line 177 "D:\zhan\G-777-test\global.c"
 177  000C              	fcall _GET_Adc_Data16Tx16
 182  0013              #line 182 "D:\zhan\G-777-test\global.c"
 182  0013  331D        	set [29].6
 182  0014  0003        	ret
 182  0015              _GET_1_2VCC_Data256 endp
 182  0015              #line 182 "D:\zhan\G-777-test\global.c"
 182  0015              #pragma debug scope 1 1
 182  0015              public _CTL_T_table
 182  0000              @crom	.section 'crom'

  81  0000              #line 81 "D:\zhan\G-777-test\global.h"
  81  0000              @crom	.section	'crom'
  81  0000              _CTL_T_table:
  81  0000              #pragma debug array 42 8 31 1
  81  0000              #pragma debug array 42 8 31 1
  81  0000              #pragma debug variable 42 1 _CTL_T_table "CTL_T_table"
  81  0000              	db 114
  81  0001              	db 114
  81  0001              	db 113
  81  0002              	db 112
  81  0002              	db 110
  81  0003              	db 109
  81  0003              	db 108
  81  0004              	db 105
  81  0004              	db 102
  81  0005              	db 101
  81  0005              	db 100
  81  0006              	db 100
  81  0006              	db 100
  81  0007              	db 100
  81  0007              	db 100
  81  0008              	db 100
  81  0008              	db 98
  81  0009              	db 97
  81  0009              	db 95
  81  000A              	db 94
  81  000A              	db 92
  81  000B              	db 90
  81  000B              	db 89
  81  000C              	db 87
  81  000C              	db 86
  81  000D              	db 84
  81  000D              	db 83
  81  000E              	db 82
文件：global.h     编译器版本 HGASM 0202 页次9

  81  000E              	db 81
  81  000F              	db 80
  81  000F              	db 79
  81  0010              public _BG_T_table
  47  0010              #line 47 "D:\zhan\G-777-test\global.h"
  47  0010              @crom	.section	'crom'
  47  0010              _BG_T_table:
  47  0010              #pragma debug variable 42 1 _BG_T_table "BG_T_table"
  47  0010              	db 111
  47  0010              	db 110
  47  0011              	db 108
  47  0011              	db 107
  47  0012              	db 106
  47  0012              	db 106
  47  0013              	db 105
  47  0013              	db 105
  47  0014              	db 104
  47  0014              	db 103
  47  0015              	db 103
  47  0015              	db 102
  47  0016              	db 102
  47  0016              	db 101
  47  0017              	db 100
  47  0017              	db 100
  47  0018              	db 100
  47  0018              	db 100
  47  0019              	db 100
  47  0019              	db 100
  47  001A              	db 100
  47  001A              	db 100
  47  001B              	db 100
  47  001B              	db 100
  47  001C              	db 100
  47  001C              	db 100
  47  001D              	db 100
  47  001D              	db 100
  47  001E              	db 100
  47  001E              	db 100
  47  001F              	db 100
  47  001F              public _NTC_table
  12  001F              #line 12 "D:\zhan\G-777-test\global.h"
  12  001F              @crom	.section	'crom'
  12  001F              _NTC_table:
  12  001F              #pragma debug array 43 8 32 1
  12  001F              #pragma debug array 43 8 32 1
  12  001F              #pragma debug variable 43 1 _NTC_table "NTC_table"
  12  001F              	db 0
  12  0020              	db 39
  12  0020              	db 39
  12  0021              	db 39
  12  0021              	db 39
  12  0022              	db 39
  12  0022              	db 39
  12  0023              	db 39
  12  0023              	db 39
  12  0024              	db 39
  12  0024              	db 39
  12  0025              	db 39
  12  0025              	db 39
  12  0026              	db 39
文件：global.h     编译器版本 HGASM 0202 页次10

  12  0026              	db 39
  12  0027              	db 39
  12  0027              	db 38
  12  0028              	db 38
  12  0028              	db 38
  12  0029              	db 37
  12  0029              	db 37
  12  002A              	db 37
  12  002A              	db 37
  12  002B              	db 36
  12  002B              	db 36
  12  002C              	db 35
  12  002C              	db 35
  12  002D              	db 35
  12  002D              	db 34
  12  002E              	db 34
  12  002E              	db 33
  12  002F              	db 33
  10  002F              #line 10 "D:\zhan\G-777-test\global.h"
  10  002F              public _Temperature
  10  0000              @HCCINIT0 .section 'data'
  10  0000              _Temperature	db 0
  10  0001              #pragma debug variable 8 1 _Temperature "Temperature"
  10  0001              
  10  0000              @HCCINIT .section 'data'
   8  0000              #line 8 "D:\zhan\G-777-test\global.h"
   8  0000              public _BG_Val
   8  0001              @HCCINIT0 .section 'data'
   8  0001  0004[       _BG_Val	db 4 dup(0)
            00
            ]
   8  0005              #pragma debug variable 14 1 _BG_Val "BG_Val"
   8  0005              
   8  0000              @HCCINIT .section 'data'
   7  0000              #line 7 "D:\zhan\G-777-test\global.h"
   7  0000              public _i5
   7  0005              @HCCINIT0 .section 'data'
   7  0005              _i5	db 0
   7  0006              #pragma debug variable 8 1 _i5 "i5"
   7  0006              
   7  0000              @HCCINIT .section 'data'
   7  0000              #line 7 "D:\zhan\G-777-test\global.h"
   7  0000              public _i4
   7  0006              @HCCINIT0 .section 'data'
   7  0006              _i4	db 0
   7  0007              #pragma debug variable 8 1 _i4 "i4"
   7  0007              
   7  0000              @HCCINIT .section 'data'
   7  0000              #line 7 "D:\zhan\G-777-test\global.h"
   7  0000              public _i3
   7  0007              @HCCINIT0 .section 'data'
   7  0007              _i3	db 0
   7  0008              #pragma debug variable 8 1 _i3 "i3"
   7  0008              
   7  0000              @HCCINIT .section 'data'
   7  0000              #line 7 "D:\zhan\G-777-test\global.h"
   7  0000              public _i2
   7  0008              @HCCINIT0 .section 'data'
   7  0008              _i2	db 0
   7  0009              #pragma debug variable 8 1 _i2 "i2"
文件：global.h     编译器版本 HGASM 0202 页次11

   7  0009              
   7  0000              @HCCINIT .section 'data'
   7  0000              #line 7 "D:\zhan\G-777-test\global.h"
   7  0000              public _i1
   7  0009              @HCCINIT0 .section 'data'
   7  0009              _i1	db 0
   7  000A              #pragma debug variable 8 1 _i1 "i1"
   7  000A              
   7  0000              @HCCINIT .section 'data'
   5  0000              #line 5 "D:\zhan\G-777-test\global.h"
   5  0000              public _i16b
   5  000A              @HCCINIT0 .section 'data'
   5  000A  0002[       _i16b	db 2 dup(0)
            00
            ]
   5  000C              #pragma debug variable 12 1 _i16b "i16b"
   5  000C              
   5  0000              @HCCINIT .section 'data'
   5  0000              #line 5 "D:\zhan\G-777-test\global.h"
   5  0000              public _BG_AD
   5  000C              @HCCINIT0 .section 'data'
   5  000C  0002[       _BG_AD	db 2 dup(0)
            00
            ]
   5  000E              #pragma debug variable 12 1 _BG_AD "BG_AD"
   5  000E              
   5  0000              @HCCINIT .section 'data'
   5  0000              #line 5 "D:\zhan\G-777-test\global.h"
   5  0000              public _Adc_Data16Tx16
   5  000E              @HCCINIT0 .section 'data'
   5  000E  0002[       _Adc_Data16Tx16	db 2 dup(0)
            00
            ]
   5  0010              #pragma debug variable 12 1 _Adc_Data16Tx16 "Adc_Data16Tx16"
   5  0010              
   5  0000              @HCCINIT .section 'data'
   5  0000              #line 5 "D:\zhan\G-777-test\global.h"
   5  0000              public _Adc_Data16T
   5  0010              @HCCINIT0 .section 'data'
   5  0010  0002[       _Adc_Data16T	db 2 dup(0)
            00
            ]
   5  0012              #pragma debug variable 12 1 _Adc_Data16T "Adc_Data16T"
   5  0012              
   5  0000              @HCCINIT .section 'data'
   5  0000              #line 5 "D:\zhan\G-777-test\global.h"
   5  0000              public _Adc_DataTemp
   5  0012              @HCCINIT0 .section 'data'
   5  0012  0002[       _Adc_DataTemp	db 2 dup(0)
            00
            ]
   5  0014              #pragma debug variable 12 1 _Adc_DataTemp "Adc_DataTemp"
   5  0014              
   5  0000              @HCCINIT .section 'data'
   5  0000              #pragma debug struct_end
   5  0000              #pragma debug struct_end
   5  0000              #pragma debug union_end
   5  0000              #pragma debug union_end
   5  0000              #pragma debug variable 45 1 ___pb "__pb" 1
   5  0000              #pragma debug variable 8 1 ___adrl "__adrl" 1
文件：global.h     编译器版本 HGASM 0202 页次12

   5  0000              #pragma debug variable 8 1 ___adrh "__adrh" 1
   5  0000              #pragma debug struct_end
   5  0000              #pragma debug struct_end
   5  0000              #pragma debug union_end
   5  0000              #pragma debug union_end
   5  0000              #pragma debug variable 47 1 ___adcr0 "__adcr0" 1
   5  0000              extern _me_delay_ms_2:byte
   5  0000              extern _me_delay_ms:near
   5  0000              extern _me_delay_150us:near
   5  0000              
   5  0000              ; 
   5  0000              ; Generated by holtek-gcc v3.18, Mon Sep 10 09:39:41 2018
   5  0000              ; Rebuild 521
   5  0000              ; end of file


        0 Errors, 0