文件：iap.c        编译器版本 HGASM 0202 页次1


   1  0000              ; Generated by holtek-gcc v3.19, Thu Jul 21 09:11:07 2022
   2  0000              ; 
   3  0000              ; Configuration:
   4  0000              ;       without long instruction
   5  0000              ;       Multi-ROM, Multi-RAM
   6  0000              ;       bits_per_rom_unit:16
   7  0000              ;       with mp1
   8  0000              ;       with tbhp, address(0x9)
   9  0000              ;          Use tabrd-const
  10  0000              ;       
  11  0000              ;       
  12  0000              ;       
  13  0000              ; use 'tabrdc' instead of 'tabrd'
  14  0000              ;       
  15  0000              
  16  0000              #pragma translator "holtek-gcc 4.6.4" "3.19" "build 20130711"
  17  0000              ; Rebuild 718
  18  0000              
  19  0000              ir equ [2]
  20  0000              mp equ [3]
  21  0000              sbp equ [1]
  22  0000              acc equ [5]
  23  0000              bp equ [4]
  24  0000              tblp equ [7]
  25  0000              tbhp equ [9]
  26  0000              status equ [10]
  27  0000              c equ [10].0
  28  0000              ac equ [10].1
  29  0000              z equ [10].2
  30  0000              ov equ [10].3
  31  0000              intc equ [11]
  32  0000              
  33  0000              extern ra:byte
  34  0000              extern rb:byte
  35  0000              extern rc:byte
  36  0000              extern rd:byte
  37  0000              extern re:byte
  38  0000              extern rf:byte
  39  0000              extern rg:byte
  40  0000              extern rh:byte
  41  0000              extern _Crom2Prom:near
  42  0000              extern _Crom2PromNext:near
  43  0000              
  44  0000              RAMBANK 0 @HCCINIT, @HCCINIT0
  45  0000              
  46  0000              RAMBANK 0 @BITDATASEC, @BITDATASEC1
  47  0000              @HCCINIT	.section 'data'
  48  0000              @HCCINIT0	.section 'data'
  49  0000              @BITDATASEC	 .section 'data'
  50  0000              @BITDATASEC1	 .section 'data'
  51  0000              
  52  0000              #pragma debug scope 1 1
  53  0000              	extern __DELAY3:near
  54  0000              	extern __DELAYX3:near
  55  0000              	extern __DELAYX6:near
  56  0000              	extern __DELAYY5:near
  57  0000              	extern __DELAYY3:near
  58  0000              	extern _builtin_holtek_delay_2:byte
  59  0000              ___intc0 equ [16]
文件：iap.ASM      编译器版本 HGASM 0202 页次2

  60  0000              ___fc0 equ [320]
  61  0000              ___fd1l equ [120]
  62  0000              ___fd1h equ [121]
  63  0000              ___fd2l equ [122]
  64  0000              ___fd2h equ [123]
  65  0000              ___fd3l equ [124]
  66  0000              ___fd3h equ [125]
  67  0000              public _fun_enable_fwen
  68  0000              #pragma debug scope 2 1

  29  0000              #line 29 "f:\work\血糖仪\a_bh45f67-旧版\4g\美国客户\make_lib\v1.0.01（5000套出货)-02\g-777g-usa-bg95eseye-2022-2-20\iap.c"
  29  0000              _fun_enable_fwen .section 'code'
  29  0000              _fun_enable_fwen proc
  29  0000  00              local _fun_enable_fwen_2 db 1 dup(?)	; 0,1
  30  0001              #line 30 "f:\work\血糖仪\a_bh45f67-旧版\4g\美国客户\make_lib\v1.0.01（5000套出货)-02\g-777g-usa-bg95eseye-2022-2-20\iap.c"
  30  0000  3410        	clr [16].0
  31  0001              #line 31 "f:\work\血糖仪\a_bh45f67-旧版\4g\美国客户\make_lib\v1.0.01（5000套出货)-02\g-777g-usa-bg95eseye-2022-2-20\iap.c"
  31  0001  0F40        	mov a,low offset ___fc0
  31  0002  0083        	mov mp,a
  31  0003  0F01        	mov a,high offset ___fc0
  31  0004  0081        	mov sbp,a
  32  0005              #line 32 "f:\work\血糖仪\a_bh45f67-旧版\4g\美国客户\make_lib\v1.0.01（5000套出货)-02\g-777g-usa-bg95eseye-2022-2-20\iap.c"
  32  0005  0701        	mov a,sbp
  32  0006  0D00     R  	or a,bank _fun_enable_fwen
  32  0007  0084        	mov bp,a
  32  0008  0FE8        	mov a,232
  32  0009  0082        	mov ir,a
  33  000A              #line 33 "f:\work\血糖仪\a_bh45f67-旧版\4g\美国客户\make_lib\v1.0.01（5000套出货)-02\g-777g-usa-bg95eseye-2022-2-20\iap.c"
  33  000A  1F78        	clr [120]
  34  000B              #line 34 "f:\work\血糖仪\a_bh45f67-旧版\4g\美国客户\make_lib\v1.0.01（5000套出货)-02\g-777g-usa-bg95eseye-2022-2-20\iap.c"
  34  000B  0F04        	mov a,4
  34  000C  00F9        	mov [121],a
  35  000D              #line 35 "f:\work\血糖仪\a_bh45f67-旧版\4g\美国客户\make_lib\v1.0.01（5000套出货)-02\g-777g-usa-bg95eseye-2022-2-20\iap.c"
  35  000D  0F0D        	mov a,13
  35  000E  00FA        	mov [122],a
  36  000F              #line 36 "f:\work\血糖仪\a_bh45f67-旧版\4g\美国客户\make_lib\v1.0.01（5000套出货)-02\g-777g-usa-bg95eseye-2022-2-20\iap.c"
  36  000F  0F09        	mov a,9
  36  0010  00FB        	mov [123],a
  37  0011              #line 37 "f:\work\血糖仪\a_bh45f67-旧版\4g\美国客户\make_lib\v1.0.01（5000套出货)-02\g-777g-usa-bg95eseye-2022-2-20\iap.c"
  37  0011  0FC3        	mov a,195
  37  0012  00FC        	mov [124],a
  38  0013              #line 38 "f:\work\血糖仪\a_bh45f67-旧版\4g\美国客户\make_lib\v1.0.01（5000套出货)-02\g-777g-usa-bg95eseye-2022-2-20\iap.c"
  38  0013  0F40        	mov a,64
  38  0014  00FD        	mov [125],a
  38  0015              _L2:
  39  0015              #line 39 "f:\work\血糖仪\a_bh45f67-旧版\4g\美国客户\make_lib\v1.0.01（5000套出货)-02\g-777g-usa-bg95eseye-2022-2-20\iap.c"
  39  0015  0F40        	mov a,low offset ___fc0
  39  0016  0083        	mov mp,a
  39  0017  0F01        	mov a,high offset ___fc0
  39  0018  0081        	mov sbp,a
  39  0019  0701        	mov a,sbp
  39  001A  0D00     R  	or a,bank _fun_enable_fwen
  39  001B  0084        	mov bp,a
  39  001C  0702        	mov a,ir
  39  001D  0080     R  	mov _fun_enable_fwen_2[0],a
  39  001E  3800     R  	snz _fun_enable_fwen_2[0].3
  39  001F  2800     R  	jmp _L5
  41  0020              #line 41 "f:\work\血糖仪\a_bh45f67-旧版\4g\美国客户\make_lib\v1.0.01（5000套出货)-02\g-777g-usa-bg95eseye-2022-2-20\iap.c"
  41  0020              ;# 41 "f:\work\血糖仪\a_bh45f67-旧版\4g\美国客户\make_lib\v1.0.01（5000套出货)-02\g-777g-usa-bg95eseye-2022-2-20\iap.c" 1
  41  0020  0001        	clr wdt
文件：iap.c        编译器版本 HGASM 0202 页次3

  41  0021  2800     R  	jmp _L2
  41  0022              _L5:
  43  0022              #line 43 "f:\work\血糖仪\a_bh45f67-旧版\4g\美国客户\make_lib\v1.0.01（5000套出货)-02\g-777g-usa-bg95eseye-2022-2-20\iap.c"
  43  0022  3010        	set [16].0
  44  0023              #line 44 "f:\work\血糖仪\a_bh45f67-旧版\4g\美国客户\make_lib\v1.0.01（5000套出货)-02\g-777g-usa-bg95eseye-2022-2-20\iap.c"
  44  0023  0701        	mov a,sbp
  44  0024  0D00     R  	or a,bank _fun_enable_fwen
  44  0025  0084        	mov bp,a
  44  0026  0702        	mov a,ir
  44  0027  0080     E  	mov ra,a
  44  0028  1A80     E  	rlc ra
  44  0029  1F00     E  	clr ra
  44  002A  1A80     E  	rlc ra
  52  002B              #line 52 "f:\work\血糖仪\a_bh45f67-旧版\4g\美国客户\make_lib\v1.0.01（5000套出货)-02\g-777g-usa-bg95eseye-2022-2-20\iap.c"
  52  002B  0700     E  	mov a,ra
  52  002C  0003        	ret
  52  002D              _fun_enable_fwen endp
  52  002D              #line 52 "f:\work\血糖仪\a_bh45f67-旧版\4g\美国客户\make_lib\v1.0.01（5000套出货)-02\g-777g-usa-bg95eseye-2022-2-20\iap.c"
  52  002D              #pragma debug scope 1 1
  52  002D              ___farl equ [116]
  52  002D              ___farh equ [117]
  52  002D              ___fd0h equ [119]
  52  002D              ___fd0l equ [118]
  52  002D              public _fun_read_word
  52  002D              #pragma debug scope 3 1
  59  002D              #line 59 "f:\work\血糖仪\a_bh45f67-旧版\4g\美国客户\make_lib\v1.0.01（5000套出货)-02\g-777g-usa-bg95eseye-2022-2-20\iap.c"
  59  0000              _fun_read_word .section 'code'
  59  0000              _fun_read_word proc
  59  0000              public _fun_read_word_2
  59  0000  0002[           local _fun_read_word_2 db 2 dup(?)	; 2,0
            00
            ]
  59  0002              #pragma debug variable 10 3 _fun_read_word_2+0 "flash_addr"
  61  0002              #line 61 "f:\work\血糖仪\a_bh45f67-旧版\4g\美国客户\make_lib\v1.0.01（5000套出货)-02\g-777g-usa-bg95eseye-2022-2-20\iap.c"
  61  0000  3410        	clr [16].0
  62  0001              #line 62 "f:\work\血糖仪\a_bh45f67-旧版\4g\美国客户\make_lib\v1.0.01（5000套出货)-02\g-777g-usa-bg95eseye-2022-2-20\iap.c"
  62  0001  0F40        	mov a,low offset ___fc0
  62  0002  0083        	mov mp,a
  62  0003  0F01        	mov a,high offset ___fc0
  62  0004  0081        	mov sbp,a
  66  0005              #line 66 "f:\work\血糖仪\a_bh45f67-旧版\4g\美国客户\make_lib\v1.0.01（5000套出货)-02\g-777g-usa-bg95eseye-2022-2-20\iap.c"
  66  0005  0700     R  	mov a,_fun_read_word_2[0]
  66  0006  00F4        	mov [116],a
  67  0007              #line 67 "f:\work\血糖仪\a_bh45f67-旧版\4g\美国客户\make_lib\v1.0.01（5000套出货)-02\g-777g-usa-bg95eseye-2022-2-20\iap.c"
  67  0007  0700     R  	mov a,_fun_read_word_2[1]
  67  0008  00F5        	mov [117],a
  69  0009              #line 69 "f:\work\血糖仪\a_bh45f67-旧版\4g\美国客户\make_lib\v1.0.01（5000套出货)-02\g-777g-usa-bg95eseye-2022-2-20\iap.c"
  69  0009  0701        	mov a,sbp
  69  000A  0D00     R  	or a,bank _fun_read_word
  69  000B  0084        	mov bp,a
  69  000C  0FB3        	mov a,179
  69  000D  0082        	mov ir,a
  69  000E              _L7:
  71  000E              #line 71 "f:\work\血糖仪\a_bh45f67-旧版\4g\美国客户\make_lib\v1.0.01（5000套出货)-02\g-777g-usa-bg95eseye-2022-2-20\iap.c"
  71  000E  0F40        	mov a,low offset ___fc0
  71  000F  0083        	mov mp,a
  71  0010  0F01        	mov a,high offset ___fc0
  71  0011  0081        	mov sbp,a
  71  0012  0701        	mov a,sbp
  71  0013  0D00     R  	or a,bank _fun_read_word
文件：iap.c        编译器版本 HGASM 0202 页次4

  71  0014  0084        	mov bp,a
  71  0015  0702        	mov a,ir
  71  0016  0080     E  	mov ra,a
  71  0017  3800     E  	snz ra.0
  71  0018  2800     R  	jmp _L9
  74  0019              #line 74 "f:\work\血糖仪\a_bh45f67-旧版\4g\美国客户\make_lib\v1.0.01（5000套出货)-02\g-777g-usa-bg95eseye-2022-2-20\iap.c"
  74  0019              ;# 74 "f:\work\血糖仪\a_bh45f67-旧版\4g\美国客户\make_lib\v1.0.01（5000套出货)-02\g-777g-usa-bg95eseye-2022-2-20\iap.c" 1
  74  0019  0001        	clr wdt
  74  001A  2800     R  	jmp _L7
  74  001B              _L9:
  77  001B              #line 77 "f:\work\血糖仪\a_bh45f67-旧版\4g\美国客户\make_lib\v1.0.01（5000套出货)-02\g-777g-usa-bg95eseye-2022-2-20\iap.c"
  77  001B  3400     E  	clr ra.1
  77  001C  0701        	mov a,sbp
  77  001D  0D00     R  	or a,bank _fun_read_word
  77  001E  0084        	mov bp,a
  77  001F  0700     E  	mov a,ra
  77  0020  0082        	mov ir,a
  81  0021              #line 81 "f:\work\血糖仪\a_bh45f67-旧版\4g\美国客户\make_lib\v1.0.01（5000套出货)-02\g-777g-usa-bg95eseye-2022-2-20\iap.c"
  81  0021  0777        	mov a,[119]
  81  0022  0080     E  	mov rc,a
  81  0023  1F00     E  	clr rb
  82  0024              #line 82 "f:\work\血糖仪\a_bh45f67-旧版\4g\美国客户\make_lib\v1.0.01（5000套出货)-02\g-777g-usa-bg95eseye-2022-2-20\iap.c"
  82  0024  0776        	mov a,[118]
  82  0025  0080     E  	mov ra,a
  83  0026              #line 83 "f:\work\血糖仪\a_bh45f67-旧版\4g\美国客户\make_lib\v1.0.01（5000套出货)-02\g-777g-usa-bg95eseye-2022-2-20\iap.c"
  83  0026  3010        	set [16].0
  85  0027              #line 85 "f:\work\血糖仪\a_bh45f67-旧版\4g\美国客户\make_lib\v1.0.01（5000套出货)-02\g-777g-usa-bg95eseye-2022-2-20\iap.c"
  85  0027  0700     E  	mov a,ra
  85  0028  0300     E  	add a,rb
  85  0029  0080     E  	mov rd,a
  85  002A  1F05        	clr acc
  85  002B  1300     E  	adc a,rc
  85  002C  0080     E  	mov re,a
  85  002D  0700     E  	mov a,rd
  85  002E  0080     E  	mov ra,a
  85  002F  0700     E  	mov a,re
  85  0030  0080     E  	mov rb,a
  85  0031  0003        	ret
  85  0032              _fun_read_word endp
  85  0032              #line 85 "f:\work\血糖仪\a_bh45f67-旧版\4g\美国客户\make_lib\v1.0.01（5000套出货)-02\g-777g-usa-bg95eseye-2022-2-20\iap.c"
  85  0032              #pragma debug scope 1 1
  85  0032              _BLOOD_Package equ [640]
  85  0032              public _fun_read_page_data
  85  0032              #pragma debug scope 4 1
  93  0032              #line 93 "f:\work\血糖仪\a_bh45f67-旧版\4g\美国客户\make_lib\v1.0.01（5000套出货)-02\g-777g-usa-bg95eseye-2022-2-20\iap.c"
  93  0000              _fun_read_page_data .section 'code'
  93  0000              _fun_read_page_data proc
  93  0000              public _fun_read_page_data_2
  93  0000  0004[           local _fun_read_page_data_2 db 4 dup(?)	; 2,2
            00
            ]
  93  0004              #pragma debug variable 10 4 _fun_read_page_data_2+0 "flash_addr"
  96  0004              #line 96 "f:\work\血糖仪\a_bh45f67-旧版\4g\美国客户\make_lib\v1.0.01（5000套出货)-02\g-777g-usa-bg95eseye-2022-2-20\iap.c"
  96  0000  3410        	clr [16].0
  97  0001              #line 97 "f:\work\血糖仪\a_bh45f67-旧版\4g\美国客户\make_lib\v1.0.01（5000套出货)-02\g-777g-usa-bg95eseye-2022-2-20\iap.c"
  97  0001  1F00     R  	clr _fun_read_page_data_2[2]
  97  0002  1F00     R  	clr _fun_read_page_data_2[3]
  97  0003              _L11:
  97  0003  0700     R  	mov a,_fun_read_page_data_2[0]
  97  0004  0300     R  	add a,_fun_read_page_data_2[2]
文件：iap.c        编译器版本 HGASM 0202 页次5

  97  0005  0080     E  	mov rb,a
  97  0006  0700     R  	mov a,_fun_read_page_data_2[1]
  97  0007  1300     R  	adc a,_fun_read_page_data_2[3]
  97  0008  0080     E  	mov rc,a
  97  0009              #line 97 "f:\work\血糖仪\a_bh45f67-旧版\4g\美国客户\make_lib\v1.0.01（5000套出货)-02\g-777g-usa-bg95eseye-2022-2-20\iap.c"
  97  0009  0700     R  	mov a,_fun_read_page_data_2[2]
  97  000A  0C40        	xor a,64
  97  000B  0500     R  	or a,_fun_read_page_data_2[3]
  97  000C  3D0A        	sz z
  97  000D  2800     R  	jmp _L13
  99  000E              #line 99 "f:\work\血糖仪\a_bh45f67-旧版\4g\美国客户\make_lib\v1.0.01（5000套出货)-02\g-777g-usa-bg95eseye-2022-2-20\iap.c"
  99  000E  0700     E  	mov a,rb
  99  000F  0080     R  	mov _fun_read_word_2[0],a
  99  0010  0700     E  	mov a,rc
  99  0011  0080     R  	mov _fun_read_word_2[1],a
  99  0012              	fcall _fun_read_word
  99  0019  340A        	clr c
  99  001A  1A00     R  	rlca _fun_read_page_data_2[2]
  99  001B  0080     E  	mov rb,a
  99  001C  1A00     R  	rlca _fun_read_page_data_2[3]
  99  001D  0080     E  	mov rc,a
 100  001E              #line 100 "f:\work\血糖仪\a_bh45f67-旧版\4g\美国客户\make_lib\v1.0.01（5000套出货)-02\g-777g-usa-bg95eseye-2022-2-20\iap.c"
 100  001E  0F80        	mov a,low offset _BLOOD_Package
 100  001F  0300     E  	add a,rb
 100  0020  0083        	mov mp,a
 100  0021  0F02        	mov a,high offset _BLOOD_Package
 100  0022  1300     E  	adc a,rc
 100  0023  0081        	mov sbp,a
 100  0024  0701        	mov a,sbp
 100  0025  0D00     R  	or a,bank _fun_read_page_data
 100  0026  0084        	mov bp,a
 100  0027  0776        	mov a,[118]
 100  0028  0082        	mov ir,a
 103  0029              #line 103 "f:\work\血糖仪\a_bh45f67-旧版\4g\美国客户\make_lib\v1.0.01（5000套出货)-02\g-777g-usa-bg95eseye-2022-2-20\iap.c"
 103  0029  0F81        	mov a,low (offset _BLOOD_Package+1)
 103  002A  0300     E  	add a,rb
 103  002B  0083        	mov mp,a
 103  002C  0F02        	mov a,high (offset _BLOOD_Package+1)
 103  002D  1300     E  	adc a,rc
 103  002E  0081        	mov sbp,a
 103  002F  0701        	mov a,sbp
 103  0030  0D00     R  	or a,bank _fun_read_page_data
 103  0031  0084        	mov bp,a
 103  0032  0777        	mov a,[119]
 103  0033  0082        	mov ir,a
 103  0034  1480     R  	inc _fun_read_page_data_2[2]
 103  0035  3D0A        	sz z
 103  0036  1480     R  	inc _fun_read_page_data_2[3]
 103  0037  2800     R  	jmp _L11
 103  0038              _L13:
 107  0038              #line 107 "f:\work\血糖仪\a_bh45f67-旧版\4g\美国客户\make_lib\v1.0.01（5000套出货)-02\g-777g-usa-bg95eseye-2022-2-20\iap.c"
 107  0038  3010        	set [16].0
 107  0039  0003        	ret
 107  003A              _fun_read_page_data endp
 107  003A              #line 107 "f:\work\血糖仪\a_bh45f67-旧版\4g\美国客户\make_lib\v1.0.01（5000套出货)-02\g-777g-usa-bg95eseye-2022-2-20\iap.c"
 107  003A              #pragma debug scope 1 1
 107  003A              _test_buff equ [987]
 107  003A              public _fun_read_page
 107  003A              #pragma debug scope 5 1
 111  003A              #line 111 "f:\work\血糖仪\a_bh45f67-旧版\4g\美国客户\make_lib\v1.0.01（5000套出货)-02\g-777g-usa-bg95eseye-2022-2-20\iap.c"
文件：iap.c        编译器版本 HGASM 0202 页次6

 111  0000              _fun_read_page .section 'code'
 111  0000              _fun_read_page proc
 111  0000              public _fun_read_page_2
 111  0000  0004[           local _fun_read_page_2 db 4 dup(?)	; 2,2
            00
            ]
 111  0004              #pragma debug variable 10 5 _fun_read_page_2+0 "flash_addr"
 111  0004              #pragma debug variable 8 5 _fun_read_page_2+2 "temp1"
 111  0004              #pragma debug variable 8 5 _fun_read_page_2+3 "temp2"
 117  0004              #line 117 "f:\work\血糖仪\a_bh45f67-旧版\4g\美国客户\make_lib\v1.0.01（5000套出货)-02\g-777g-usa-bg95eseye-2022-2-20\iap.c"
 117  0000  0700     R  	mov a,_fun_read_page_2[0]
 117  0001  0C80        	xor a,128
 117  0002  0700     R  	mov a,_fun_read_page_2[1]
 117  0003  3D0A        	sz z
 117  0004  0C7F        	xor a,127
 117  0005  390A        	snz z
 117  0006  2800     R  	jmp _L15
 119  0007              #line 119 "f:\work\血糖仪\a_bh45f67-旧版\4g\美国客户\make_lib\v1.0.01（5000套出货)-02\g-777g-usa-bg95eseye-2022-2-20\iap.c"
 119  0007  0FC0        	mov a,-64
 119  0008  0080     R  	mov _fun_read_page_data_2[0],a
 119  0009  0F7F        	mov a,127
 119  000A  0080     R  	mov _fun_read_page_data_2[1],a
 119  000B              	fcall _fun_read_page_data
 119  0012  0F13        	mov a,19
 119  0013  0080     E  	mov ra,a
 121  0014              #line 121 "f:\work\血糖仪\a_bh45f67-旧版\4g\美国客户\make_lib\v1.0.01（5000套出货)-02\g-777g-usa-bg95eseye-2022-2-20\iap.c"
 121  0014  1F00     E  	clr rd
 121  0015              _L17:
 122  0015              #line 122 "f:\work\血糖仪\a_bh45f67-旧版\4g\美国客户\make_lib\v1.0.01（5000套出货)-02\g-777g-usa-bg95eseye-2022-2-20\iap.c"
 122  0015  0700     E  	mov a,rd
 122  0016  0080     E  	mov rb,a
 122  0017  1F00     E  	clr rc
 122  0018  0F80        	mov a,low offset _BLOOD_Package
 122  0019  0300     E  	add a,rb
 122  001A  0083        	mov mp,a
 122  001B  0F02        	mov a,high offset _BLOOD_Package
 122  001C  1300     E  	adc a,rc
 122  001D  0081        	mov sbp,a
 122  001E              	fcall _Crom2Prom
 122  0025  0080     E  	mov re,a
 122  0026  0FDB        	mov a,low offset _test_buff
 122  0027  0300     E  	add a,rb
 122  0028  0083        	mov mp,a
 122  0029  0F03        	mov a,high offset _test_buff
 122  002A  1300     E  	adc a,rc
 122  002B  0081        	mov sbp,a
 122  002C  0701        	mov a,sbp
 122  002D  0D00     R  	or a,bank _fun_read_page
 122  002E  0084        	mov bp,a
 122  002F  0700     E  	mov a,re
 122  0030  0082        	mov ir,a
 121  0031              #line 121 "f:\work\血糖仪\a_bh45f67-旧版\4g\美国客户\make_lib\v1.0.01（5000套出货)-02\g-777g-usa-bg95eseye-2022-2-20\iap.c"
 121  0031  1480     E  	inc rd
 121  0032  1780     E  	sdz ra
 121  0033  2800     R  	jmp _L17
 123  0034              #line 123 "f:\work\血糖仪\a_bh45f67-旧版\4g\美国客户\make_lib\v1.0.01（5000套出货)-02\g-777g-usa-bg95eseye-2022-2-20\iap.c"
 123  0034  0FC7        	mov a,low (offset _BLOOD_Package+71)
 123  0035  0083        	mov mp,a
 123  0036  0F02        	mov a,high (offset _BLOOD_Package+71)
 123  0037  0081        	mov sbp,a
文件：iap.c        编译器版本 HGASM 0202 页次7

 123  0038  0701        	mov a,sbp
 123  0039  0D00     R  	or a,bank _fun_read_page
 123  003A  0084        	mov bp,a
 123  003B  0702        	mov a,ir
 123  003C  0080     R  	mov _fun_read_page_2[2],a
 124  003D              #line 124 "f:\work\血糖仪\a_bh45f67-旧版\4g\美国客户\make_lib\v1.0.01（5000套出货)-02\g-777g-usa-bg95eseye-2022-2-20\iap.c"
 124  003D  1483        	inc mp
 124  003E  3D0A        	sz z
 124  003F  1481        	inc sbp
 124  0040  0701        	mov a,sbp
 124  0041  0D00     R  	or a,bank _fun_read_page
 124  0042  0084        	mov bp,a
 124  0043  0702        	mov a,ir
 124  0044  0080     R  	mov _fun_read_page_2[3],a
 126  0045              #line 126 "f:\work\血糖仪\a_bh45f67-旧版\4g\美国客户\make_lib\v1.0.01（5000套出货)-02\g-777g-usa-bg95eseye-2022-2-20\iap.c"
 126  0045  0F80        	mov a,-128
 126  0046  0080     R  	mov _fun_read_page_data_2[0],a
 126  0047  0F7F        	mov a,127
 126  0048  0080     R  	mov _fun_read_page_data_2[1],a
 126  0049              	fcall _fun_read_page_data
 126  0050  0F13        	mov a,19
 126  0051  0080     E  	mov rd,a
 115  0052              #line 115 "f:\work\血糖仪\a_bh45f67-旧版\4g\美国客户\make_lib\v1.0.01（5000套出货)-02\g-777g-usa-bg95eseye-2022-2-20\iap.c"
 115  0052  1F00     E  	clr ra
 128  0053              #line 128 "f:\work\血糖仪\a_bh45f67-旧版\4g\美国客户\make_lib\v1.0.01（5000套出货)-02\g-777g-usa-bg95eseye-2022-2-20\iap.c"
 128  0053  1F00     E  	clr re
 128  0054              _L20:
 130  0054              #line 130 "f:\work\血糖仪\a_bh45f67-旧版\4g\美国客户\make_lib\v1.0.01（5000套出货)-02\g-777g-usa-bg95eseye-2022-2-20\iap.c"
 130  0054  0700     E  	mov a,re
 130  0055  0080     E  	mov rb,a
 130  0056  1F00     E  	clr rc
 130  0057  0F80        	mov a,low offset _BLOOD_Package
 130  0058  0300     E  	add a,rb
 130  0059  0083        	mov mp,a
 130  005A  0F02        	mov a,high offset _BLOOD_Package
 130  005B  1300     E  	adc a,rc
 130  005C  0081        	mov sbp,a
 130  005D              	fcall _Crom2Prom
 130  0064  0080     E  	mov rf,a
 130  0065  0FDB        	mov a,low offset _test_buff
 130  0066  0300     E  	add a,rb
 130  0067  0083        	mov mp,a
 130  0068  0F03        	mov a,high offset _test_buff
 130  0069  1300     E  	adc a,rc
 130  006A  0081        	mov sbp,a
 130  006B              	fcall _Crom2Prom
 130  0072  0080     E  	mov rb,a
 130  0073  0700     E  	mov a,rf
 130  0074  0200     E  	sub a,rb
 130  0075  3D0A        	sz z
 130  0076  2800     R  	jmp _L18
 132  0077              #line 132 "f:\work\血糖仪\a_bh45f67-旧版\4g\美国客户\make_lib\v1.0.01（5000套出货)-02\g-777g-usa-bg95eseye-2022-2-20\iap.c"
 132  0077  1480     E  	inc ra
 132  0078              _L18:
 128  0078              #line 128 "f:\work\血糖仪\a_bh45f67-旧版\4g\美国客户\make_lib\v1.0.01（5000套出货)-02\g-777g-usa-bg95eseye-2022-2-20\iap.c"
 128  0078  1480     E  	inc re
 128  0079  1780     E  	sdz rd
 128  007A  2800     R  	jmp _L20
 134  007B              #line 134 "f:\work\血糖仪\a_bh45f67-旧版\4g\美国客户\make_lib\v1.0.01（5000套出货)-02\g-777g-usa-bg95eseye-2022-2-20\iap.c"
 134  007B  0FC7        	mov a,low (offset _BLOOD_Package+71)
文件：iap.c        编译器版本 HGASM 0202 页次8

 134  007C  0083        	mov mp,a
 134  007D  0F02        	mov a,high (offset _BLOOD_Package+71)
 134  007E  0081        	mov sbp,a
 134  007F  0701        	mov a,sbp
 134  0080  0D00     R  	or a,bank _fun_read_page
 134  0081  0084        	mov bp,a
 134  0082  0702        	mov a,ir
 134  0083  0080     E  	mov rb,a
 134  0084  0700     E  	mov a,rb
 134  0085  0200     R  	sub a,_fun_read_page_2[2]
 134  0086  3D0A        	sz z
 134  0087  2800     R  	jmp _L21
 136  0088              #line 136 "f:\work\血糖仪\a_bh45f67-旧版\4g\美国客户\make_lib\v1.0.01（5000套出货)-02\g-777g-usa-bg95eseye-2022-2-20\iap.c"
 136  0088  1480     E  	inc ra
 136  0089              _L21:
 137  0089              #line 137 "f:\work\血糖仪\a_bh45f67-旧版\4g\美国客户\make_lib\v1.0.01（5000套出货)-02\g-777g-usa-bg95eseye-2022-2-20\iap.c"
 137  0089  0FC8        	mov a,low (offset _BLOOD_Package+72)
 137  008A  0083        	mov mp,a
 137  008B  0F02        	mov a,high (offset _BLOOD_Package+72)
 137  008C  0081        	mov sbp,a
 137  008D  0701        	mov a,sbp
 137  008E  0D00     R  	or a,bank _fun_read_page
 137  008F  0084        	mov bp,a
 137  0090  0702        	mov a,ir
 137  0091  0080     E  	mov rb,a
 137  0092  0700     E  	mov a,rb
 137  0093  0200     R  	sub a,_fun_read_page_2[3]
 137  0094  3D0A        	sz z
 137  0095  2800     R  	jmp _L22
 139  0096              #line 139 "f:\work\血糖仪\a_bh45f67-旧版\4g\美国客户\make_lib\v1.0.01（5000套出货)-02\g-777g-usa-bg95eseye-2022-2-20\iap.c"
 139  0096  1480     E  	inc ra
 139  0097              _L22:
 141  0097              #line 141 "f:\work\血糖仪\a_bh45f67-旧版\4g\美国客户\make_lib\v1.0.01（5000套出货)-02\g-777g-usa-bg95eseye-2022-2-20\iap.c"
 141  0097  1080     E  	sz ra
 141  0098  2800     R  	jmp _LI1
 141  0099  2800     R  	jmp _L14
 141  009A              _LI1:
 142  009A              #line 142 "f:\work\血糖仪\a_bh45f67-旧版\4g\美国客户\make_lib\v1.0.01（5000套出货)-02\g-777g-usa-bg95eseye-2022-2-20\iap.c"
 142  009A  0FC0        	mov a,-64
 142  009B  0080     R  	mov _fun_read_page_data_2[0],a
 142  009C  0F7F        	mov a,127
 142  009D  0080     R  	mov _fun_read_page_data_2[1],a
 142  009E  2800     R  	jmp _L27
 142  009F              _L15:
 145  009F              #line 145 "f:\work\血糖仪\a_bh45f67-旧版\4g\美国客户\make_lib\v1.0.01（5000套出货)-02\g-777g-usa-bg95eseye-2022-2-20\iap.c"
 145  009F  0700     R  	mov a,_fun_read_page_2[0]
 145  00A0  0080     R  	mov _fun_read_page_data_2[0],a
 145  00A1  0700     R  	mov a,_fun_read_page_2[1]
 145  00A2  0080     R  	mov _fun_read_page_data_2[1],a
 145  00A3              _L27:
 145  00A3              	fcall _fun_read_page_data
 145  00AA              _L14:
 145  00AA  0003        	ret
 145  00AB              _fun_read_page endp
 145  00AB              #line 145 "f:\work\血糖仪\a_bh45f67-旧版\4g\美国客户\make_lib\v1.0.01（5000套出货)-02\g-777g-usa-bg95eseye-2022-2-20\iap.c"
 145  00AB              #pragma debug scope 1 1
 145  00AB              public _fun_erase_page
 145  00AB              #pragma debug scope 6 1
 180  00AB              #line 180 "f:\work\血糖仪\a_bh45f67-旧版\4g\美国客户\make_lib\v1.0.01（5000套出货)-02\g-777g-usa-bg95eseye-2022-2-20\iap.c"
 180  0000              _fun_erase_page .section 'code'
文件：iap.c        编译器版本 HGASM 0202 页次9

 180  0000              _fun_erase_page proc
 180  0000              public _fun_erase_page_2
 180  0000  0002[           local _fun_erase_page_2 db 2 dup(?)	; 2,0
            00
            ]
 180  0002              #pragma debug variable 10 6 _fun_erase_page_2+0 "flash_addr"
 181  0002              #line 181 "f:\work\血糖仪\a_bh45f67-旧版\4g\美国客户\make_lib\v1.0.01（5000套出货)-02\g-777g-usa-bg95eseye-2022-2-20\iap.c"
 181  0000  3410        	clr [16].0
 182  0001              #line 182 "f:\work\血糖仪\a_bh45f67-旧版\4g\美国客户\make_lib\v1.0.01（5000套出货)-02\g-777g-usa-bg95eseye-2022-2-20\iap.c"
 182  0001  0F40        	mov a,low offset ___fc0
 182  0002  0083        	mov mp,a
 182  0003  0F01        	mov a,high offset ___fc0
 182  0004  0081        	mov sbp,a
 183  0005              #line 183 "f:\work\血糖仪\a_bh45f67-旧版\4g\美国客户\make_lib\v1.0.01（5000套出货)-02\g-777g-usa-bg95eseye-2022-2-20\iap.c"
 183  0005  0700     R  	mov a,_fun_erase_page_2[0]
 183  0006  00F4        	mov [116],a
 184  0007              #line 184 "f:\work\血糖仪\a_bh45f67-旧版\4g\美国客户\make_lib\v1.0.01（5000套出货)-02\g-777g-usa-bg95eseye-2022-2-20\iap.c"
 184  0007  0700     R  	mov a,_fun_erase_page_2[1]
 184  0008  00F5        	mov [117],a
 186  0009              #line 186 "f:\work\血糖仪\a_bh45f67-旧版\4g\美国客户\make_lib\v1.0.01（5000套出货)-02\g-777g-usa-bg95eseye-2022-2-20\iap.c"
 186  0009  0701        	mov a,sbp
 186  000A  0D00     R  	or a,bank _fun_erase_page
 186  000B  0084        	mov bp,a
 186  000C  0F94        	mov a,148
 186  000D  0082        	mov ir,a
 186  000E              _L29:
 187  000E              #line 187 "f:\work\血糖仪\a_bh45f67-旧版\4g\美国客户\make_lib\v1.0.01（5000套出货)-02\g-777g-usa-bg95eseye-2022-2-20\iap.c"
 187  000E  0F40        	mov a,low offset ___fc0
 187  000F  0083        	mov mp,a
 187  0010  0F01        	mov a,high offset ___fc0
 187  0011  0081        	mov sbp,a
 187  0012  0701        	mov a,sbp
 187  0013  0D00     R  	or a,bank _fun_erase_page
 187  0014  0084        	mov bp,a
 187  0015  0702        	mov a,ir
 187  0016  0080     E  	mov ra,a
 187  0017  3800     E  	snz ra.2
 187  0018  2800     R  	jmp _L31
 189  0019              #line 189 "f:\work\血糖仪\a_bh45f67-旧版\4g\美国客户\make_lib\v1.0.01（5000套出货)-02\g-777g-usa-bg95eseye-2022-2-20\iap.c"
 189  0019              ;# 189 "f:\work\血糖仪\a_bh45f67-旧版\4g\美国客户\make_lib\v1.0.01（5000套出货)-02\g-777g-usa-bg95eseye-2022-2-20\iap.c" 1
 189  0019  0001        	clr wdt
 189  001A  2800     R  	jmp _L29
 189  001B              _L31:
 191  001B              #line 191 "f:\work\血糖仪\a_bh45f67-旧版\4g\美国客户\make_lib\v1.0.01（5000套出货)-02\g-777g-usa-bg95eseye-2022-2-20\iap.c"
 191  001B  3010        	set [16].0
 191  001C  0003        	ret
 191  001D              _fun_erase_page endp
 191  001D              #line 191 "f:\work\血糖仪\a_bh45f67-旧版\4g\美国客户\make_lib\v1.0.01（5000套出货)-02\g-777g-usa-bg95eseye-2022-2-20\iap.c"
 191  001D              #pragma debug scope 1 1
 191  001D              ___fc2 equ [322]
 191  001D              public _fun_write_cpage
 191  001D              #pragma debug scope 7 1
 200  001D              #line 200 "f:\work\血糖仪\a_bh45f67-旧版\4g\美国客户\make_lib\v1.0.01（5000套出货)-02\g-777g-usa-bg95eseye-2022-2-20\iap.c"
 200  0000              _fun_write_cpage .section 'code'
 200  0000              _fun_write_cpage proc
 200  0000              public _fun_write_cpage_2
 200  0000  0004[           local _fun_write_cpage_2 db 4 dup(?)	; 4,0
            00
            ]
 200  0004              #pragma debug variable 10 7 _fun_write_cpage_2+0 "flash_addr"
文件：iap.c        编译器版本 HGASM 0202 页次10

 200  0004              #pragma debug variable 8 7 _fun_write_cpage_2+2 "flash_wlength"
 200  0004              #pragma debug variable 8 7 _fun_write_cpage_2+3 "begin"
 202  0004              #line 202 "f:\work\血糖仪\a_bh45f67-旧版\4g\美国客户\make_lib\v1.0.01（5000套出货)-02\g-777g-usa-bg95eseye-2022-2-20\iap.c"
 202  0000  3410        	clr [16].0
 203  0001              #line 203 "f:\work\血糖仪\a_bh45f67-旧版\4g\美国客户\make_lib\v1.0.01（5000套出货)-02\g-777g-usa-bg95eseye-2022-2-20\iap.c"
 203  0001  0F42        	mov a,low offset ___fc2
 203  0002  0083        	mov mp,a
 203  0003  0F01        	mov a,high offset ___fc2
 203  0004  0081        	mov sbp,a
 203  0005  0701        	mov a,sbp
 203  0006  0D00     R  	or a,bank _fun_write_cpage
 203  0007  0084        	mov bp,a
 203  0008  0F01        	mov a,1
 203  0009  0082        	mov ir,a
 203  000A              _L33:
 205  000A              #line 205 "f:\work\血糖仪\a_bh45f67-旧版\4g\美国客户\make_lib\v1.0.01（5000套出货)-02\g-777g-usa-bg95eseye-2022-2-20\iap.c"
 205  000A  0F42        	mov a,low offset ___fc2
 205  000B  0083        	mov mp,a
 205  000C  0F01        	mov a,high offset ___fc2
 205  000D  0081        	mov sbp,a
 205  000E  0701        	mov a,sbp
 205  000F  0D00     R  	or a,bank _fun_write_cpage
 205  0010  0084        	mov bp,a
 205  0011  0702        	mov a,ir
 205  0012  0080     E  	mov ra,a
 205  0013  3800     E  	snz ra.0
 205  0014  2800     R  	jmp _L39
 207  0015              #line 207 "f:\work\血糖仪\a_bh45f67-旧版\4g\美国客户\make_lib\v1.0.01（5000套出货)-02\g-777g-usa-bg95eseye-2022-2-20\iap.c"
 207  0015              ;# 207 "f:\work\血糖仪\a_bh45f67-旧版\4g\美国客户\make_lib\v1.0.01（5000套出货)-02\g-777g-usa-bg95eseye-2022-2-20\iap.c" 1
 207  0015  0001        	clr wdt
 207  0016  2800     R  	jmp _L33
 207  0017              _L39:
 209  0017              #line 209 "f:\work\血糖仪\a_bh45f67-旧版\4g\美国客户\make_lib\v1.0.01（5000套出货)-02\g-777g-usa-bg95eseye-2022-2-20\iap.c"
 209  0017  0F40        	mov a,low offset ___fc0
 209  0018  0083        	mov mp,a
 209  0019  0F01        	mov a,high offset ___fc0
 209  001A  0081        	mov sbp,a
 209  001B  0701        	mov a,sbp
 209  001C  0D00     R  	or a,bank _fun_write_cpage
 209  001D  0084        	mov bp,a
 209  001E  0F80        	mov a,128
 209  001F  0082        	mov ir,a
 210  0020              #line 210 "f:\work\血糖仪\a_bh45f67-旧版\4g\美国客户\make_lib\v1.0.01（5000套出货)-02\g-777g-usa-bg95eseye-2022-2-20\iap.c"
 210  0020  0700     R  	mov a,_fun_write_cpage_2[0]
 210  0021  00F4        	mov [116],a
 211  0022              #line 211 "f:\work\血糖仪\a_bh45f67-旧版\4g\美国客户\make_lib\v1.0.01（5000套出货)-02\g-777g-usa-bg95eseye-2022-2-20\iap.c"
 211  0022  0700     R  	mov a,_fun_write_cpage_2[1]
 211  0023  00F5        	mov [117],a
 212  0024              #line 212 "f:\work\血糖仪\a_bh45f67-旧版\4g\美国客户\make_lib\v1.0.01（5000套出货)-02\g-777g-usa-bg95eseye-2022-2-20\iap.c"
 212  0024  1F00     E  	clr ra
 212  0025              _L35:
 212  0025  0700     E  	mov a,ra
 212  0026  0200     R  	sub a,_fun_write_cpage_2[2]
 212  0027  3C0A        	sz c
 212  0028  2800     R  	jmp _L40
 214  0029              #line 214 "f:\work\血糖仪\a_bh45f67-旧版\4g\美国客户\make_lib\v1.0.01（5000套出货)-02\g-777g-usa-bg95eseye-2022-2-20\iap.c"
 214  0029  0700     R  	mov a,_fun_write_cpage_2[3]
 214  002A  0080     E  	mov rb,a
 214  002B  1F00     E  	clr rc
 214  002C  0700     E  	mov a,ra
文件：iap.c        编译器版本 HGASM 0202 页次11

 214  002D  0300     E  	add a,rb
 214  002E  0080     E  	mov rd,a
 214  002F  1F05        	clr acc
 214  0030  1300     E  	adc a,rc
 214  0031  0080     E  	mov re,a
 214  0032  0F80        	mov a,low offset _BLOOD_Package
 214  0033  0300     E  	add a,rd
 214  0034  0083        	mov mp,a
 214  0035  0F02        	mov a,high offset _BLOOD_Package
 214  0036  1300     E  	adc a,re
 214  0037  0081        	mov sbp,a
 214  0038              	fcall _Crom2Prom
 214  003F  00F6        	mov [118],a
 215  0040              #line 215 "f:\work\血糖仪\a_bh45f67-旧版\4g\美国客户\make_lib\v1.0.01（5000套出货)-02\g-777g-usa-bg95eseye-2022-2-20\iap.c"
 215  0040  1400     E  	inca ra
 215  0041  0080     E  	mov rd,a
 216  0042              #line 216 "f:\work\血糖仪\a_bh45f67-旧版\4g\美国客户\make_lib\v1.0.01（5000套出货)-02\g-777g-usa-bg95eseye-2022-2-20\iap.c"
 216  0042  0700     E  	mov a,rd
 216  0043  0380     E  	addm a,rb
 216  0044  3C0A        	sz c
 216  0045  1480     E  	inc rc
 216  0046  0F80        	mov a,low offset _BLOOD_Package
 216  0047  0300     E  	add a,rb
 216  0048  0083        	mov mp,a
 216  0049  0F02        	mov a,high offset _BLOOD_Package
 216  004A  1300     E  	adc a,rc
 216  004B  0081        	mov sbp,a
 216  004C              	fcall _Crom2Prom
 216  0053  00F7        	mov [119],a
 212  0054              #line 212 "f:\work\血糖仪\a_bh45f67-旧版\4g\美国客户\make_lib\v1.0.01（5000套出货)-02\g-777g-usa-bg95eseye-2022-2-20\iap.c"
 212  0054  0F02        	mov a,2
 212  0055  0380     E  	addm a,ra
 212  0056  2800     R  	jmp _L35
 212  0057              _L40:
 219  0057              #line 219 "f:\work\血糖仪\a_bh45f67-旧版\4g\美国客户\make_lib\v1.0.01（5000套出货)-02\g-777g-usa-bg95eseye-2022-2-20\iap.c"
 219  0057  0F40        	mov a,low offset ___fc0
 219  0058  0083        	mov mp,a
 219  0059  0F01        	mov a,high offset ___fc0
 219  005A  0081        	mov sbp,a
 219  005B  0701        	mov a,sbp
 219  005C  0D00     R  	or a,bank _fun_write_cpage
 219  005D  0084        	mov bp,a
 219  005E  3102        	set ir.2
 219  005F              _L37:
 221  005F              #line 221 "f:\work\血糖仪\a_bh45f67-旧版\4g\美国客户\make_lib\v1.0.01（5000套出货)-02\g-777g-usa-bg95eseye-2022-2-20\iap.c"
 221  005F  0F40        	mov a,low offset ___fc0
 221  0060  0083        	mov mp,a
 221  0061  0F01        	mov a,high offset ___fc0
 221  0062  0081        	mov sbp,a
 221  0063  0701        	mov a,sbp
 221  0064  0D00     R  	or a,bank _fun_write_cpage
 221  0065  0084        	mov bp,a
 221  0066  0702        	mov a,ir
 221  0067  0080     E  	mov ra,a
 221  0068  3800     E  	snz ra.2
 221  0069  2800     R  	jmp _L41
 223  006A              #line 223 "f:\work\血糖仪\a_bh45f67-旧版\4g\美国客户\make_lib\v1.0.01（5000套出货)-02\g-777g-usa-bg95eseye-2022-2-20\iap.c"
 223  006A              ;# 223 "f:\work\血糖仪\a_bh45f67-旧版\4g\美国客户\make_lib\v1.0.01（5000套出货)-02\g-777g-usa-bg95eseye-2022-2-20\iap.c" 1
 223  006A  0001        	clr wdt
 223  006B  2800     R  	jmp _L37
文件：iap.c        编译器版本 HGASM 0202 页次12

 223  006C              _L41:
 226  006C              #line 226 "f:\work\血糖仪\a_bh45f67-旧版\4g\美国客户\make_lib\v1.0.01（5000套出货)-02\g-777g-usa-bg95eseye-2022-2-20\iap.c"
 226  006C  3400     E  	clr ra.7
 226  006D  0701        	mov a,sbp
 226  006E  0D00     R  	or a,bank _fun_write_cpage
 226  006F  0084        	mov bp,a
 226  0070  0700     E  	mov a,ra
 226  0071  0082        	mov ir,a
 227  0072              #line 227 "f:\work\血糖仪\a_bh45f67-旧版\4g\美国客户\make_lib\v1.0.01（5000套出货)-02\g-777g-usa-bg95eseye-2022-2-20\iap.c"
 227  0072  3010        	set [16].0
 227  0073  0003        	ret
 227  0074              _fun_write_cpage endp
 227  0074              #line 227 "f:\work\血糖仪\a_bh45f67-旧版\4g\美国客户\make_lib\v1.0.01（5000套出货)-02\g-777g-usa-bg95eseye-2022-2-20\iap.c"
 227  0074              #pragma debug scope 1 1
 227  0074              #pragma debug struct_end
 227  0074              #pragma debug struct_end
 227  0074              #pragma debug union_end
 227  0074              #pragma debug union_end
 227  0074              #pragma debug variable 43 1 ___intc0 "__intc0" 1
 227  0074              #pragma debug struct_end
 227  0074              #pragma debug struct_end
 227  0074              #pragma debug union_end
 227  0074              #pragma debug union_end
 227  0074              #pragma debug variable 45 1 ___farl "__farl" 1
 227  0074              #pragma debug struct_end
 227  0074              #pragma debug struct_end
 227  0074              #pragma debug union_end
 227  0074              #pragma debug union_end
 227  0074              #pragma debug variable 47 1 ___farh "__farh" 1
 227  0074              #pragma debug variable 8 1 ___fd0l "__fd0l" 1
 227  0074              #pragma debug variable 8 1 ___fd0h "__fd0h" 1
 227  0074              #pragma debug variable 8 1 ___fd1l "__fd1l" 1
 227  0074              #pragma debug variable 8 1 ___fd1h "__fd1h" 1
 227  0074              #pragma debug variable 8 1 ___fd2l "__fd2l" 1
 227  0074              #pragma debug variable 8 1 ___fd2h "__fd2h" 1
 227  0074              #pragma debug variable 8 1 ___fd3l "__fd3l" 1
 227  0074              #pragma debug variable 8 1 ___fd3h "__fd3h" 1
 227  0074              #pragma debug struct_end
 227  0074              #pragma debug struct_end
 227  0074              #pragma debug union_end
 227  0074              #pragma debug union_end
 227  0074              #pragma debug variable 49 1 ___fc0 "__fc0" 1
 227  0074              #pragma debug struct_end
 227  0074              #pragma debug struct_end
 227  0074              #pragma debug union_end
 227  0074              #pragma debug union_end
 227  0074              #pragma debug variable 51 1 ___fc2 "__fc2" 1
 227  0074              #pragma debug struct_end
 227  0074              #pragma debug struct_end
 227  0074              #pragma debug struct_end
 227  0074              #pragma debug struct_end
 227  0074              #pragma debug struct_end
 227  0074              #pragma debug struct_end
 227  0074              #pragma debug struct_end
 227  0074              #pragma debug struct_end
 227  0074              #pragma debug union_end
 227  0074              #pragma debug union_end
 227  0074              #pragma debug variable 56 1 _BLOOD_Package "BLOOD_Package" 128
 227  0074              #pragma debug array 57 8 22 1
 227  0074              #pragma debug array 57 8 22 1
文件：iap.c        编译器版本 HGASM 0202 页次13

 227  0074              #pragma debug variable 57 1 _test_buff "test_buff" 22
 227  0074              
 227  0074              ; 
 227  0074              ; Generated by holtek-gcc v3.19, Thu Jul 21 09:11:07 2022
 227  0074              ; Rebuild 718
 227  0074              ; end of file


        0 Errors, 0