文件：lcd.c        编译器版本 HGASM 0202 页次1


   1  0000              ; Generated by holtek-gcc v3.19, Thu Jul 21 09:11:07 2022
   2  0000              ; 
   3  0000              ; Configuration:
   4  0000              ;       without long instruction
   5  0000              ;       Multi-ROM, Multi-RAM
   6  0000              ;       bits_per_rom_unit:16
   7  0000              ;       with mp1
   8  0000              ;       with tbhp, address(0x9)
   9  0000              ;          Use tabrd-const
  10  0000              ;       
  11  0000              ;       
  12  0000              ;       
  13  0000              ; use 'tabrdc' instead of 'tabrd'
  14  0000              ;       
  15  0000              
  16  0000              #pragma translator "holtek-gcc 4.6.4" "3.19" "build 20130711"
  17  0000              ; Rebuild 718
  18  0000              
  19  0000              ir equ [2]
  20  0000              mp equ [3]
  21  0000              sbp equ [1]
  22  0000              acc equ [5]
  23  0000              bp equ [4]
  24  0000              tblp equ [7]
  25  0000              tbhp equ [9]
  26  0000              status equ [10]
  27  0000              c equ [10].0
  28  0000              ac equ [10].1
  29  0000              z equ [10].2
  30  0000              ov equ [10].3
  31  0000              intc equ [11]
  32  0000              
  33  0000              extern ra:byte
  34  0000              extern rb:byte
  35  0000              extern rc:byte
  36  0000              extern rd:byte
  37  0000              extern re:byte
  38  0000              extern rf:byte
  39  0000              extern rg:byte
  40  0000              extern rh:byte
  41  0000              extern _Crom2Prom:near
  42  0000              extern _Crom2PromNext:near
  43  0000              
  44  0000              RAMBANK 0 @HCCINIT, @HCCINIT0
  45  0000              
  46  0000              RAMBANK 0 @BITDATASEC, @BITDATASEC1
  47  0000              @HCCINIT	.section 'data'
  48  0000              @HCCINIT0	.section 'data'
  49  0000              @BITDATASEC	 .section 'data'
  50  0000              @BITDATASEC1	 .section 'data'
  51  0000              
  52  0000              #pragma debug scope 1 1
  53  0000              	extern __DELAY3:near
  54  0000              	extern __DELAYX3:near
  55  0000              	extern __DELAYX6:near
  56  0000              	extern __DELAYY5:near
  57  0000              	extern __DELAYY3:near
  58  0000              	extern _builtin_holtek_delay_2:byte
  59  0000              _sys_time equ [942]
文件：lcd.ASM      编译器版本 HGASM 0202 页次2

  60  0000              _uart_time equ [1215]
  61  0000              _SystemFlags equ [896]
  62  0000              _Second equ [1211]
  63  0000              _Gsm_timer equ [240]
  64  0000              _sys_Second equ [950]
  65  0000              _sys_Minute equ [949]
  66  0000              _sys_Hour equ [948]
  67  0000              public _isr_timer_base0
  68  0000              #pragma debug scope 2 1

  84  0000              #line 84 "f:\work\血糖仪\a_bh45f67-旧版\4g\美国客户\make_lib\v1.0.01（5000套出货)-02\g-777g-usa-bg95eseye-2022-2-20\lcd.c"
  84  0000              rombank 0 @isr_timer_base0_code
  84  0000              @isr_timer_base0_code .section at 32 'code'
  84  0000  0080     E  	mov r1,a
  84  0001  0704        	mov a,bp
  84  0002  1F04        	clr bp
  84  0003  2800     R  	jmp _isr_timer_base0
  84  0004              ROMBANK 0 _isr_timer_base0
  84  0004              #pragma debug scope 1 1
  84  0004              @dummy32 endp
  84  0004              #pragma debug scope 3 1
  84  0000              _isr_timer_base0 .section 'code'
  84  0000              _isr_timer_base0 proc
  84  0000  00          local _isr_timer_base0_2 db 1 dup(?)
  84  0000  0080     E  	mov r2,a
  84  0001  070A        	mov a, status
  84  0002  0080     E  	mov r3,a
  84  0003  0703        	mov a,mp
  84  0004  0080     E  	mov r4,a
  84  0005  0701        	mov a,sbp
  84  0006  0080     E  	mov r5,a
  86  0007              #line 86 "f:\work\血糖仪\a_bh45f67-旧版\4g\美国客户\make_lib\v1.0.01（5000套出货)-02\g-777g-usa-bg95eseye-2022-2-20\lcd.c"
  86  0007  0FAE        	mov a,low offset _sys_time
  86  0008  0083        	mov mp,a
  86  0009  0F03        	mov a,high offset _sys_time
  86  000A  0081        	mov sbp,a
  86  000B  0701        	mov a,sbp
  86  000C  0D00     R  	or a,bank _isr_timer_base0
  86  000D  0084        	mov bp,a
  86  000E  0702        	mov a,ir
  86  000F  0080     R  	mov _isr_timer_base0_2[0],a
  86  0010  1400     R  	inca _isr_timer_base0_2[0]
  86  0011  0080     E  	mov ra,a
  86  0012  0701        	mov a,sbp
  86  0013  0D00     R  	or a,bank _isr_timer_base0
  86  0014  0084        	mov bp,a
  86  0015  0700     E  	mov a,ra
  86  0016  0082        	mov ir,a
  87  0017              #line 87 "f:\work\血糖仪\a_bh45f67-旧版\4g\美国客户\make_lib\v1.0.01（5000套出货)-02\g-777g-usa-bg95eseye-2022-2-20\lcd.c"
  87  0017  0F03        	mov a,3
  87  0018  0200     E  	sub a,ra
  87  0019  3C0A        	sz c
  87  001A  2800     R  	jmp _L1
  89  001B              #line 89 "f:\work\血糖仪\a_bh45f67-旧版\4g\美国客户\make_lib\v1.0.01（5000套出货)-02\g-777g-usa-bg95eseye-2022-2-20\lcd.c"
  89  001B  0701        	mov a,sbp
  89  001C  0D00     R  	or a,bank _isr_timer_base0
  89  001D  0084        	mov bp,a
  89  001E  0F00        	mov a,0
  89  001F  0082        	mov ir,a
  90  0020              #line 90 "f:\work\血糖仪\a_bh45f67-旧版\4g\美国客户\make_lib\v1.0.01（5000套出货)-02\g-777g-usa-bg95eseye-2022-2-20\lcd.c"
文件：lcd.c        编译器版本 HGASM 0202 页次3

  90  0020  0FBF        	mov a,low offset _uart_time
  90  0021  0083        	mov mp,a
  90  0022  0F04        	mov a,high offset _uart_time
  90  0023  0081        	mov sbp,a
  90  0024  0701        	mov a,sbp
  90  0025  0D00     R  	or a,bank _isr_timer_base0
  90  0026  0084        	mov bp,a
  90  0027  0702        	mov a,ir
  90  0028  0080     E  	mov rb,a
  90  0029  1483        	inc mp
  90  002A  0702        	mov a,ir
  90  002B  0080     E  	mov rc,a
  90  002C  1480     E  	inc rb
  90  002D  3D0A        	sz z
  90  002E  1480     E  	inc rc
  90  002F  0FBF        	mov a,low offset _uart_time
  90  0030  0083        	mov mp,a
  90  0031  0F04        	mov a,high offset _uart_time
  90  0032  0081        	mov sbp,a
  90  0033  0701        	mov a,sbp
  90  0034  0D00     R  	or a,bank _isr_timer_base0
  90  0035  0084        	mov bp,a
  90  0036  0700     E  	mov a,rb
  90  0037  0082        	mov ir,a
  90  0038  1483        	inc mp
  90  0039  0700     E  	mov a,rc
  90  003A  0082        	mov ir,a
  91  003B              #line 91 "f:\work\血糖仪\a_bh45f67-旧版\4g\美国客户\make_lib\v1.0.01（5000套出货)-02\g-777g-usa-bg95eseye-2022-2-20\lcd.c"
  91  003B  0F80        	mov a,low offset _SystemFlags
  91  003C  0083        	mov mp,a
  91  003D  0F03        	mov a,high offset _SystemFlags
  91  003E  0081        	mov sbp,a
  91  003F  0701        	mov a,sbp
  91  0040  0D00     R  	or a,bank _isr_timer_base0
  91  0041  0084        	mov bp,a
  91  0042  0702        	mov a,ir
  91  0043  0080     R  	mov _isr_timer_base0_2[0],a
  91  0044  3800     R  	snz _isr_timer_base0_2[0].5
  91  0045  2800     R  	jmp _L5
  93  0046              #line 93 "f:\work\血糖仪\a_bh45f67-旧版\4g\美国客户\make_lib\v1.0.01（5000套出货)-02\g-777g-usa-bg95eseye-2022-2-20\lcd.c"
  93  0046  0F06        	mov a,6
  93  0047  0383        	addm a,mp
  93  0048  0F00        	mov a,0
  93  0049  1381        	adcm a,sbp
  93  004A  0701        	mov a,sbp
  93  004B  0D00     R  	or a,bank _isr_timer_base0
  93  004C  0084        	mov bp,a
  93  004D  0702        	mov a,ir
  93  004E  0080     R  	mov _isr_timer_base0_2[0],a
  93  004F  1400     R  	inca _isr_timer_base0_2[0]
  93  0050  0080     E  	mov ra,a
  93  0051  0701        	mov a,sbp
  93  0052  0D00     R  	or a,bank _isr_timer_base0
  93  0053  0084        	mov bp,a
  93  0054  0700     E  	mov a,ra
  93  0055  0082        	mov ir,a
  94  0056              #line 94 "f:\work\血糖仪\a_bh45f67-旧版\4g\美国客户\make_lib\v1.0.01（5000套出货)-02\g-777g-usa-bg95eseye-2022-2-20\lcd.c"
  94  0056  0F03        	mov a,3
  94  0057  0200     E  	sub a,ra
  94  0058  3C0A        	sz c
文件：lcd.c        编译器版本 HGASM 0202 页次4

  94  0059  2800     R  	jmp _L5
  96  005A              #line 96 "f:\work\血糖仪\a_bh45f67-旧版\4g\美国客户\make_lib\v1.0.01（5000套出货)-02\g-777g-usa-bg95eseye-2022-2-20\lcd.c"
  96  005A  0701        	mov a,sbp
  96  005B  0D00     R  	or a,bank _isr_timer_base0
  96  005C  0084        	mov bp,a
  96  005D  0F00        	mov a,0
  96  005E  0082        	mov ir,a
  96  005F              _L5:
  99  005F              #line 99 "f:\work\血糖仪\a_bh45f67-旧版\4g\美国客户\make_lib\v1.0.01（5000套出货)-02\g-777g-usa-bg95eseye-2022-2-20\lcd.c"
  99  005F  0F83        	mov a,low (offset _SystemFlags+3)
  99  0060  0083        	mov mp,a
  99  0061  0F03        	mov a,high (offset _SystemFlags+3)
  99  0062  0081        	mov sbp,a
  99  0063  0701        	mov a,sbp
  99  0064  0D00     R  	or a,bank _isr_timer_base0
  99  0065  0084        	mov bp,a
  99  0066  0702        	mov a,ir
  99  0067  0080     E  	mov ra,a
  99  0068  3800     E  	snz ra.2
  99  0069  2800     R  	jmp _L7
 101  006A              #line 101 "f:\work\血糖仪\a_bh45f67-旧版\4g\美国客户\make_lib\v1.0.01（5000套出货)-02\g-777g-usa-bg95eseye-2022-2-20\lcd.c"
 101  006A  3400     E  	clr ra.2
 101  006B  2800     R  	jmp _L14
 101  006C              _L7:
 105  006C              #line 105 "f:\work\血糖仪\a_bh45f67-旧版\4g\美国客户\make_lib\v1.0.01（5000套出货)-02\g-777g-usa-bg95eseye-2022-2-20\lcd.c"
 105  006C  3000     E  	set ra.2
 105  006D              _L14:
 105  006D  0701        	mov a,sbp
 105  006E  0D00     R  	or a,bank _isr_timer_base0
 105  006F  0084        	mov bp,a
 105  0070  0700     E  	mov a,ra
 105  0071  0082        	mov ir,a
 107  0072              #line 107 "f:\work\血糖仪\a_bh45f67-旧版\4g\美国客户\make_lib\v1.0.01（5000套出货)-02\g-777g-usa-bg95eseye-2022-2-20\lcd.c"
 107  0072  0FBB        	mov a,low offset _Second
 107  0073  0083        	mov mp,a
 107  0074  0F04        	mov a,high offset _Second
 107  0075  0081        	mov sbp,a
 107  0076  0701        	mov a,sbp
 107  0077  0D00     R  	or a,bank _isr_timer_base0
 107  0078  0084        	mov bp,a
 107  0079  0702        	mov a,ir
 107  007A  0080     E  	mov rb,a
 107  007B  1483        	inc mp
 107  007C  0702        	mov a,ir
 107  007D  0080     E  	mov rc,a
 107  007E  1480     E  	inc rb
 107  007F  3D0A        	sz z
 107  0080  1480     E  	inc rc
 107  0081  0FBB        	mov a,low offset _Second
 107  0082  0083        	mov mp,a
 107  0083  0F04        	mov a,high offset _Second
 107  0084  0081        	mov sbp,a
 107  0085  0701        	mov a,sbp
 107  0086  0D00     R  	or a,bank _isr_timer_base0
 107  0087  0084        	mov bp,a
 107  0088  0700     E  	mov a,rb
 107  0089  0082        	mov ir,a
 107  008A  1483        	inc mp
 107  008B  0700     E  	mov a,rc
 107  008C  0082        	mov ir,a
文件：lcd.c        编译器版本 HGASM 0202 页次5

 108  008D              #line 108 "f:\work\血糖仪\a_bh45f67-旧版\4g\美国客户\make_lib\v1.0.01（5000套出货)-02\g-777g-usa-bg95eseye-2022-2-20\lcd.c"
 108  008D  0F83        	mov a,low (offset _SystemFlags+3)
 108  008E  0083        	mov mp,a
 108  008F  0F03        	mov a,high (offset _SystemFlags+3)
 108  0090  0081        	mov sbp,a
 108  0091  0701        	mov a,sbp
 108  0092  0D00     R  	or a,bank _isr_timer_base0
 108  0093  0084        	mov bp,a
 108  0094  0702        	mov a,ir
 108  0095  0080     E  	mov ra,a
 108  0096  3800     E  	snz ra.0
 108  0097  2800     R  	jmp _L9
 110  0098              #line 110 "f:\work\血糖仪\a_bh45f67-旧版\4g\美国客户\make_lib\v1.0.01（5000套出货)-02\g-777g-usa-bg95eseye-2022-2-20\lcd.c"
 110  0098  54F0        	inc [240]
 110  0099  3D0A        	sz z
 110  009A  54F1        	inc [241]
 110  009B              _L9:
 112  009B              #line 112 "f:\work\血糖仪\a_bh45f67-旧版\4g\美国客户\make_lib\v1.0.01（5000套出货)-02\g-777g-usa-bg95eseye-2022-2-20\lcd.c"
 112  009B  0FB6        	mov a,low offset _sys_Second
 112  009C  0083        	mov mp,a
 112  009D  0F03        	mov a,high offset _sys_Second
 112  009E  0081        	mov sbp,a
 112  009F  0701        	mov a,sbp
 112  00A0  0D00     R  	or a,bank _isr_timer_base0
 112  00A1  0084        	mov bp,a
 112  00A2  0702        	mov a,ir
 112  00A3  0080     R  	mov _isr_timer_base0_2[0],a
 112  00A4  1400     R  	inca _isr_timer_base0_2[0]
 112  00A5  0080     E  	mov ra,a
 112  00A6  0701        	mov a,sbp
 112  00A7  0D00     R  	or a,bank _isr_timer_base0
 112  00A8  0084        	mov bp,a
 112  00A9  0700     E  	mov a,ra
 112  00AA  0082        	mov ir,a
 113  00AB              #line 113 "f:\work\血糖仪\a_bh45f67-旧版\4g\美国客户\make_lib\v1.0.01（5000套出货)-02\g-777g-usa-bg95eseye-2022-2-20\lcd.c"
 113  00AB  0F3B        	mov a,59
 113  00AC  0200     E  	sub a,ra
 113  00AD  3C0A        	sz c
 113  00AE  2800     R  	jmp _L1
 115  00AF              #line 115 "f:\work\血糖仪\a_bh45f67-旧版\4g\美国客户\make_lib\v1.0.01（5000套出货)-02\g-777g-usa-bg95eseye-2022-2-20\lcd.c"
 115  00AF  0701        	mov a,sbp
 115  00B0  0D00     R  	or a,bank _isr_timer_base0
 115  00B1  0084        	mov bp,a
 115  00B2  0F00        	mov a,0
 115  00B3  0082        	mov ir,a
 116  00B4              #line 116 "f:\work\血糖仪\a_bh45f67-旧版\4g\美国客户\make_lib\v1.0.01（5000套出货)-02\g-777g-usa-bg95eseye-2022-2-20\lcd.c"
 116  00B4  0FB5        	mov a,low offset _sys_Minute
 116  00B5  0083        	mov mp,a
 116  00B6  0F03        	mov a,high offset _sys_Minute
 116  00B7  0081        	mov sbp,a
 116  00B8  0701        	mov a,sbp
 116  00B9  0D00     R  	or a,bank _isr_timer_base0
 116  00BA  0084        	mov bp,a
 116  00BB  0702        	mov a,ir
 116  00BC  0080     R  	mov _isr_timer_base0_2[0],a
 116  00BD  1400     R  	inca _isr_timer_base0_2[0]
 116  00BE  0080     E  	mov ra,a
 116  00BF  0701        	mov a,sbp
 116  00C0  0D00     R  	or a,bank _isr_timer_base0
 116  00C1  0084        	mov bp,a
文件：lcd.c        编译器版本 HGASM 0202 页次6

 116  00C2  0700     E  	mov a,ra
 116  00C3  0082        	mov ir,a
 117  00C4              #line 117 "f:\work\血糖仪\a_bh45f67-旧版\4g\美国客户\make_lib\v1.0.01（5000套出货)-02\g-777g-usa-bg95eseye-2022-2-20\lcd.c"
 117  00C4  0F3B        	mov a,59
 117  00C5  0200     E  	sub a,ra
 117  00C6  3C0A        	sz c
 117  00C7  2800     R  	jmp _L1
 119  00C8              #line 119 "f:\work\血糖仪\a_bh45f67-旧版\4g\美国客户\make_lib\v1.0.01（5000套出货)-02\g-777g-usa-bg95eseye-2022-2-20\lcd.c"
 119  00C8  0701        	mov a,sbp
 119  00C9  0D00     R  	or a,bank _isr_timer_base0
 119  00CA  0084        	mov bp,a
 119  00CB  0F00        	mov a,0
 119  00CC  0082        	mov ir,a
 120  00CD              #line 120 "f:\work\血糖仪\a_bh45f67-旧版\4g\美国客户\make_lib\v1.0.01（5000套出货)-02\g-777g-usa-bg95eseye-2022-2-20\lcd.c"
 120  00CD  0FB4        	mov a,low offset _sys_Hour
 120  00CE  0083        	mov mp,a
 120  00CF  0F03        	mov a,high offset _sys_Hour
 120  00D0  0081        	mov sbp,a
 120  00D1  0701        	mov a,sbp
 120  00D2  0D00     R  	or a,bank _isr_timer_base0
 120  00D3  0084        	mov bp,a
 120  00D4  0702        	mov a,ir
 120  00D5  0080     R  	mov _isr_timer_base0_2[0],a
 120  00D6  1400     R  	inca _isr_timer_base0_2[0]
 120  00D7  0080     E  	mov ra,a
 120  00D8  0701        	mov a,sbp
 120  00D9  0D00     R  	or a,bank _isr_timer_base0
 120  00DA  0084        	mov bp,a
 120  00DB  0700     E  	mov a,ra
 120  00DC  0082        	mov ir,a
 120  00DD              _L1:
 120  00DD  0700     E  	mov a,r2
 120  00DE  0084        	mov bp,a
 120  00DF  0700     E  	mov a,r3
 120  00E0  008A        	mov status,a
 120  00E1  0700     E  	mov a,r4
 120  00E2  0083        	mov mp,a
 120  00E3  0700     E  	mov a,r5
 120  00E4  0081        	mov sbp,a
 120  00E5  0700     E  	mov a,r1
 120  00E6  0004        	reti
 120  00E7              _isr_timer_base0 endp
 120  00E7              
 120  00E7              #line 120 "f:\work\血糖仪\a_bh45f67-旧版\4g\美国客户\make_lib\v1.0.01（5000套出货)-02\g-777g-usa-bg95eseye-2022-2-20\lcd.c"
 120  00E7              #pragma debug scope 1 1
 120  00E7              _disp_buff equ [926]
 120  00E7              _LcdRam equ [384]
 120  00E7              _flash equ [910]
 120  00E7              public _show_display
 120  00E7              #pragma debug scope 4 1
 127  00E7              #line 127 "f:\work\血糖仪\a_bh45f67-旧版\4g\美国客户\make_lib\v1.0.01（5000套出货)-02\g-777g-usa-bg95eseye-2022-2-20\lcd.c"
 127  0000              _show_display .section 'code'
 127  0000              _show_display proc
 127  0000  0002[           local _show_display_2 db 2 dup(?)	; 0,2
            00
            ]
 127  0000  0F10        	mov a,16
 127  0001  0080     R  	mov _show_display_2[0],a
 128  0002              #line 128 "f:\work\血糖仪\a_bh45f67-旧版\4g\美国客户\make_lib\v1.0.01（5000套出货)-02\g-777g-usa-bg95eseye-2022-2-20\lcd.c"
 128  0002  1F00     E  	clr ra
文件：lcd.c        编译器版本 HGASM 0202 页次7

 129  0003              #line 129 "f:\work\血糖仪\a_bh45f67-旧版\4g\美国客户\make_lib\v1.0.01（5000套出货)-02\g-777g-usa-bg95eseye-2022-2-20\lcd.c"
 129  0003  1F00     E  	clr rf
 129  0004              _L20:
 131  0004              #line 131 "f:\work\血糖仪\a_bh45f67-旧版\4g\美国客户\make_lib\v1.0.01（5000套出货)-02\g-777g-usa-bg95eseye-2022-2-20\lcd.c"
 131  0004  0700     E  	mov a,rf
 131  0005  0080     E  	mov rb,a
 131  0006  1F00     E  	clr rc
 131  0007  0F9E        	mov a,low offset _disp_buff
 131  0008  0300     E  	add a,rb
 131  0009  0083        	mov mp,a
 131  000A  0F03        	mov a,high offset _disp_buff
 131  000B  1300     E  	adc a,rc
 131  000C  0081        	mov sbp,a
 131  000D              	fcall _Crom2Prom
 131  0014  0080     E  	mov rg,a
 131  0015  0F0F        	mov a,15
 131  0016  0680     E  	andm a,rg
 131  0017  0F80        	mov a,low offset _LcdRam
 131  0018  0300     E  	add a,ra
 131  0019  0080     E  	mov rd,a
 131  001A  0F01        	mov a,high offset _LcdRam
 131  001B  1F00     E  	clr re
 131  001C  1380     E  	adcm a,re
 131  001D  0700     E  	mov a,rd
 131  001E  0083        	mov mp,a
 131  001F  0700     E  	mov a,re
 131  0020  0081        	mov sbp,a
 131  0021  0701        	mov a,sbp
 131  0022  0D00     R  	or a,bank _show_display
 131  0023  0084        	mov bp,a
 131  0024  0700     E  	mov a,rg
 131  0025  0082        	mov ir,a
 132  0026              #line 132 "f:\work\血糖仪\a_bh45f67-旧版\4g\美国客户\make_lib\v1.0.01（5000套出货)-02\g-777g-usa-bg95eseye-2022-2-20\lcd.c"
 132  0026  0F83        	mov a,low (offset _SystemFlags+3)
 132  0027  0083        	mov mp,a
 132  0028  0F03        	mov a,high (offset _SystemFlags+3)
 132  0029  0081        	mov sbp,a
 132  002A  0701        	mov a,sbp
 132  002B  0D00     R  	or a,bank _show_display
 132  002C  0084        	mov bp,a
 132  002D  0702        	mov a,ir
 132  002E  0080     E  	mov rg,a
 132  002F  3800     E  	snz rg.2
 132  0030  2800     R  	jmp _L17
 134  0031              #line 134 "f:\work\血糖仪\a_bh45f67-旧版\4g\美国客户\make_lib\v1.0.01（5000套出货)-02\g-777g-usa-bg95eseye-2022-2-20\lcd.c"
 134  0031  0700     E  	mov a,rd
 134  0032  0083        	mov mp,a
 134  0033  0700     E  	mov a,re
 134  0034  0081        	mov sbp,a
 134  0035              	fcall _Crom2Prom
 134  003C  0080     E  	mov rg,a
 134  003D  0F8E        	mov a,low offset _flash
 134  003E  0300     E  	add a,rb
 134  003F  0083        	mov mp,a
 134  0040  0F03        	mov a,high offset _flash
 134  0041  1300     E  	adc a,rc
 134  0042  0081        	mov sbp,a
 134  0043              	fcall _Crom2Prom
 134  004A  0080     E  	mov rh,a
 134  004B  0FF0        	mov a,240
文件：lcd.c        编译器版本 HGASM 0202 页次8

 134  004C  0580     E  	orm a,rh
 134  004D  0700     E  	mov a,rh
 134  004E  0680     E  	andm a,rg
 134  004F  0700     E  	mov a,rd
 134  0050  0083        	mov mp,a
 134  0051  0700     E  	mov a,re
 134  0052  0081        	mov sbp,a
 134  0053  0701        	mov a,sbp
 134  0054  0D00     R  	or a,bank _show_display
 134  0055  0084        	mov bp,a
 134  0056  0700     E  	mov a,rg
 134  0057  0082        	mov ir,a
 134  0058              _L17:
 136  0058              #line 136 "f:\work\血糖仪\a_bh45f67-旧版\4g\美国客户\make_lib\v1.0.01（5000套出货)-02\g-777g-usa-bg95eseye-2022-2-20\lcd.c"
 136  0058  1400     E  	inca ra
 136  0059  0080     E  	mov rd,a
 137  005A              #line 137 "f:\work\血糖仪\a_bh45f67-旧版\4g\美国客户\make_lib\v1.0.01（5000套出货)-02\g-777g-usa-bg95eseye-2022-2-20\lcd.c"
 137  005A  0F9E        	mov a,low offset _disp_buff
 137  005B  0300     E  	add a,rb
 137  005C  0083        	mov mp,a
 137  005D  0F03        	mov a,high offset _disp_buff
 137  005E  1300     E  	adc a,rc
 137  005F  0081        	mov sbp,a
 137  0060              	fcall _Crom2Prom
 137  0067  0080     E  	mov rg,a
 137  0068  1100     E  	swapa rg
 137  0069  0E0F        	and a,0fh
 137  006A  0080     R  	mov _show_display_2[1],a
 137  006B  0F80        	mov a,low offset _LcdRam
 137  006C  0300     E  	add a,rd
 137  006D  0080     E  	mov rg,a
 137  006E  0F01        	mov a,high offset _LcdRam
 137  006F  1F00     E  	clr rh
 137  0070  1380     E  	adcm a,rh
 137  0071  0700     E  	mov a,rg
 137  0072  0080     E  	mov rd,a
 137  0073  0700     E  	mov a,rh
 137  0074  0080     E  	mov re,a
 137  0075  0700     E  	mov a,rg
 137  0076  0083        	mov mp,a
 137  0077  0700     E  	mov a,rh
 137  0078  0081        	mov sbp,a
 137  0079  0701        	mov a,sbp
 137  007A  0D00     R  	or a,bank _show_display
 137  007B  0084        	mov bp,a
 137  007C  0700     R  	mov a,_show_display_2[1]
 137  007D  0082        	mov ir,a
 138  007E              #line 138 "f:\work\血糖仪\a_bh45f67-旧版\4g\美国客户\make_lib\v1.0.01（5000套出货)-02\g-777g-usa-bg95eseye-2022-2-20\lcd.c"
 138  007E  0F83        	mov a,low (offset _SystemFlags+3)
 138  007F  0083        	mov mp,a
 138  0080  0F03        	mov a,high (offset _SystemFlags+3)
 138  0081  0081        	mov sbp,a
 138  0082  0701        	mov a,sbp
 138  0083  0D00     R  	or a,bank _show_display
 138  0084  0084        	mov bp,a
 138  0085  0702        	mov a,ir
 138  0086  0080     E  	mov rg,a
 138  0087  3800     E  	snz rg.2
 138  0088  2800     R  	jmp _L18
 140  0089              #line 140 "f:\work\血糖仪\a_bh45f67-旧版\4g\美国客户\make_lib\v1.0.01（5000套出货)-02\g-777g-usa-bg95eseye-2022-2-20\lcd.c"
文件：lcd.c        编译器版本 HGASM 0202 页次9

 140  0089  0700     E  	mov a,rd
 140  008A  0083        	mov mp,a
 140  008B  0700     E  	mov a,re
 140  008C  0081        	mov sbp,a
 140  008D              	fcall _Crom2Prom
 140  0094  0080     E  	mov rg,a
 140  0095  0F8E        	mov a,low offset _flash
 140  0096  0300     E  	add a,rb
 140  0097  0083        	mov mp,a
 140  0098  0F03        	mov a,high offset _flash
 140  0099  1300     E  	adc a,rc
 140  009A  0081        	mov sbp,a
 140  009B              	fcall _Crom2Prom
 140  00A2  0080     E  	mov rb,a
 140  00A3  1100     E  	swapa rb
 140  00A4  0E0F        	and a,0fh
 140  00A5  0080     E  	mov rb,a
 140  00A6  0700     E  	mov a,rg
 140  00A7  0680     E  	andm a,rb
 140  00A8  0700     E  	mov a,rd
 140  00A9  0083        	mov mp,a
 140  00AA  0700     E  	mov a,re
 140  00AB  0081        	mov sbp,a
 140  00AC  0701        	mov a,sbp
 140  00AD  0D00     R  	or a,bank _show_display
 140  00AE  0084        	mov bp,a
 140  00AF  0700     E  	mov a,rb
 140  00B0  0082        	mov ir,a
 140  00B1              _L18:
 142  00B1              #line 142 "f:\work\血糖仪\a_bh45f67-旧版\4g\美国客户\make_lib\v1.0.01（5000套出货)-02\g-777g-usa-bg95eseye-2022-2-20\lcd.c"
 142  00B1  0F02        	mov a,2
 142  00B2  0380     E  	addm a,ra
 129  00B3              #line 129 "f:\work\血糖仪\a_bh45f67-旧版\4g\美国客户\make_lib\v1.0.01（5000套出货)-02\g-777g-usa-bg95eseye-2022-2-20\lcd.c"
 129  00B3  1480     E  	inc rf
 129  00B4  1780     R  	sdz _show_display_2[0]
 129  00B5  2800     R  	jmp _L20
 129  00B6  0003        	ret
 129  00B7              _show_display endp
 129  00B7              #line 129 "f:\work\血糖仪\a_bh45f67-旧版\4g\美国客户\make_lib\v1.0.01（5000套出货)-02\g-777g-usa-bg95eseye-2022-2-20\lcd.c"
 129  00B7              #pragma debug scope 1 1
 129  00B7              public _show_battery
 129  00B7              #pragma debug scope 5 1
 146  00B7              #line 146 "f:\work\血糖仪\a_bh45f67-旧版\4g\美国客户\make_lib\v1.0.01（5000套出货)-02\g-777g-usa-bg95eseye-2022-2-20\lcd.c"
 146  0000              _show_battery .section 'code'
 146  0000              _show_battery proc
 147  0000              #line 147 "f:\work\血糖仪\a_bh45f67-旧版\4g\美国客户\make_lib\v1.0.01（5000套出货)-02\g-777g-usa-bg95eseye-2022-2-20\lcd.c"
 147  0000  0F86        	mov a,low (offset _SystemFlags+6)
 147  0001  0083        	mov mp,a
 147  0002  0F03        	mov a,high (offset _SystemFlags+6)
 147  0003  0081        	mov sbp,a
 147  0004  0701        	mov a,sbp
 147  0005  0D00     R  	or a,bank _show_battery
 147  0006  0084        	mov bp,a
 147  0007  0702        	mov a,ir
 147  0008  0080     E  	mov ra,a
 147  0009  1080     E  	sz ra
 147  000A  2800     R  	jmp _LI1
 147  000B  2800     R  	jmp _L28
 147  000C              _LI1:
 149  000C              #line 149 "f:\work\血糖仪\a_bh45f67-旧版\4g\美国客户\make_lib\v1.0.01（5000套出货)-02\g-777g-usa-bg95eseye-2022-2-20\lcd.c"
文件：lcd.c        编译器版本 HGASM 0202 页次10

 149  000C  0FAD        	mov a,low (offset _disp_buff+15)
 149  000D  0083        	mov mp,a
 149  000E  0F03        	mov a,high (offset _disp_buff+15)
 149  000F  0081        	mov sbp,a
 149  0010  0701        	mov a,sbp
 149  0011  0D00     R  	or a,bank _show_battery
 149  0012  0084        	mov bp,a
 149  0013  3002        	set ir.0
 149  0014              _L28:
 151  0014              #line 151 "f:\work\血糖仪\a_bh45f67-旧版\4g\美国客户\make_lib\v1.0.01（5000套出货)-02\g-777g-usa-bg95eseye-2022-2-20\lcd.c"
 151  0014  0F86        	mov a,low (offset _SystemFlags+6)
 151  0015  0083        	mov mp,a
 151  0016  0F03        	mov a,high (offset _SystemFlags+6)
 151  0017  0081        	mov sbp,a
 151  0018  0701        	mov a,sbp
 151  0019  0D00     R  	or a,bank _show_battery
 151  001A  0084        	mov bp,a
 151  001B  0702        	mov a,ir
 151  001C  0080     E  	mov ra,a
 151  001D  0F01        	mov a,1
 151  001E  0200     E  	sub a,ra
 151  001F  3C0A        	sz c
 151  0020  2800     R  	jmp _L29
 153  0021              #line 153 "f:\work\血糖仪\a_bh45f67-旧版\4g\美国客户\make_lib\v1.0.01（5000套出货)-02\g-777g-usa-bg95eseye-2022-2-20\lcd.c"
 153  0021  0FAB        	mov a,low (offset _disp_buff+13)
 153  0022  0083        	mov mp,a
 153  0023  0F03        	mov a,high (offset _disp_buff+13)
 153  0024  0081        	mov sbp,a
 153  0025  0701        	mov a,sbp
 153  0026  0D00     R  	or a,bank _show_battery
 153  0027  0084        	mov bp,a
 153  0028  3002        	set ir.0
 153  0029              _L29:
 155  0029              #line 155 "f:\work\血糖仪\a_bh45f67-旧版\4g\美国客户\make_lib\v1.0.01（5000套出货)-02\g-777g-usa-bg95eseye-2022-2-20\lcd.c"
 155  0029  0F86        	mov a,low (offset _SystemFlags+6)
 155  002A  0083        	mov mp,a
 155  002B  0F03        	mov a,high (offset _SystemFlags+6)
 155  002C  0081        	mov sbp,a
 155  002D  0701        	mov a,sbp
 155  002E  0D00     R  	or a,bank _show_battery
 155  002F  0084        	mov bp,a
 155  0030  0702        	mov a,ir
 155  0031  0080     E  	mov ra,a
 155  0032  0F02        	mov a,2
 155  0033  0200     E  	sub a,ra
 155  0034  3C0A        	sz c
 155  0035  2800     R  	jmp _L30
 157  0036              #line 157 "f:\work\血糖仪\a_bh45f67-旧版\4g\美国客户\make_lib\v1.0.01（5000套出货)-02\g-777g-usa-bg95eseye-2022-2-20\lcd.c"
 157  0036  0FA9        	mov a,low (offset _disp_buff+11)
 157  0037  0083        	mov mp,a
 157  0038  0F03        	mov a,high (offset _disp_buff+11)
 157  0039  0081        	mov sbp,a
 157  003A  0701        	mov a,sbp
 157  003B  0D00     R  	or a,bank _show_battery
 157  003C  0084        	mov bp,a
 157  003D  3202        	set ir.4
 157  003E              _L30:
 159  003E              #line 159 "f:\work\血糖仪\a_bh45f67-旧版\4g\美国客户\make_lib\v1.0.01（5000套出货)-02\g-777g-usa-bg95eseye-2022-2-20\lcd.c"
 159  003E  0FA1        	mov a,low (offset _disp_buff+3)
 159  003F  0083        	mov mp,a
文件：lcd.c        编译器版本 HGASM 0202 页次11

 159  0040  0F03        	mov a,high (offset _disp_buff+3)
 159  0041  0081        	mov sbp,a
 159  0042  0701        	mov a,sbp
 159  0043  0D00     R  	or a,bank _show_battery
 159  0044  0084        	mov bp,a
 159  0045  3382        	set ir.7
 159  0046  0003        	ret
 159  0047              _show_battery endp
 159  0047              #line 159 "f:\work\血糖仪\a_bh45f67-旧版\4g\美国客户\make_lib\v1.0.01（5000套出货)-02\g-777g-usa-bg95eseye-2022-2-20\lcd.c"
 159  0047              #pragma debug scope 1 1
 159  0047              public _displey_YES
 159  0047              #pragma debug scope 6 1
 163  0047              #line 163 "f:\work\血糖仪\a_bh45f67-旧版\4g\美国客户\make_lib\v1.0.01（5000套出货)-02\g-777g-usa-bg95eseye-2022-2-20\lcd.c"
 163  0000              _displey_YES .section 'code'
 163  0000              _displey_YES proc
 164  0000              #line 164 "f:\work\血糖仪\a_bh45f67-旧版\4g\美国客户\make_lib\v1.0.01（5000套出货)-02\g-777g-usa-bg95eseye-2022-2-20\lcd.c"
 164  0000  0F9E        	mov a,low offset _disp_buff
 164  0001  0083        	mov mp,a
 164  0002  0F03        	mov a,high offset _disp_buff
 164  0003  0081        	mov sbp,a
 164  0004  0701        	mov a,sbp
 164  0005  0D00     R  	or a,bank _displey_YES
 164  0006  0084        	mov bp,a
 164  0007  0F60        	mov a,96
 164  0008  0082        	mov ir,a
 165  0009              #line 165 "f:\work\血糖仪\a_bh45f67-旧版\4g\美国客户\make_lib\v1.0.01（5000套出货)-02\g-777g-usa-bg95eseye-2022-2-20\lcd.c"
 165  0009  1483        	inc mp
 165  000A  3D0A        	sz z
 165  000B  1481        	inc sbp
 165  000C  0701        	mov a,sbp
 165  000D  0D00     R  	or a,bank _displey_YES
 165  000E  0084        	mov bp,a
 165  000F  0F77        	mov a,119
 165  0010  0082        	mov ir,a
 166  0011              #line 166 "f:\work\血糖仪\a_bh45f67-旧版\4g\美国客户\make_lib\v1.0.01（5000套出货)-02\g-777g-usa-bg95eseye-2022-2-20\lcd.c"
 166  0011  1483        	inc mp
 166  0012  3D0A        	sz z
 166  0013  1481        	inc sbp
 166  0014  0701        	mov a,sbp
 166  0015  0D00     R  	or a,bank _displey_YES
 166  0016  0084        	mov bp,a
 166  0017  0F49        	mov a,73
 166  0018  0082        	mov ir,a
 167  0019              #line 167 "f:\work\血糖仪\a_bh45f67-旧版\4g\美国客户\make_lib\v1.0.01（5000套出货)-02\g-777g-usa-bg95eseye-2022-2-20\lcd.c"
 167  0019  1483        	inc mp
 167  001A  3D0A        	sz z
 167  001B  1481        	inc sbp
 167  001C  0701        	mov a,sbp
 167  001D  0D00     R  	or a,bank _displey_YES
 167  001E  0084        	mov bp,a
 167  001F  0F3A        	mov a,58
 167  0020  0082        	mov ir,a
 168  0021              #line 168 "f:\work\血糖仪\a_bh45f67-旧版\4g\美国客户\make_lib\v1.0.01（5000套出货)-02\g-777g-usa-bg95eseye-2022-2-20\lcd.c"
 168  0021              	fcall _show_battery
 169  0028              #line 169 "f:\work\血糖仪\a_bh45f67-旧版\4g\美国客户\make_lib\v1.0.01（5000套出货)-02\g-777g-usa-bg95eseye-2022-2-20\lcd.c"
 169  0028              	fcall _show_display
 169  002F  0003        	ret
 169  0030              _displey_YES endp
 169  0030              #line 169 "f:\work\血糖仪\a_bh45f67-旧版\4g\美国客户\make_lib\v1.0.01（5000套出货)-02\g-777g-usa-bg95eseye-2022-2-20\lcd.c"
 169  0030              #pragma debug scope 1 1
文件：lcd.c        编译器版本 HGASM 0202 页次12

 169  0030              public _displey_test
 169  0030              #pragma debug scope 7 1
 172  0030              #line 172 "f:\work\血糖仪\a_bh45f67-旧版\4g\美国客户\make_lib\v1.0.01（5000套出货)-02\g-777g-usa-bg95eseye-2022-2-20\lcd.c"
 172  0000              _displey_test .section 'code'
 172  0000              _displey_test proc
 173  0000              #line 173 "f:\work\血糖仪\a_bh45f67-旧版\4g\美国客户\make_lib\v1.0.01（5000套出货)-02\g-777g-usa-bg95eseye-2022-2-20\lcd.c"
 173  0000  0F9E        	mov a,low offset _disp_buff
 173  0001  0083        	mov mp,a
 173  0002  0F03        	mov a,high offset _disp_buff
 173  0003  0081        	mov sbp,a
 173  0004  0701        	mov a,sbp
 173  0005  0D00     R  	or a,bank _displey_test
 173  0006  0084        	mov bp,a
 173  0007  0F30        	mov a,48
 173  0008  0082        	mov ir,a
 174  0009              #line 174 "f:\work\血糖仪\a_bh45f67-旧版\4g\美国客户\make_lib\v1.0.01（5000套出货)-02\g-777g-usa-bg95eseye-2022-2-20\lcd.c"
 174  0009  1483        	inc mp
 174  000A  3D0A        	sz z
 174  000B  1481        	inc sbp
 174  000C  0701        	mov a,sbp
 174  000D  0D00     R  	or a,bank _displey_test
 174  000E  0084        	mov bp,a
 174  000F  0F70        	mov a,112
 174  0010  0082        	mov ir,a
 175  0011              #line 175 "f:\work\血糖仪\a_bh45f67-旧版\4g\美国客户\make_lib\v1.0.01（5000套出货)-02\g-777g-usa-bg95eseye-2022-2-20\lcd.c"
 175  0011  1483        	inc mp
 175  0012  3D0A        	sz z
 175  0013  1481        	inc sbp
 175  0014  0701        	mov a,sbp
 175  0015  0D00     R  	or a,bank _displey_test
 175  0016  0084        	mov bp,a
 175  0017  0F49        	mov a,73
 175  0018  0082        	mov ir,a
 176  0019              #line 176 "f:\work\血糖仪\a_bh45f67-旧版\4g\美国客户\make_lib\v1.0.01（5000套出货)-02\g-777g-usa-bg95eseye-2022-2-20\lcd.c"
 176  0019  1483        	inc mp
 176  001A  3D0A        	sz z
 176  001B  1481        	inc sbp
 176  001C  0701        	mov a,sbp
 176  001D  0D00     R  	or a,bank _displey_test
 176  001E  0084        	mov bp,a
 176  001F  0FBE        	mov a,190
 176  0020  0082        	mov ir,a
 177  0021              #line 177 "f:\work\血糖仪\a_bh45f67-旧版\4g\美国客户\make_lib\v1.0.01（5000套出货)-02\g-777g-usa-bg95eseye-2022-2-20\lcd.c"
 177  0021              	fcall _show_battery
 178  0028              #line 178 "f:\work\血糖仪\a_bh45f67-旧版\4g\美国客户\make_lib\v1.0.01（5000套出货)-02\g-777g-usa-bg95eseye-2022-2-20\lcd.c"
 178  0028              	fcall _show_display
 178  002F  0003        	ret
 178  0030              _displey_test endp
 178  0030              #line 178 "f:\work\血糖仪\a_bh45f67-旧版\4g\美国客户\make_lib\v1.0.01（5000套出货)-02\g-777g-usa-bg95eseye-2022-2-20\lcd.c"
 178  0030              #pragma debug scope 1 1
 178  0030              public _displey_DEL
 178  0030              #pragma debug scope 8 1
 181  0030              #line 181 "f:\work\血糖仪\a_bh45f67-旧版\4g\美国客户\make_lib\v1.0.01（5000套出货)-02\g-777g-usa-bg95eseye-2022-2-20\lcd.c"
 181  0000              _displey_DEL .section 'code'
 181  0000              _displey_DEL proc
 182  0000              #line 182 "f:\work\血糖仪\a_bh45f67-旧版\4g\美国客户\make_lib\v1.0.01（5000套出货)-02\g-777g-usa-bg95eseye-2022-2-20\lcd.c"
 182  0000  0F9E        	mov a,low offset _disp_buff
 182  0001  0083        	mov mp,a
 182  0002  0F03        	mov a,high offset _disp_buff
 182  0003  0081        	mov sbp,a
文件：lcd.c        编译器版本 HGASM 0202 页次13

 182  0004  0701        	mov a,sbp
 182  0005  0D00     R  	or a,bank _displey_DEL
 182  0006  0084        	mov bp,a
 182  0007  0F30        	mov a,48
 182  0008  0082        	mov ir,a
 183  0009              #line 183 "f:\work\血糖仪\a_bh45f67-旧版\4g\美国客户\make_lib\v1.0.01（5000套出货)-02\g-777g-usa-bg95eseye-2022-2-20\lcd.c"
 183  0009  1483        	inc mp
 183  000A  3D0A        	sz z
 183  000B  1481        	inc sbp
 183  000C  0701        	mov a,sbp
 183  000D  0D00     R  	or a,bank _displey_DEL
 183  000E  0084        	mov bp,a
 183  000F  0F77        	mov a,119
 183  0010  0082        	mov ir,a
 184  0011              #line 184 "f:\work\血糖仪\a_bh45f67-旧版\4g\美国客户\make_lib\v1.0.01（5000套出货)-02\g-777g-usa-bg95eseye-2022-2-20\lcd.c"
 184  0011  1483        	inc mp
 184  0012  3D0A        	sz z
 184  0013  1481        	inc sbp
 184  0014  0701        	mov a,sbp
 184  0015  0D00     R  	or a,bank _displey_DEL
 184  0016  0084        	mov bp,a
 184  0017  0F69        	mov a,105
 184  0018  0082        	mov ir,a
 185  0019              #line 185 "f:\work\血糖仪\a_bh45f67-旧版\4g\美国客户\make_lib\v1.0.01（5000套出货)-02\g-777g-usa-bg95eseye-2022-2-20\lcd.c"
 185  0019  1483        	inc mp
 185  001A  3D0A        	sz z
 185  001B  1481        	inc sbp
 185  001C  0701        	mov a,sbp
 185  001D  0D00     R  	or a,bank _displey_DEL
 185  001E  0084        	mov bp,a
 185  001F  0F10        	mov a,16
 185  0020  0082        	mov ir,a
 186  0021              #line 186 "f:\work\血糖仪\a_bh45f67-旧版\4g\美国客户\make_lib\v1.0.01（5000套出货)-02\g-777g-usa-bg95eseye-2022-2-20\lcd.c"
 186  0021  1483        	inc mp
 186  0022  3D0A        	sz z
 186  0023  1481        	inc sbp
 186  0024  0701        	mov a,sbp
 186  0025  0D00     R  	or a,bank _displey_DEL
 186  0026  0084        	mov bp,a
 186  0027  0F00        	mov a,0
 186  0028  0082        	mov ir,a
 187  0029              #line 187 "f:\work\血糖仪\a_bh45f67-旧版\4g\美国客户\make_lib\v1.0.01（5000套出货)-02\g-777g-usa-bg95eseye-2022-2-20\lcd.c"
 187  0029  1483        	inc mp
 187  002A  3D0A        	sz z
 187  002B  1481        	inc sbp
 187  002C  0701        	mov a,sbp
 187  002D  0D00     R  	or a,bank _displey_DEL
 187  002E  0084        	mov bp,a
 187  002F  0F08        	mov a,8
 187  0030  0082        	mov ir,a
 188  0031              #line 188 "f:\work\血糖仪\a_bh45f67-旧版\4g\美国客户\make_lib\v1.0.01（5000套出货)-02\g-777g-usa-bg95eseye-2022-2-20\lcd.c"
 188  0031  0F93        	mov a,low (offset _flash+5)
 188  0032  0083        	mov mp,a
 188  0033  0F03        	mov a,high (offset _flash+5)
 188  0034  0081        	mov sbp,a
 188  0035  0701        	mov a,sbp
 188  0036  0D00     R  	or a,bank _displey_DEL
 188  0037  0084        	mov bp,a
 188  0038  0FF7        	mov a,247
 188  0039  0082        	mov ir,a
文件：lcd.c        编译器版本 HGASM 0202 页次14

 189  003A              #line 189 "f:\work\血糖仪\a_bh45f67-旧版\4g\美国客户\make_lib\v1.0.01（5000套出货)-02\g-777g-usa-bg95eseye-2022-2-20\lcd.c"
 189  003A              	fcall _show_battery
 190  0041              #line 190 "f:\work\血糖仪\a_bh45f67-旧版\4g\美国客户\make_lib\v1.0.01（5000套出货)-02\g-777g-usa-bg95eseye-2022-2-20\lcd.c"
 190  0041              	fcall _show_display
 190  0048  0003        	ret
 190  0049              _displey_DEL endp
 190  0049              #line 190 "f:\work\血糖仪\a_bh45f67-旧版\4g\美国客户\make_lib\v1.0.01（5000套出货)-02\g-777g-usa-bg95eseye-2022-2-20\lcd.c"
 190  0049              #pragma debug scope 1 1
 190  0049              public _displey_EB
 190  0049              #pragma debug scope 9 1
 193  0049              #line 193 "f:\work\血糖仪\a_bh45f67-旧版\4g\美国客户\make_lib\v1.0.01（5000套出货)-02\g-777g-usa-bg95eseye-2022-2-20\lcd.c"
 193  0000              _displey_EB .section 'code'
 193  0000              _displey_EB proc
 194  0000              #line 194 "f:\work\血糖仪\a_bh45f67-旧版\4g\美国客户\make_lib\v1.0.01（5000套出货)-02\g-777g-usa-bg95eseye-2022-2-20\lcd.c"
 194  0000  0F9E        	mov a,low offset _disp_buff
 194  0001  0083        	mov mp,a
 194  0002  0F03        	mov a,high offset _disp_buff
 194  0003  0081        	mov sbp,a
 194  0004  0701        	mov a,sbp
 194  0005  0D00     R  	or a,bank _displey_EB
 194  0006  0084        	mov bp,a
 194  0007  0F70        	mov a,112
 194  0008  0082        	mov ir,a
 195  0009              #line 195 "f:\work\血糖仪\a_bh45f67-旧版\4g\美国客户\make_lib\v1.0.01（5000套出货)-02\g-777g-usa-bg95eseye-2022-2-20\lcd.c"
 195  0009  1483        	inc mp
 195  000A  3D0A        	sz z
 195  000B  1481        	inc sbp
 195  000C  0701        	mov a,sbp
 195  000D  0D00     R  	or a,bank _displey_EB
 195  000E  0084        	mov bp,a
 195  000F  0F29        	mov a,41
 195  0010  0082        	mov ir,a
 196  0011              #line 196 "f:\work\血糖仪\a_bh45f67-旧版\4g\美国客户\make_lib\v1.0.01（5000套出货)-02\g-777g-usa-bg95eseye-2022-2-20\lcd.c"
 196  0011  1483        	inc mp
 196  0012  3D0A        	sz z
 196  0013  1481        	inc sbp
 196  0014  0701        	mov a,sbp
 196  0015  0D00     R  	or a,bank _displey_EB
 196  0016  0084        	mov bp,a
 196  0017  0F60        	mov a,96
 196  0018  0082        	mov ir,a
 197  0019              #line 197 "f:\work\血糖仪\a_bh45f67-旧版\4g\美国客户\make_lib\v1.0.01（5000套出货)-02\g-777g-usa-bg95eseye-2022-2-20\lcd.c"
 197  0019  1483        	inc mp
 197  001A  3D0A        	sz z
 197  001B  1481        	inc sbp
 197  001C  0701        	mov a,sbp
 197  001D  0D00     R  	or a,bank _displey_EB
 197  001E  0084        	mov bp,a
 197  001F  0F32        	mov a,50
 197  0020  0082        	mov ir,a
 198  0021              #line 198 "f:\work\血糖仪\a_bh45f67-旧版\4g\美国客户\make_lib\v1.0.01（5000套出货)-02\g-777g-usa-bg95eseye-2022-2-20\lcd.c"
 198  0021              	fcall _show_battery
 199  0028              #line 199 "f:\work\血糖仪\a_bh45f67-旧版\4g\美国客户\make_lib\v1.0.01（5000套出货)-02\g-777g-usa-bg95eseye-2022-2-20\lcd.c"
 199  0028              	fcall _show_display
 199  002F  0003        	ret
 199  0030              _displey_EB endp
 199  0030              #line 199 "f:\work\血糖仪\a_bh45f67-旧版\4g\美国客户\make_lib\v1.0.01（5000套出货)-02\g-777g-usa-bg95eseye-2022-2-20\lcd.c"
 199  0030              #pragma debug scope 1 1
 199  0030              public _displey_EU
 199  0030              #pragma debug scope 10 1
文件：lcd.c        编译器版本 HGASM 0202 页次15

 202  0030              #line 202 "f:\work\血糖仪\a_bh45f67-旧版\4g\美国客户\make_lib\v1.0.01（5000套出货)-02\g-777g-usa-bg95eseye-2022-2-20\lcd.c"
 202  0000              _displey_EU .section 'code'
 202  0000              _displey_EU proc
 203  0000              #line 203 "f:\work\血糖仪\a_bh45f67-旧版\4g\美国客户\make_lib\v1.0.01（5000套出货)-02\g-777g-usa-bg95eseye-2022-2-20\lcd.c"
 203  0000  0F9E        	mov a,low offset _disp_buff
 203  0001  0083        	mov mp,a
 203  0002  0F03        	mov a,high offset _disp_buff
 203  0003  0081        	mov sbp,a
 203  0004  0701        	mov a,sbp
 203  0005  0D00     R  	or a,bank _displey_EU
 203  0006  0084        	mov bp,a
 203  0007  0F70        	mov a,112
 203  0008  0082        	mov ir,a
 204  0009              #line 204 "f:\work\血糖仪\a_bh45f67-旧版\4g\美国客户\make_lib\v1.0.01（5000套出货)-02\g-777g-usa-bg95eseye-2022-2-20\lcd.c"
 204  0009  1483        	inc mp
 204  000A  3D0A        	sz z
 204  000B  1481        	inc sbp
 204  000C  0701        	mov a,sbp
 204  000D  0D00     R  	or a,bank _displey_EU
 204  000E  0084        	mov bp,a
 204  000F  0F29        	mov a,41
 204  0010  0082        	mov ir,a
 205  0011              #line 205 "f:\work\血糖仪\a_bh45f67-旧版\4g\美国客户\make_lib\v1.0.01（5000套出货)-02\g-777g-usa-bg95eseye-2022-2-20\lcd.c"
 205  0011  1483        	inc mp
 205  0012  3D0A        	sz z
 205  0013  1481        	inc sbp
 205  0014  0701        	mov a,sbp
 205  0015  0D00     R  	or a,bank _displey_EU
 205  0016  0084        	mov bp,a
 205  0017  0F60        	mov a,96
 205  0018  0082        	mov ir,a
 206  0019              #line 206 "f:\work\血糖仪\a_bh45f67-旧版\4g\美国客户\make_lib\v1.0.01（5000套出货)-02\g-777g-usa-bg95eseye-2022-2-20\lcd.c"
 206  0019  1483        	inc mp
 206  001A  3D0A        	sz z
 206  001B  1481        	inc sbp
 206  001C  0701        	mov a,sbp
 206  001D  0D00     R  	or a,bank _displey_EU
 206  001E  0084        	mov bp,a
 206  001F  0F70        	mov a,112
 206  0020  0082        	mov ir,a
 207  0021              #line 207 "f:\work\血糖仪\a_bh45f67-旧版\4g\美国客户\make_lib\v1.0.01（5000套出货)-02\g-777g-usa-bg95eseye-2022-2-20\lcd.c"
 207  0021              	fcall _show_display
 207  0028  0003        	ret
 207  0029              _displey_EU endp
 207  0029              #line 207 "f:\work\血糖仪\a_bh45f67-旧版\4g\美国客户\make_lib\v1.0.01（5000套出货)-02\g-777g-usa-bg95eseye-2022-2-20\lcd.c"
 207  0029              #pragma debug scope 1 1
 207  0029              public _Show_OFF
 207  0029              #pragma debug scope 11 1
 211  0029              #line 211 "f:\work\血糖仪\a_bh45f67-旧版\4g\美国客户\make_lib\v1.0.01（5000套出货)-02\g-777g-usa-bg95eseye-2022-2-20\lcd.c"
 211  0000              _Show_OFF .section 'code'
 211  0000              _Show_OFF proc
 212  0000              #line 212 "f:\work\血糖仪\a_bh45f67-旧版\4g\美国客户\make_lib\v1.0.01（5000套出货)-02\g-777g-usa-bg95eseye-2022-2-20\lcd.c"
 212  0000  0F10        	mov a,16
 212  0001  0080     E  	mov _memset_2[4],a
 212  0002  1F00     E  	clr _memset_2[5]
 212  0003  1F00     E  	clr _memset_2[2]
 212  0004  1F00     E  	clr _memset_2[3]
 212  0005  0F9E        	mov a,low offset _disp_buff
 212  0006  0080     E  	mov _memset_2[0],a
 212  0007  0F03        	mov a,high offset _disp_buff
文件：lcd.c        编译器版本 HGASM 0202 页次16

 212  0008  0080     E  	mov _memset_2[1],a
 212  0009              	fcall _memset
 213  0010              #line 213 "f:\work\血糖仪\a_bh45f67-旧版\4g\美国客户\make_lib\v1.0.01（5000套出货)-02\g-777g-usa-bg95eseye-2022-2-20\lcd.c"
 213  0010  0F9E        	mov a,low offset _disp_buff
 213  0011  0083        	mov mp,a
 213  0012  0F03        	mov a,high offset _disp_buff
 213  0013  0081        	mov sbp,a
 213  0014  0701        	mov a,sbp
 213  0015  0D00     R  	or a,bank _Show_OFF
 213  0016  0084        	mov bp,a
 213  0017  0F50        	mov a,80
 213  0018  0082        	mov ir,a
 214  0019              #line 214 "f:\work\血糖仪\a_bh45f67-旧版\4g\美国客户\make_lib\v1.0.01（5000套出货)-02\g-777g-usa-bg95eseye-2022-2-20\lcd.c"
 214  0019  1483        	inc mp
 214  001A  3D0A        	sz z
 214  001B  1481        	inc sbp
 214  001C  0701        	mov a,sbp
 214  001D  0D00     R  	or a,bank _Show_OFF
 214  001E  0084        	mov bp,a
 214  001F  0F7F        	mov a,127
 214  0020  0082        	mov ir,a
 215  0021              #line 215 "f:\work\血糖仪\a_bh45f67-旧版\4g\美国客户\make_lib\v1.0.01（5000套出货)-02\g-777g-usa-bg95eseye-2022-2-20\lcd.c"
 215  0021  1483        	inc mp
 215  0022  3D0A        	sz z
 215  0023  1481        	inc sbp
 215  0024  0701        	mov a,sbp
 215  0025  0D00     R  	or a,bank _Show_OFF
 215  0026  0084        	mov bp,a
 215  0027  0F68        	mov a,104
 215  0028  0082        	mov ir,a
 216  0029              #line 216 "f:\work\血糖仪\a_bh45f67-旧版\4g\美国客户\make_lib\v1.0.01（5000套出货)-02\g-777g-usa-bg95eseye-2022-2-20\lcd.c"
 216  0029  1483        	inc mp
 216  002A  3D0A        	sz z
 216  002B  1481        	inc sbp
 216  002C  0701        	mov a,sbp
 216  002D  0D00     R  	or a,bank _Show_OFF
 216  002E  0084        	mov bp,a
 216  002F  0F0E        	mov a,14
 216  0030  0082        	mov ir,a
 217  0031              #line 217 "f:\work\血糖仪\a_bh45f67-旧版\4g\美国客户\make_lib\v1.0.01（5000套出货)-02\g-777g-usa-bg95eseye-2022-2-20\lcd.c"
 217  0031              	fcall _show_battery
 218  0038              #line 218 "f:\work\血糖仪\a_bh45f67-旧版\4g\美国客户\make_lib\v1.0.01（5000套出货)-02\g-777g-usa-bg95eseye-2022-2-20\lcd.c"
 218  0038              	fcall _show_display
 218  003F  0003        	ret
 218  0040              _Show_OFF endp
 218  0040              #line 218 "f:\work\血糖仪\a_bh45f67-旧版\4g\美国客户\make_lib\v1.0.01（5000套出货)-02\g-777g-usa-bg95eseye-2022-2-20\lcd.c"
 218  0040              #pragma debug scope 1 1
 218  0040              public _Show_VER
 218  0040              #pragma debug scope 12 1
 222  0040              #line 222 "f:\work\血糖仪\a_bh45f67-旧版\4g\美国客户\make_lib\v1.0.01（5000套出货)-02\g-777g-usa-bg95eseye-2022-2-20\lcd.c"
 222  0000              _Show_VER .section 'code'
 222  0000              _Show_VER proc
 271  0000              #line 271 "f:\work\血糖仪\a_bh45f67-旧版\4g\美国客户\make_lib\v1.0.01（5000套出货)-02\g-777g-usa-bg95eseye-2022-2-20\lcd.c"
 271  0000  0F81        	mov a,low (offset _LcdRam+1)
 271  0001  0083        	mov mp,a
 271  0002  0F01        	mov a,high (offset _LcdRam+1)
 271  0003  0081        	mov sbp,a
 271  0004  0701        	mov a,sbp
 271  0005  0D00     R  	or a,bank _Show_VER
 271  0006  0084        	mov bp,a
文件：lcd.c        编译器版本 HGASM 0202 页次17

 271  0007  0F05        	mov a,5
 271  0008  0082        	mov ir,a
 272  0009              #line 272 "f:\work\血糖仪\a_bh45f67-旧版\4g\美国客户\make_lib\v1.0.01（5000套出货)-02\g-777g-usa-bg95eseye-2022-2-20\lcd.c"
 272  0009  1483        	inc mp
 272  000A  3D0A        	sz z
 272  000B  1481        	inc sbp
 272  000C  0701        	mov a,sbp
 272  000D  0D00     R  	or a,bank _Show_VER
 272  000E  0084        	mov bp,a
 272  000F  0F07        	mov a,7
 272  0010  0082        	mov ir,a
 276  0011              #line 276 "f:\work\血糖仪\a_bh45f67-旧版\4g\美国客户\make_lib\v1.0.01（5000套出货)-02\g-777g-usa-bg95eseye-2022-2-20\lcd.c"
 276  0011  1483        	inc mp
 276  0012  3D0A        	sz z
 276  0013  1481        	inc sbp
 276  0014  0701        	mov a,sbp
 276  0015  0D00     R  	or a,bank _Show_VER
 276  0016  0084        	mov bp,a
 276  0017  0F00        	mov a,0
 276  0018  0082        	mov ir,a
 277  0019              #line 277 "f:\work\血糖仪\a_bh45f67-旧版\4g\美国客户\make_lib\v1.0.01（5000套出货)-02\g-777g-usa-bg95eseye-2022-2-20\lcd.c"
 277  0019  1483        	inc mp
 277  001A  3D0A        	sz z
 277  001B  1481        	inc sbp
 277  001C  0701        	mov a,sbp
 277  001D  0D00     R  	or a,bank _Show_VER
 277  001E  0084        	mov bp,a
 277  001F  0F06        	mov a,6
 277  0020  0082        	mov ir,a
 282  0021              #line 282 "f:\work\血糖仪\a_bh45f67-旧版\4g\美国客户\make_lib\v1.0.01（5000套出货)-02\g-777g-usa-bg95eseye-2022-2-20\lcd.c"
 282  0021  1483        	inc mp
 282  0022  3D0A        	sz z
 282  0023  1481        	inc sbp
 283  0024              #line 283 "f:\work\血糖仪\a_bh45f67-旧版\4g\美国客户\make_lib\v1.0.01（5000套出货)-02\g-777g-usa-bg95eseye-2022-2-20\lcd.c"
 283  0024  0701        	mov a,sbp
 283  0025  0D00     R  	or a,bank _Show_VER
 283  0026  0084        	mov bp,a
 283  0027  0F07        	mov a,7
 283  0028  0082        	mov ir,a
 284  0029              #line 284 "f:\work\血糖仪\a_bh45f67-旧版\4g\美国客户\make_lib\v1.0.01（5000套出货)-02\g-777g-usa-bg95eseye-2022-2-20\lcd.c"
 284  0029  1483        	inc mp
 284  002A  3D0A        	sz z
 284  002B  1481        	inc sbp
 284  002C  0701        	mov a,sbp
 284  002D  0D00     R  	or a,bank _Show_VER
 284  002E  0084        	mov bp,a
 284  002F  0F0A        	mov a,10
 284  0030  0582        	orm a,ir
 285  0031              #line 285 "f:\work\血糖仪\a_bh45f67-旧版\4g\美国客户\make_lib\v1.0.01（5000套出货)-02\g-777g-usa-bg95eseye-2022-2-20\lcd.c"
 285  0031  1483        	inc mp
 285  0032  3D0A        	sz z
 285  0033  1481        	inc sbp
 285  0034  0701        	mov a,sbp
 285  0035  0D00     R  	or a,bank _Show_VER
 285  0036  0084        	mov bp,a
 285  0037  0F07        	mov a,7
 285  0038  0582        	orm a,ir
 285  0039  0003        	ret
 285  003A              _Show_VER endp
 285  003A              #line 285 "f:\work\血糖仪\a_bh45f67-旧版\4g\美国客户\make_lib\v1.0.01（5000套出货)-02\g-777g-usa-bg95eseye-2022-2-20\lcd.c"
文件：lcd.c        编译器版本 HGASM 0202 页次18

 285  003A              #pragma debug scope 1 1
 285  003A              public _Show_Et
 285  003A              #pragma debug scope 13 1
 301  003A              #line 301 "f:\work\血糖仪\a_bh45f67-旧版\4g\美国客户\make_lib\v1.0.01（5000套出货)-02\g-777g-usa-bg95eseye-2022-2-20\lcd.c"
 301  0000              _Show_Et .section 'code'
 301  0000              _Show_Et proc
 302  0000              #line 302 "f:\work\血糖仪\a_bh45f67-旧版\4g\美国客户\make_lib\v1.0.01（5000套出货)-02\g-777g-usa-bg95eseye-2022-2-20\lcd.c"
 302  0000  0F9E        	mov a,low offset _disp_buff
 302  0001  0083        	mov mp,a
 302  0002  0F03        	mov a,high offset _disp_buff
 302  0003  0081        	mov sbp,a
 302  0004  0701        	mov a,sbp
 302  0005  0D00     R  	or a,bank _Show_Et
 302  0006  0084        	mov bp,a
 302  0007  0F70        	mov a,112
 302  0008  0082        	mov ir,a
 303  0009              #line 303 "f:\work\血糖仪\a_bh45f67-旧版\4g\美国客户\make_lib\v1.0.01（5000套出货)-02\g-777g-usa-bg95eseye-2022-2-20\lcd.c"
 303  0009  1483        	inc mp
 303  000A  3D0A        	sz z
 303  000B  1481        	inc sbp
 303  000C  0701        	mov a,sbp
 303  000D  0D00     R  	or a,bank _Show_Et
 303  000E  0084        	mov bp,a
 303  000F  0F29        	mov a,41
 303  0010  0082        	mov ir,a
 304  0011              #line 304 "f:\work\血糖仪\a_bh45f67-旧版\4g\美国客户\make_lib\v1.0.01（5000套出货)-02\g-777g-usa-bg95eseye-2022-2-20\lcd.c"
 304  0011  1483        	inc mp
 304  0012  3D0A        	sz z
 304  0013  1481        	inc sbp
 304  0014  0701        	mov a,sbp
 304  0015  0D00     R  	or a,bank _Show_Et
 304  0016  0084        	mov bp,a
 304  0017  0FE0        	mov a,224
 304  0018  0082        	mov ir,a
 305  0019              #line 305 "f:\work\血糖仪\a_bh45f67-旧版\4g\美国客户\make_lib\v1.0.01（5000套出货)-02\g-777g-usa-bg95eseye-2022-2-20\lcd.c"
 305  0019  1483        	inc mp
 305  001A  3D0A        	sz z
 305  001B  1481        	inc sbp
 305  001C  0701        	mov a,sbp
 305  001D  0D00     R  	or a,bank _Show_Et
 305  001E  0084        	mov bp,a
 305  001F  0F17        	mov a,23
 305  0020  0082        	mov ir,a
 306  0021              #line 306 "f:\work\血糖仪\a_bh45f67-旧版\4g\美国客户\make_lib\v1.0.01（5000套出货)-02\g-777g-usa-bg95eseye-2022-2-20\lcd.c"
 306  0021              	fcall _show_display
 306  0028  0003        	ret
 306  0029              _Show_Et endp
 306  0029              #line 306 "f:\work\血糖仪\a_bh45f67-旧版\4g\美国客户\make_lib\v1.0.01（5000套出货)-02\g-777g-usa-bg95eseye-2022-2-20\lcd.c"
 306  0029              #pragma debug scope 1 1
 306  0029              public _Show_EF
 306  0029              #pragma debug scope 14 1
 309  0029              #line 309 "f:\work\血糖仪\a_bh45f67-旧版\4g\美国客户\make_lib\v1.0.01（5000套出货)-02\g-777g-usa-bg95eseye-2022-2-20\lcd.c"
 309  0000              _Show_EF .section 'code'
 309  0000              _Show_EF proc
 310  0000              #line 310 "f:\work\血糖仪\a_bh45f67-旧版\4g\美国客户\make_lib\v1.0.01（5000套出货)-02\g-777g-usa-bg95eseye-2022-2-20\lcd.c"
 310  0000  0F9E        	mov a,low offset _disp_buff
 310  0001  0083        	mov mp,a
 310  0002  0F03        	mov a,high offset _disp_buff
 310  0003  0081        	mov sbp,a
 310  0004  0701        	mov a,sbp
文件：lcd.c        编译器版本 HGASM 0202 页次19

 310  0005  0D00     R  	or a,bank _Show_EF
 310  0006  0084        	mov bp,a
 310  0007  0F70        	mov a,112
 310  0008  0082        	mov ir,a
 311  0009              #line 311 "f:\work\血糖仪\a_bh45f67-旧版\4g\美国客户\make_lib\v1.0.01（5000套出货)-02\g-777g-usa-bg95eseye-2022-2-20\lcd.c"
 311  0009  1483        	inc mp
 311  000A  3D0A        	sz z
 311  000B  1481        	inc sbp
 311  000C  0701        	mov a,sbp
 311  000D  0D00     R  	or a,bank _Show_EF
 311  000E  0084        	mov bp,a
 311  000F  0F29        	mov a,41
 311  0010  0082        	mov ir,a
 312  0011              #line 312 "f:\work\血糖仪\a_bh45f67-旧版\4g\美国客户\make_lib\v1.0.01（5000套出货)-02\g-777g-usa-bg95eseye-2022-2-20\lcd.c"
 312  0011  1483        	inc mp
 312  0012  3D0A        	sz z
 312  0013  1481        	inc sbp
 312  0014  0701        	mov a,sbp
 312  0015  0D00     R  	or a,bank _Show_EF
 312  0016  0084        	mov bp,a
 312  0017  0F60        	mov a,96
 312  0018  0082        	mov ir,a
 313  0019              #line 313 "f:\work\血糖仪\a_bh45f67-旧版\4g\美国客户\make_lib\v1.0.01（5000套出货)-02\g-777g-usa-bg95eseye-2022-2-20\lcd.c"
 313  0019  1483        	inc mp
 313  001A  3D0A        	sz z
 313  001B  1481        	inc sbp
 313  001C  0701        	mov a,sbp
 313  001D  0D00     R  	or a,bank _Show_EF
 313  001E  0084        	mov bp,a
 313  001F  0F8E        	mov a,142
 313  0020  0082        	mov ir,a
 314  0021              #line 314 "f:\work\血糖仪\a_bh45f67-旧版\4g\美国客户\make_lib\v1.0.01（5000套出货)-02\g-777g-usa-bg95eseye-2022-2-20\lcd.c"
 314  0021              	fcall _show_display
 314  0028  0003        	ret
 314  0029              _Show_EF endp
 314  0029              #line 314 "f:\work\血糖仪\a_bh45f67-旧版\4g\美国客户\make_lib\v1.0.01（5000套出货)-02\g-777g-usa-bg95eseye-2022-2-20\lcd.c"
 314  0029              #pragma debug scope 1 1
 314  0029              public _Show_EE
 314  0029              #pragma debug scope 15 1
 317  0029              #line 317 "f:\work\血糖仪\a_bh45f67-旧版\4g\美国客户\make_lib\v1.0.01（5000套出货)-02\g-777g-usa-bg95eseye-2022-2-20\lcd.c"
 317  0000              _Show_EE .section 'code'
 317  0000              _Show_EE proc
 318  0000              #line 318 "f:\work\血糖仪\a_bh45f67-旧版\4g\美国客户\make_lib\v1.0.01（5000套出货)-02\g-777g-usa-bg95eseye-2022-2-20\lcd.c"
 318  0000  0F9E        	mov a,low offset _disp_buff
 318  0001  0083        	mov mp,a
 318  0002  0F03        	mov a,high offset _disp_buff
 318  0003  0081        	mov sbp,a
 318  0004  0701        	mov a,sbp
 318  0005  0D00     R  	or a,bank _Show_EE
 318  0006  0084        	mov bp,a
 318  0007  0F70        	mov a,112
 318  0008  0082        	mov ir,a
 319  0009              #line 319 "f:\work\血糖仪\a_bh45f67-旧版\4g\美国客户\make_lib\v1.0.01（5000套出货)-02\g-777g-usa-bg95eseye-2022-2-20\lcd.c"
 319  0009  1483        	inc mp
 319  000A  3D0A        	sz z
 319  000B  1481        	inc sbp
 319  000C  0701        	mov a,sbp
 319  000D  0D00     R  	or a,bank _Show_EE
 319  000E  0084        	mov bp,a
 319  000F  0F29        	mov a,41
文件：lcd.c        编译器版本 HGASM 0202 页次20

 319  0010  0082        	mov ir,a
 320  0011              #line 320 "f:\work\血糖仪\a_bh45f67-旧版\4g\美国客户\make_lib\v1.0.01（5000套出货)-02\g-777g-usa-bg95eseye-2022-2-20\lcd.c"
 320  0011  1483        	inc mp
 320  0012  3D0A        	sz z
 320  0013  1481        	inc sbp
 320  0014  0701        	mov a,sbp
 320  0015  0D00     R  	or a,bank _Show_EE
 320  0016  0084        	mov bp,a
 320  0017  0F60        	mov a,96
 320  0018  0082        	mov ir,a
 321  0019              #line 321 "f:\work\血糖仪\a_bh45f67-旧版\4g\美国客户\make_lib\v1.0.01（5000套出货)-02\g-777g-usa-bg95eseye-2022-2-20\lcd.c"
 321  0019  1483        	inc mp
 321  001A  3D0A        	sz z
 321  001B  1481        	inc sbp
 321  001C  0701        	mov a,sbp
 321  001D  0D00     R  	or a,bank _Show_EE
 321  001E  0084        	mov bp,a
 321  001F  0F1A        	mov a,26
 321  0020  0082        	mov ir,a
 322  0021              #line 322 "f:\work\血糖仪\a_bh45f67-旧版\4g\美国客户\make_lib\v1.0.01（5000套出货)-02\g-777g-usa-bg95eseye-2022-2-20\lcd.c"
 322  0021              	fcall _show_display
 322  0028  0003        	ret
 322  0029              _Show_EE endp
 322  0029              #line 322 "f:\work\血糖仪\a_bh45f67-旧版\4g\美国客户\make_lib\v1.0.01（5000套出货)-02\g-777g-usa-bg95eseye-2022-2-20\lcd.c"
 322  0029              #pragma debug scope 1 1
 322  0029              public _Show_000
 322  0029              #pragma debug scope 16 1
 325  0029              #line 325 "f:\work\血糖仪\a_bh45f67-旧版\4g\美国客户\make_lib\v1.0.01（5000套出货)-02\g-777g-usa-bg95eseye-2022-2-20\lcd.c"
 325  0000              _Show_000 .section 'code'
 325  0000              _Show_000 proc
 326  0000              #line 326 "f:\work\血糖仪\a_bh45f67-旧版\4g\美国客户\make_lib\v1.0.01（5000套出货)-02\g-777g-usa-bg95eseye-2022-2-20\lcd.c"
 326  0000  0F9E        	mov a,low offset _disp_buff
 326  0001  0083        	mov mp,a
 326  0002  0F03        	mov a,high offset _disp_buff
 326  0003  0081        	mov sbp,a
 326  0004  0701        	mov a,sbp
 326  0005  0D00     R  	or a,bank _Show_000
 326  0006  0084        	mov bp,a
 326  0007  0F20        	mov a,32
 326  0008  0082        	mov ir,a
 327  0009              #line 327 "f:\work\血糖仪\a_bh45f67-旧版\4g\美国客户\make_lib\v1.0.01（5000套出货)-02\g-777g-usa-bg95eseye-2022-2-20\lcd.c"
 327  0009  1483        	inc mp
 327  000A  3D0A        	sz z
 327  000B  1481        	inc sbp
 327  000C  0701        	mov a,sbp
 327  000D  0D00     R  	or a,bank _Show_000
 327  000E  0084        	mov bp,a
 327  000F  0F20        	mov a,32
 327  0010  0082        	mov ir,a
 328  0011              #line 328 "f:\work\血糖仪\a_bh45f67-旧版\4g\美国客户\make_lib\v1.0.01（5000套出货)-02\g-777g-usa-bg95eseye-2022-2-20\lcd.c"
 328  0011  1483        	inc mp
 328  0012  3D0A        	sz z
 328  0013  1481        	inc sbp
 328  0014  0701        	mov a,sbp
 328  0015  0D00     R  	or a,bank _Show_000
 328  0016  0084        	mov bp,a
 328  0017  0F00        	mov a,0
 328  0018  0082        	mov ir,a
 329  0019              #line 329 "f:\work\血糖仪\a_bh45f67-旧版\4g\美国客户\make_lib\v1.0.01（5000套出货)-02\g-777g-usa-bg95eseye-2022-2-20\lcd.c"
 329  0019  1483        	inc mp
文件：lcd.c        编译器版本 HGASM 0202 页次21

 329  001A  3D0A        	sz z
 329  001B  1481        	inc sbp
 329  001C  0701        	mov a,sbp
 329  001D  0D00     R  	or a,bank _Show_000
 329  001E  0084        	mov bp,a
 329  001F  0F06        	mov a,6
 329  0020  0082        	mov ir,a
 330  0021              #line 330 "f:\work\血糖仪\a_bh45f67-旧版\4g\美国客户\make_lib\v1.0.01（5000套出货)-02\g-777g-usa-bg95eseye-2022-2-20\lcd.c"
 330  0021              	fcall _show_display
 330  0028  0003        	ret
 330  0029              _Show_000 endp
 330  0029              #line 330 "f:\work\血糖仪\a_bh45f67-旧版\4g\美国客户\make_lib\v1.0.01（5000套出货)-02\g-777g-usa-bg95eseye-2022-2-20\lcd.c"
 330  0029              #pragma debug scope 1 1
 330  0029              public _Show_CLOSE
 330  0029              #pragma debug scope 17 1
 333  0029              #line 333 "f:\work\血糖仪\a_bh45f67-旧版\4g\美国客户\make_lib\v1.0.01（5000套出货)-02\g-777g-usa-bg95eseye-2022-2-20\lcd.c"
 333  0000              _Show_CLOSE .section 'code'
 333  0000              _Show_CLOSE proc
 334  0000              #line 334 "f:\work\血糖仪\a_bh45f67-旧版\4g\美国客户\make_lib\v1.0.01（5000套出货)-02\g-777g-usa-bg95eseye-2022-2-20\lcd.c"
 334  0000  0F10        	mov a,16
 334  0001  0080     E  	mov _memset_2[4],a
 334  0002  1F00     E  	clr _memset_2[5]
 334  0003  1F00     E  	clr _memset_2[2]
 334  0004  1F00     E  	clr _memset_2[3]
 334  0005  0F9E        	mov a,low offset _disp_buff
 334  0006  0080     E  	mov _memset_2[0],a
 334  0007  0F03        	mov a,high offset _disp_buff
 334  0008  0080     E  	mov _memset_2[1],a
 334  0009              	fcall _memset
 335  0010              #line 335 "f:\work\血糖仪\a_bh45f67-旧版\4g\美国客户\make_lib\v1.0.01（5000套出货)-02\g-777g-usa-bg95eseye-2022-2-20\lcd.c"
 335  0010  0F9E        	mov a,low offset _disp_buff
 335  0011  0083        	mov mp,a
 335  0012  0F03        	mov a,high offset _disp_buff
 335  0013  0081        	mov sbp,a
 335  0014  0701        	mov a,sbp
 335  0015  0D00     R  	or a,bank _Show_CLOSE
 335  0016  0084        	mov bp,a
 335  0017  0F50        	mov a,80
 335  0018  0082        	mov ir,a
 336  0019              #line 336 "f:\work\血糖仪\a_bh45f67-旧版\4g\美国客户\make_lib\v1.0.01（5000套出货)-02\g-777g-usa-bg95eseye-2022-2-20\lcd.c"
 336  0019  1483        	inc mp
 336  001A  3D0A        	sz z
 336  001B  1481        	inc sbp
 336  001C  0701        	mov a,sbp
 336  001D  0D00     R  	or a,bank _Show_CLOSE
 336  001E  0084        	mov bp,a
 336  001F  0F59        	mov a,89
 336  0020  0082        	mov ir,a
 337  0021              #line 337 "f:\work\血糖仪\a_bh45f67-旧版\4g\美国客户\make_lib\v1.0.01（5000套出货)-02\g-777g-usa-bg95eseye-2022-2-20\lcd.c"
 337  0021  1483        	inc mp
 337  0022  3D0A        	sz z
 337  0023  1481        	inc sbp
 337  0024  0701        	mov a,sbp
 337  0025  0D00     R  	or a,bank _Show_CLOSE
 337  0026  0084        	mov bp,a
 337  0027  0FC1        	mov a,193
 337  0028  0082        	mov ir,a
 338  0029              #line 338 "f:\work\血糖仪\a_bh45f67-旧版\4g\美国客户\make_lib\v1.0.01（5000套出货)-02\g-777g-usa-bg95eseye-2022-2-20\lcd.c"
 338  0029  1483        	inc mp
 338  002A  3D0A        	sz z
文件：lcd.c        编译器版本 HGASM 0202 页次22

 338  002B  1481        	inc sbp
 338  002C  0701        	mov a,sbp
 338  002D  0D00     R  	or a,bank _Show_CLOSE
 338  002E  0084        	mov bp,a
 338  002F  0F3E        	mov a,62
 338  0030  0082        	mov ir,a
 339  0031              #line 339 "f:\work\血糖仪\a_bh45f67-旧版\4g\美国客户\make_lib\v1.0.01（5000套出货)-02\g-777g-usa-bg95eseye-2022-2-20\lcd.c"
 339  0031              	fcall _show_battery
 340  0038              #line 340 "f:\work\血糖仪\a_bh45f67-旧版\4g\美国客户\make_lib\v1.0.01（5000套出货)-02\g-777g-usa-bg95eseye-2022-2-20\lcd.c"
 340  0038              	fcall _show_display
 340  003F  0003        	ret
 340  0040              _Show_CLOSE endp
 340  0040              #line 340 "f:\work\血糖仪\a_bh45f67-旧版\4g\美国客户\make_lib\v1.0.01（5000套出货)-02\g-777g-usa-bg95eseye-2022-2-20\lcd.c"
 340  0040              #pragma debug scope 1 1
 340  0040              public _Show_OPEN
 340  0040              #pragma debug scope 18 1
 343  0040              #line 343 "f:\work\血糖仪\a_bh45f67-旧版\4g\美国客户\make_lib\v1.0.01（5000套出货)-02\g-777g-usa-bg95eseye-2022-2-20\lcd.c"
 343  0000              _Show_OPEN .section 'code'
 343  0000              _Show_OPEN proc
 344  0000              #line 344 "f:\work\血糖仪\a_bh45f67-旧版\4g\美国客户\make_lib\v1.0.01（5000套出货)-02\g-777g-usa-bg95eseye-2022-2-20\lcd.c"
 344  0000  0F10        	mov a,16
 344  0001  0080     E  	mov _memset_2[4],a
 344  0002  1F00     E  	clr _memset_2[5]
 344  0003  1F00     E  	clr _memset_2[2]
 344  0004  1F00     E  	clr _memset_2[3]
 344  0005  0F9E        	mov a,low offset _disp_buff
 344  0006  0080     E  	mov _memset_2[0],a
 344  0007  0F03        	mov a,high offset _disp_buff
 344  0008  0080     E  	mov _memset_2[1],a
 344  0009              	fcall _memset
 345  0010              #line 345 "f:\work\血糖仪\a_bh45f67-旧版\4g\美国客户\make_lib\v1.0.01（5000套出货)-02\g-777g-usa-bg95eseye-2022-2-20\lcd.c"
 345  0010  0F9E        	mov a,low offset _disp_buff
 345  0011  0083        	mov mp,a
 345  0012  0F03        	mov a,high offset _disp_buff
 345  0013  0081        	mov sbp,a
 345  0014  0701        	mov a,sbp
 345  0015  0D00     R  	or a,bank _Show_OPEN
 345  0016  0084        	mov bp,a
 345  0017  0F30        	mov a,48
 345  0018  0082        	mov ir,a
 346  0019              #line 346 "f:\work\血糖仪\a_bh45f67-旧版\4g\美国客户\make_lib\v1.0.01（5000套出货)-02\g-777g-usa-bg95eseye-2022-2-20\lcd.c"
 346  0019  1483        	inc mp
 346  001A  3D0A        	sz z
 346  001B  1481        	inc sbp
 346  001C  0701        	mov a,sbp
 346  001D  0D00     R  	or a,bank _Show_OPEN
 346  001E  0084        	mov bp,a
 346  001F  0F73        	mov a,115
 346  0020  0082        	mov ir,a
 347  0021              #line 347 "f:\work\血糖仪\a_bh45f67-旧版\4g\美国客户\make_lib\v1.0.01（5000套出货)-02\g-777g-usa-bg95eseye-2022-2-20\lcd.c"
 347  0021  1483        	inc mp
 347  0022  3D0A        	sz z
 347  0023  1481        	inc sbp
 347  0024  0701        	mov a,sbp
 347  0025  0D00     R  	or a,bank _Show_OPEN
 347  0026  0084        	mov bp,a
 347  0027  0F6C        	mov a,108
 347  0028  0082        	mov ir,a
 348  0029              #line 348 "f:\work\血糖仪\a_bh45f67-旧版\4g\美国客户\make_lib\v1.0.01（5000套出货)-02\g-777g-usa-bg95eseye-2022-2-20\lcd.c"
 348  0029  1483        	inc mp
文件：lcd.c        编译器版本 HGASM 0202 页次23

 348  002A  3D0A        	sz z
 348  002B  1481        	inc sbp
 348  002C  0701        	mov a,sbp
 348  002D  0D00     R  	or a,bank _Show_OPEN
 348  002E  0084        	mov bp,a
 348  002F  0F68        	mov a,104
 348  0030  0082        	mov ir,a
 349  0031              #line 349 "f:\work\血糖仪\a_bh45f67-旧版\4g\美国客户\make_lib\v1.0.01（5000套出货)-02\g-777g-usa-bg95eseye-2022-2-20\lcd.c"
 349  0031              	fcall _show_battery
 350  0038              #line 350 "f:\work\血糖仪\a_bh45f67-旧版\4g\美国客户\make_lib\v1.0.01（5000套出货)-02\g-777g-usa-bg95eseye-2022-2-20\lcd.c"
 350  0038              	fcall _show_display
 350  003F  0003        	ret
 350  0040              _Show_OPEN endp
 350  0040              #line 350 "f:\work\血糖仪\a_bh45f67-旧版\4g\美国客户\make_lib\v1.0.01（5000套出货)-02\g-777g-usa-bg95eseye-2022-2-20\lcd.c"
 350  0040              #pragma debug scope 1 1
 350  0040              public _Show_END
 350  0040              #pragma debug scope 19 1
 353  0040              #line 353 "f:\work\血糖仪\a_bh45f67-旧版\4g\美国客户\make_lib\v1.0.01（5000套出货)-02\g-777g-usa-bg95eseye-2022-2-20\lcd.c"
 353  0000              _Show_END .section 'code'
 353  0000              _Show_END proc
 354  0000              #line 354 "f:\work\血糖仪\a_bh45f67-旧版\4g\美国客户\make_lib\v1.0.01（5000套出货)-02\g-777g-usa-bg95eseye-2022-2-20\lcd.c"
 354  0000  0F9E        	mov a,low offset _disp_buff
 354  0001  0083        	mov mp,a
 354  0002  0F03        	mov a,high offset _disp_buff
 354  0003  0081        	mov sbp,a
 354  0004  0701        	mov a,sbp
 354  0005  0D00     R  	or a,bank _Show_END
 354  0006  0084        	mov bp,a
 354  0007  0F70        	mov a,112
 354  0008  0082        	mov ir,a
 355  0009              #line 355 "f:\work\血糖仪\a_bh45f67-旧版\4g\美国客户\make_lib\v1.0.01（5000套出货)-02\g-777g-usa-bg95eseye-2022-2-20\lcd.c"
 355  0009  1483        	inc mp
 355  000A  3D0A        	sz z
 355  000B  1481        	inc sbp
 355  000C  0701        	mov a,sbp
 355  000D  0D00     R  	or a,bank _Show_END
 355  000E  0084        	mov bp,a
 355  000F  0F59        	mov a,89
 355  0010  0082        	mov ir,a
 356  0011              #line 356 "f:\work\血糖仪\a_bh45f67-旧版\4g\美国客户\make_lib\v1.0.01（5000套出货)-02\g-777g-usa-bg95eseye-2022-2-20\lcd.c"
 356  0011  1483        	inc mp
 356  0012  3D0A        	sz z
 356  0013  1481        	inc sbp
 356  0014  0701        	mov a,sbp
 356  0015  0D00     R  	or a,bank _Show_END
 356  0016  0084        	mov bp,a
 356  0017  0F2E        	mov a,46
 356  0018  0082        	mov ir,a
 357  0019              #line 357 "f:\work\血糖仪\a_bh45f67-旧版\4g\美国客户\make_lib\v1.0.01（5000套出货)-02\g-777g-usa-bg95eseye-2022-2-20\lcd.c"
 357  0019  1483        	inc mp
 357  001A  3D0A        	sz z
 357  001B  1481        	inc sbp
 357  001C  0701        	mov a,sbp
 357  001D  0D00     R  	or a,bank _Show_END
 357  001E  0084        	mov bp,a
 357  001F  0FF2        	mov a,242
 357  0020  0082        	mov ir,a
 358  0021              #line 358 "f:\work\血糖仪\a_bh45f67-旧版\4g\美国客户\make_lib\v1.0.01（5000套出货)-02\g-777g-usa-bg95eseye-2022-2-20\lcd.c"
 358  0021              	fcall _show_display
 358  0028  0003        	ret
文件：lcd.c        编译器版本 HGASM 0202 页次24

 358  0029              _Show_END endp
 358  0029              #line 358 "f:\work\血糖仪\a_bh45f67-旧版\4g\美国客户\make_lib\v1.0.01（5000套出货)-02\g-777g-usa-bg95eseye-2022-2-20\lcd.c"
 358  0029              #pragma debug scope 1 1
 358  0029              public _Show_PC
 358  0029              #pragma debug scope 20 1
 361  0029              #line 361 "f:\work\血糖仪\a_bh45f67-旧版\4g\美国客户\make_lib\v1.0.01（5000套出货)-02\g-777g-usa-bg95eseye-2022-2-20\lcd.c"
 361  0000              _Show_PC .section 'code'
 361  0000              _Show_PC proc
 362  0000              #line 362 "f:\work\血糖仪\a_bh45f67-旧版\4g\美国客户\make_lib\v1.0.01（5000套出货)-02\g-777g-usa-bg95eseye-2022-2-20\lcd.c"
 362  0000  0F10        	mov a,16
 362  0001  0080     E  	mov _memset_2[4],a
 362  0002  1F00     E  	clr _memset_2[5]
 362  0003  1F00     E  	clr _memset_2[2]
 362  0004  1F00     E  	clr _memset_2[3]
 362  0005  0F9E        	mov a,low offset _disp_buff
 362  0006  0080     E  	mov _memset_2[0],a
 362  0007  0F03        	mov a,high offset _disp_buff
 362  0008  0080     E  	mov _memset_2[1],a
 362  0009              	fcall _memset
 363  0010              #line 363 "f:\work\血糖仪\a_bh45f67-旧版\4g\美国客户\make_lib\v1.0.01（5000套出货)-02\g-777g-usa-bg95eseye-2022-2-20\lcd.c"
 363  0010  0F9E        	mov a,low offset _disp_buff
 363  0011  0083        	mov mp,a
 363  0012  0F03        	mov a,high offset _disp_buff
 363  0013  0081        	mov sbp,a
 363  0014  0701        	mov a,sbp
 363  0015  0D00     R  	or a,bank _Show_PC
 363  0016  0084        	mov bp,a
 363  0017  0F70        	mov a,112
 363  0018  0082        	mov ir,a
 364  0019              #line 364 "f:\work\血糖仪\a_bh45f67-旧版\4g\美国客户\make_lib\v1.0.01（5000套出货)-02\g-777g-usa-bg95eseye-2022-2-20\lcd.c"
 364  0019  1483        	inc mp
 364  001A  3D0A        	sz z
 364  001B  1481        	inc sbp
 364  001C  0701        	mov a,sbp
 364  001D  0D00     R  	or a,bank _Show_PC
 364  001E  0084        	mov bp,a
 364  001F  0F5C        	mov a,92
 364  0020  0082        	mov ir,a
 365  0021              #line 365 "f:\work\血糖仪\a_bh45f67-旧版\4g\美国客户\make_lib\v1.0.01（5000套出货)-02\g-777g-usa-bg95eseye-2022-2-20\lcd.c"
 365  0021  1483        	inc mp
 365  0022  3D0A        	sz z
 365  0023  1481        	inc sbp
 365  0024  0701        	mov a,sbp
 365  0025  0D00     R  	or a,bank _Show_PC
 365  0026  0084        	mov bp,a
 365  0027  0F09        	mov a,9
 365  0028  0082        	mov ir,a
 366  0029              #line 366 "f:\work\血糖仪\a_bh45f67-旧版\4g\美国客户\make_lib\v1.0.01（5000套出货)-02\g-777g-usa-bg95eseye-2022-2-20\lcd.c"
 366  0029              	fcall _show_display
 366  0030  0003        	ret
 366  0031              _Show_PC endp
 366  0031              #line 366 "f:\work\血糖仪\a_bh45f67-旧版\4g\美国客户\make_lib\v1.0.01（5000套出货)-02\g-777g-usa-bg95eseye-2022-2-20\lcd.c"
 366  0031              #pragma debug scope 1 1
 366  0031              public _Show_usb
 366  0031              #pragma debug scope 21 1
 369  0031              #line 369 "f:\work\血糖仪\a_bh45f67-旧版\4g\美国客户\make_lib\v1.0.01（5000套出货)-02\g-777g-usa-bg95eseye-2022-2-20\lcd.c"
 369  0000              _Show_usb .section 'code'
 369  0000              _Show_usb proc
 370  0000              #line 370 "f:\work\血糖仪\a_bh45f67-旧版\4g\美国客户\make_lib\v1.0.01（5000套出货)-02\g-777g-usa-bg95eseye-2022-2-20\lcd.c"
 370  0000  0F10        	mov a,16
文件：lcd.c        编译器版本 HGASM 0202 页次25

 370  0001  0080     E  	mov _memset_2[4],a
 370  0002  1F00     E  	clr _memset_2[5]
 370  0003  1F00     E  	clr _memset_2[2]
 370  0004  1F00     E  	clr _memset_2[3]
 370  0005  0F9E        	mov a,low offset _disp_buff
 370  0006  0080     E  	mov _memset_2[0],a
 370  0007  0F03        	mov a,high offset _disp_buff
 370  0008  0080     E  	mov _memset_2[1],a
 370  0009              	fcall _memset
 371  0010              #line 371 "f:\work\血糖仪\a_bh45f67-旧版\4g\美国客户\make_lib\v1.0.01（5000套出货)-02\g-777g-usa-bg95eseye-2022-2-20\lcd.c"
 371  0010  0F9E        	mov a,low offset _disp_buff
 371  0011  0083        	mov mp,a
 371  0012  0F03        	mov a,high offset _disp_buff
 371  0013  0081        	mov sbp,a
 371  0014  0701        	mov a,sbp
 371  0015  0D00     R  	or a,bank _Show_usb
 371  0016  0084        	mov bp,a
 371  0017  0F50        	mov a,80
 371  0018  0082        	mov ir,a
 372  0019              #line 372 "f:\work\血糖仪\a_bh45f67-旧版\4g\美国客户\make_lib\v1.0.01（5000套出货)-02\g-777g-usa-bg95eseye-2022-2-20\lcd.c"
 372  0019  1483        	inc mp
 372  001A  3D0A        	sz z
 372  001B  1481        	inc sbp
 372  001C  0701        	mov a,sbp
 372  001D  0D00     R  	or a,bank _Show_usb
 372  001E  0084        	mov bp,a
 372  001F  0F67        	mov a,103
 372  0020  0082        	mov ir,a
 373  0021              #line 373 "f:\work\血糖仪\a_bh45f67-旧版\4g\美国客户\make_lib\v1.0.01（5000套出货)-02\g-777g-usa-bg95eseye-2022-2-20\lcd.c"
 373  0021  1483        	inc mp
 373  0022  3D0A        	sz z
 373  0023  1481        	inc sbp
 373  0024  0701        	mov a,sbp
 373  0025  0D00     R  	or a,bank _Show_usb
 373  0026  0084        	mov bp,a
 373  0027  0F6B        	mov a,107
 373  0028  0082        	mov ir,a
 374  0029              #line 374 "f:\work\血糖仪\a_bh45f67-旧版\4g\美国客户\make_lib\v1.0.01（5000套出货)-02\g-777g-usa-bg95eseye-2022-2-20\lcd.c"
 374  0029  1483        	inc mp
 374  002A  3D0A        	sz z
 374  002B  1481        	inc sbp
 374  002C  0701        	mov a,sbp
 374  002D  0D00     R  	or a,bank _Show_usb
 374  002E  0084        	mov bp,a
 374  002F  0F32        	mov a,50
 374  0030  0082        	mov ir,a
 375  0031              #line 375 "f:\work\血糖仪\a_bh45f67-旧版\4g\美国客户\make_lib\v1.0.01（5000套出货)-02\g-777g-usa-bg95eseye-2022-2-20\lcd.c"
 375  0031              	fcall _show_display
 375  0038  0003        	ret
 375  0039              _Show_usb endp
 375  0039              #line 375 "f:\work\血糖仪\a_bh45f67-旧版\4g\美国客户\make_lib\v1.0.01（5000套出货)-02\g-777g-usa-bg95eseye-2022-2-20\lcd.c"
 375  0039              #pragma debug scope 1 1
 375  0039              _Blood_glucose equ [963]
 375  0039              _Temperature_coefficient equ [1014]
 375  0039              _Temperature_CTL_coefficient equ [1015]
 375  0039              public _transformation
 375  0039              #pragma debug scope 22 1
 379  0039              #line 379 "f:\work\血糖仪\a_bh45f67-旧版\4g\美国客户\make_lib\v1.0.01（5000套出货)-02\g-777g-usa-bg95eseye-2022-2-20\lcd.c"
 379  0000              _transformation .section 'code'
 379  0000              _transformation proc
文件：lcd.c        编译器版本 HGASM 0202 页次26

 379  0000  0004[           local _transformation_2 db 4 dup(?)	; 0,4
            00
            ]
 381  0004              #line 381 "f:\work\血糖仪\a_bh45f67-旧版\4g\美国客户\make_lib\v1.0.01（5000套出货)-02\g-777g-usa-bg95eseye-2022-2-20\lcd.c"
 381  0000  0F85        	mov a,low (offset _SystemFlags+5)
 381  0001  0083        	mov mp,a
 381  0002  0F03        	mov a,high (offset _SystemFlags+5)
 381  0003  0081        	mov sbp,a
 381  0004  0701        	mov a,sbp
 381  0005  0D00     R  	or a,bank _transformation
 381  0006  0084        	mov bp,a
 381  0007  0702        	mov a,ir
 381  0008  0080     E  	mov ra,a
 381  0009  1080     E  	sz ra
 381  000A  2800     R  	jmp _L51
 383  000B              #line 383 "f:\work\血糖仪\a_bh45f67-旧版\4g\美国客户\make_lib\v1.0.01（5000套出货)-02\g-777g-usa-bg95eseye-2022-2-20\lcd.c"
 383  000B  0FC3        	mov a,low offset _Blood_glucose
 383  000C  0083        	mov mp,a
 383  000D  0F03        	mov a,high offset _Blood_glucose
 383  000E  0081        	mov sbp,a
 383  000F  0701        	mov a,sbp
 383  0010  0D00     R  	or a,bank _transformation
 383  0011  0084        	mov bp,a
 383  0012  0702        	mov a,ir
 383  0013  0080     E  	mov re,a
 383  0014  1483        	inc mp
 383  0015  0702        	mov a,ir
 383  0016  0080     E  	mov rf,a
 383  0017  1483        	inc mp
 383  0018  0702        	mov a,ir
 383  0019  0080     E  	mov rg,a
 383  001A  1483        	inc mp
 383  001B  0702        	mov a,ir
 383  001C  0080     E  	mov rh,a
 383  001D  0FF6        	mov a,low offset _Temperature_coefficient
 383  001E  0083        	mov mp,a
 383  001F  0F03        	mov a,high offset _Temperature_coefficient
 383  0020  0081        	mov sbp,a
 383  0021  0701        	mov a,sbp
 383  0022  0D00     R  	or a,bank _transformation
 383  0023  0084        	mov bp,a
 383  0024  0702        	mov a,ir
 383  0025  0080     E  	mov rd,a
 383  0026  0700     E  	mov a,re
 383  0027  0080     E  	mov _builtin_holtek_mulsi3_2[0],a
 383  0028  0700     E  	mov a,rf
 383  0029  0080     E  	mov _builtin_holtek_mulsi3_2[1],a
 383  002A  0700     E  	mov a,rg
 383  002B  0080     E  	mov _builtin_holtek_mulsi3_2[2],a
 383  002C  0700     E  	mov a,rh
 383  002D  0080     E  	mov _builtin_holtek_mulsi3_2[3],a
 383  002E  0F64        	mov a,100
 383  002F  0080     E  	mov _builtin_holtek_mulsi3_2[4],a
 383  0030  0F00        	mov a,0
 383  0031  0080     E  	mov _builtin_holtek_mulsi3_2[5],a
 383  0032  0F00        	mov a,0
 383  0033  0080     E  	mov _builtin_holtek_mulsi3_2[6],a
 383  0034  0F00        	mov a,0
 383  0035  0080     E  	mov _builtin_holtek_mulsi3_2[7],a
 383  0036              	fcall _builtin_holtek_mulsi3
文件：lcd.c        编译器版本 HGASM 0202 页次27

 383  003D  0700     E  	mov a,_builtin_holtek_mulsi3_2[8]
 383  003E  0080     R  	mov _transformation_2[0],a
 383  003F  0700     E  	mov a,_builtin_holtek_mulsi3_2[9]
 383  0040  0080     R  	mov _transformation_2[1],a
 383  0041  0700     E  	mov a,_builtin_holtek_mulsi3_2[10]
 383  0042  0080     R  	mov _transformation_2[2],a
 383  0043  0700     E  	mov a,_builtin_holtek_mulsi3_2[11]
 383  0044  0080     R  	mov _transformation_2[3],a
 383  0045  1F00     E  	clr re
 383  0046  1F00     E  	clr rf
 383  0047  1F00     E  	clr rg
 383  0048  0700     R  	mov a,_transformation_2[0]
 383  0049  0080     E  	mov _builtin_holtek_mulsi3_2[0],a
 383  004A  0700     R  	mov a,_transformation_2[1]
 383  004B  0080     E  	mov _builtin_holtek_mulsi3_2[1],a
 383  004C  0700     R  	mov a,_transformation_2[2]
 383  004D  0080     E  	mov _builtin_holtek_mulsi3_2[2],a
 383  004E  0700     R  	mov a,_transformation_2[3]
 383  004F  0080     E  	mov _builtin_holtek_mulsi3_2[3],a
 383  0050  0700     E  	mov a,rd
 383  0051  0080     E  	mov _builtin_holtek_mulsi3_2[4],a
 383  0052  0700     E  	mov a,re
 383  0053  0080     E  	mov _builtin_holtek_mulsi3_2[5],a
 383  0054  0700     E  	mov a,rf
 383  0055  0080     E  	mov _builtin_holtek_mulsi3_2[6],a
 383  0056  0700     E  	mov a,rg
 383  0057  0080     E  	mov _builtin_holtek_mulsi3_2[7],a
 383  0058              	fcall _builtin_holtek_mulsi3
 383  005F  0700     E  	mov a,_builtin_holtek_mulsi3_2[8]
 383  0060  0080     E  	mov rd,a
 383  0061  0700     E  	mov a,_builtin_holtek_mulsi3_2[9]
 383  0062  0080     E  	mov re,a
 383  0063  0700     E  	mov a,_builtin_holtek_mulsi3_2[10]
 383  0064  0080     E  	mov rf,a
 383  0065  0700     E  	mov a,_builtin_holtek_mulsi3_2[11]
 383  0066  0080     E  	mov rg,a
 383  0067  1F00     E  	clr _builtin_holtek_udivmodsi4_2[12]
 383  0068  0700     E  	mov a,rd  
 383  0069  0080     E  	mov _builtin_holtek_udivmodsi4_2[0],a  
 383  006A  0700     E  	mov a,re  
 383  006B  0080     E  	mov _builtin_holtek_udivmodsi4_2[1],a
 383  006C  0700     E  	mov a,rf  
 383  006D  0080     E  	mov _builtin_holtek_udivmodsi4_2[2],a  
 383  006E  0700     E  	mov a,rg  
 383  006F  0080     E  	mov _builtin_holtek_udivmodsi4_2[3],a
 383  0070  0F10        	mov a,16  
 383  0071  0080     E  	mov _builtin_holtek_udivmodsi4_2[4],a  
 383  0072  0F27        	mov a,39  
 383  0073  0080     E  	mov _builtin_holtek_udivmodsi4_2[5],a
 383  0074  1F00     E  	clr _builtin_holtek_udivmodsi4_2[6]
 383  0075  1F00     E  	clr _builtin_holtek_udivmodsi4_2[7]
 383  0076              	fcall _builtin_holtek_udivmodsi4
 383  007D  0700     E  	mov a,_builtin_holtek_udivmodsi4_2[0]  
 383  007E  0080     E  	mov rd,a  
 383  007F  0700     E  	mov a,_builtin_holtek_udivmodsi4_2[1]  
 383  0080  0080     E  	mov re,a
 383  0081  0700     E  	mov a,_builtin_holtek_udivmodsi4_2[2]  
 383  0082  0080     E  	mov rf,a  
 383  0083  0700     E  	mov a,_builtin_holtek_udivmodsi4_2[3]  
 383  0084  0080     E  	mov rg,a
文件：lcd.c        编译器版本 HGASM 0202 页次28

 384  0085              #line 384 "f:\work\血糖仪\a_bh45f67-旧版\4g\美国客户\make_lib\v1.0.01（5000套出货)-02\g-777g-usa-bg95eseye-2022-2-20\lcd.c"
 384  0085  0FC3        	mov a,low offset _Blood_glucose
 384  0086  0083        	mov mp,a
 384  0087  0F03        	mov a,high offset _Blood_glucose
 384  0088  0081        	mov sbp,a
 384  0089  0701        	mov a,sbp
 384  008A  0D00     R  	or a,bank _transformation
 384  008B  0084        	mov bp,a
 384  008C  0700     E  	mov a,rd
 384  008D  0082        	mov ir,a
 384  008E  1483        	inc mp
 384  008F  0700     E  	mov a,re
 384  0090  0082        	mov ir,a
 384  0091  1483        	inc mp
 384  0092  0700     E  	mov a,rf
 384  0093  0082        	mov ir,a
 384  0094  1483        	inc mp
 384  0095  0700     E  	mov a,rg
 384  0096  0082        	mov ir,a
 384  0097              _L51:
 386  0097              #line 386 "f:\work\血糖仪\a_bh45f67-旧版\4g\美国客户\make_lib\v1.0.01（5000套出货)-02\g-777g-usa-bg95eseye-2022-2-20\lcd.c"
 386  0097  0F85        	mov a,low (offset _SystemFlags+5)
 386  0098  0083        	mov mp,a
 386  0099  0F03        	mov a,high (offset _SystemFlags+5)
 386  009A  0081        	mov sbp,a
 386  009B  0701        	mov a,sbp
 386  009C  0D00     R  	or a,bank _transformation
 386  009D  0084        	mov bp,a
 386  009E  0702        	mov a,ir
 386  009F  0080     E  	mov ra,a
 386  00A0  1080     E  	sz ra
 386  00A1  2800     R  	jmp _LI2
 386  00A2  2800     R  	jmp _L50
 386  00A3              _LI2:
 388  00A3              #line 388 "f:\work\血糖仪\a_bh45f67-旧版\4g\美国客户\make_lib\v1.0.01（5000套出货)-02\g-777g-usa-bg95eseye-2022-2-20\lcd.c"
 388  00A3  0FC3        	mov a,low offset _Blood_glucose
 388  00A4  0083        	mov mp,a
 388  00A5  0F03        	mov a,high offset _Blood_glucose
 388  00A6  0081        	mov sbp,a
 388  00A7  0701        	mov a,sbp
 388  00A8  0D00     R  	or a,bank _transformation
 388  00A9  0084        	mov bp,a
 388  00AA  0702        	mov a,ir
 388  00AB  0080     E  	mov re,a
 388  00AC  1483        	inc mp
 388  00AD  0702        	mov a,ir
 388  00AE  0080     E  	mov rf,a
 388  00AF  1483        	inc mp
 388  00B0  0702        	mov a,ir
 388  00B1  0080     E  	mov rg,a
 388  00B2  1483        	inc mp
 388  00B3  0702        	mov a,ir
 388  00B4  0080     E  	mov rh,a
 388  00B5  0FF7        	mov a,low offset _Temperature_CTL_coefficient
 388  00B6  0083        	mov mp,a
 388  00B7  0F03        	mov a,high offset _Temperature_CTL_coefficient
 388  00B8  0081        	mov sbp,a
 388  00B9  0701        	mov a,sbp
 388  00BA  0D00     R  	or a,bank _transformation
 388  00BB  0084        	mov bp,a
文件：lcd.c        编译器版本 HGASM 0202 页次29

 388  00BC  0702        	mov a,ir
 388  00BD  0080     E  	mov rd,a
 388  00BE  0700     E  	mov a,re
 388  00BF  0080     E  	mov _builtin_holtek_mulsi3_2[0],a
 388  00C0  0700     E  	mov a,rf
 388  00C1  0080     E  	mov _builtin_holtek_mulsi3_2[1],a
 388  00C2  0700     E  	mov a,rg
 388  00C3  0080     E  	mov _builtin_holtek_mulsi3_2[2],a
 388  00C4  0700     E  	mov a,rh
 388  00C5  0080     E  	mov _builtin_holtek_mulsi3_2[3],a
 388  00C6  0F64        	mov a,100
 388  00C7  0080     E  	mov _builtin_holtek_mulsi3_2[4],a
 388  00C8  0F00        	mov a,0
 388  00C9  0080     E  	mov _builtin_holtek_mulsi3_2[5],a
 388  00CA  0F00        	mov a,0
 388  00CB  0080     E  	mov _builtin_holtek_mulsi3_2[6],a
 388  00CC  0F00        	mov a,0
 388  00CD  0080     E  	mov _builtin_holtek_mulsi3_2[7],a
 388  00CE              	fcall _builtin_holtek_mulsi3
 388  00D5  0700     E  	mov a,_builtin_holtek_mulsi3_2[8]
 388  00D6  0080     R  	mov _transformation_2[0],a
 388  00D7  0700     E  	mov a,_builtin_holtek_mulsi3_2[9]
 388  00D8  0080     R  	mov _transformation_2[1],a
 388  00D9  0700     E  	mov a,_builtin_holtek_mulsi3_2[10]
 388  00DA  0080     R  	mov _transformation_2[2],a
 388  00DB  0700     E  	mov a,_builtin_holtek_mulsi3_2[11]
 388  00DC  0080     R  	mov _transformation_2[3],a
 388  00DD  1F00     E  	clr re
 388  00DE  1F00     E  	clr rf
 388  00DF  1F00     E  	clr rg
 388  00E0  0700     R  	mov a,_transformation_2[0]
 388  00E1  0080     E  	mov _builtin_holtek_mulsi3_2[0],a
 388  00E2  0700     R  	mov a,_transformation_2[1]
 388  00E3  0080     E  	mov _builtin_holtek_mulsi3_2[1],a
 388  00E4  0700     R  	mov a,_transformation_2[2]
 388  00E5  0080     E  	mov _builtin_holtek_mulsi3_2[2],a
 388  00E6  0700     R  	mov a,_transformation_2[3]
 388  00E7  0080     E  	mov _builtin_holtek_mulsi3_2[3],a
 388  00E8  0700     E  	mov a,rd
 388  00E9  0080     E  	mov _builtin_holtek_mulsi3_2[4],a
 388  00EA  0700     E  	mov a,re
 388  00EB  0080     E  	mov _builtin_holtek_mulsi3_2[5],a
 388  00EC  0700     E  	mov a,rf
 388  00ED  0080     E  	mov _builtin_holtek_mulsi3_2[6],a
 388  00EE  0700     E  	mov a,rg
 388  00EF  0080     E  	mov _builtin_holtek_mulsi3_2[7],a
 388  00F0              	fcall _builtin_holtek_mulsi3
 388  00F7  0700     E  	mov a,_builtin_holtek_mulsi3_2[8]
 388  00F8  0080     E  	mov rd,a
 388  00F9  0700     E  	mov a,_builtin_holtek_mulsi3_2[9]
 388  00FA  0080     E  	mov re,a
 388  00FB  0700     E  	mov a,_builtin_holtek_mulsi3_2[10]
 388  00FC  0080     E  	mov rf,a
 388  00FD  0700     E  	mov a,_builtin_holtek_mulsi3_2[11]
 388  00FE  0080     E  	mov rg,a
 388  00FF  1F00     E  	clr _builtin_holtek_udivmodsi4_2[12]
 388  0100  0700     E  	mov a,rd  
 388  0101  0080     E  	mov _builtin_holtek_udivmodsi4_2[0],a  
 388  0102  0700     E  	mov a,re  
 388  0103  0080     E  	mov _builtin_holtek_udivmodsi4_2[1],a
文件：lcd.c        编译器版本 HGASM 0202 页次30

 388  0104  0700     E  	mov a,rf  
 388  0105  0080     E  	mov _builtin_holtek_udivmodsi4_2[2],a  
 388  0106  0700     E  	mov a,rg  
 388  0107  0080     E  	mov _builtin_holtek_udivmodsi4_2[3],a
 388  0108  0F10        	mov a,16  
 388  0109  0080     E  	mov _builtin_holtek_udivmodsi4_2[4],a  
 388  010A  0F27        	mov a,39  
 388  010B  0080     E  	mov _builtin_holtek_udivmodsi4_2[5],a
 388  010C  1F00     E  	clr _builtin_holtek_udivmodsi4_2[6]
 388  010D  1F00     E  	clr _builtin_holtek_udivmodsi4_2[7]
 388  010E              	fcall _builtin_holtek_udivmodsi4
 388  0115  0700     E  	mov a,_builtin_holtek_udivmodsi4_2[0]  
 388  0116  0080     E  	mov rd,a  
 388  0117  0700     E  	mov a,_builtin_holtek_udivmodsi4_2[1]  
 388  0118  0080     E  	mov re,a
 388  0119  0700     E  	mov a,_builtin_holtek_udivmodsi4_2[2]  
 388  011A  0080     E  	mov rf,a  
 388  011B  0700     E  	mov a,_builtin_holtek_udivmodsi4_2[3]  
 388  011C  0080     E  	mov rg,a
 389  011D              #line 389 "f:\work\血糖仪\a_bh45f67-旧版\4g\美国客户\make_lib\v1.0.01（5000套出货)-02\g-777g-usa-bg95eseye-2022-2-20\lcd.c"
 389  011D  0FC3        	mov a,low offset _Blood_glucose
 389  011E  0083        	mov mp,a
 389  011F  0F03        	mov a,high offset _Blood_glucose
 389  0120  0081        	mov sbp,a
 389  0121  0701        	mov a,sbp
 389  0122  0D00     R  	or a,bank _transformation
 389  0123  0084        	mov bp,a
 389  0124  0700     E  	mov a,rd
 389  0125  0082        	mov ir,a
 389  0126  1483        	inc mp
 389  0127  0700     E  	mov a,re
 389  0128  0082        	mov ir,a
 389  0129  1483        	inc mp
 389  012A  0700     E  	mov a,rf
 389  012B  0082        	mov ir,a
 389  012C  1483        	inc mp
 389  012D  0700     E  	mov a,rg
 389  012E  0082        	mov ir,a
 389  012F              _L50:
 389  012F  0003        	ret
 389  0130              _transformation endp
 389  0130              #line 389 "f:\work\血糖仪\a_bh45f67-旧版\4g\美国客户\make_lib\v1.0.01（5000套出货)-02\g-777g-usa-bg95eseye-2022-2-20\lcd.c"
 389  0130              #pragma debug scope 1 1
 389  0130              _sys_Month equ [946]
 389  0130              _sys_Day equ [947]
 389  0130              public _Update_time
 389  0130              #pragma debug scope 23 1
 394  0130              #line 394 "f:\work\血糖仪\a_bh45f67-旧版\4g\美国客户\make_lib\v1.0.01（5000套出货)-02\g-777g-usa-bg95eseye-2022-2-20\lcd.c"
 394  0000              _Update_time .section 'code'
 394  0000              _Update_time proc
 394  0000  00              local _Update_time_2 db 1 dup(?)	; 0,1
 398  0001              #line 398 "f:\work\血糖仪\a_bh45f67-旧版\4g\美国客户\make_lib\v1.0.01（5000套出货)-02\g-777g-usa-bg95eseye-2022-2-20\lcd.c"
 398  0000  0FB2        	mov a,low offset _sys_Month
 398  0001  0083        	mov mp,a
 398  0002  0F03        	mov a,high offset _sys_Month
 398  0003  0081        	mov sbp,a
 398  0004  0701        	mov a,sbp
 398  0005  0D00     R  	or a,bank _Update_time
 398  0006  0084        	mov bp,a
 398  0007  0702        	mov a,ir
文件：lcd.c        编译器版本 HGASM 0202 页次31

 398  0008  0080     E  	mov ra,a
 398  0009  1F00     E  	clr _builtin_holtek_udivmodqi4_2[3]
 398  000A  0700     E  	mov a,ra
 398  000B  0080     E  	mov _builtin_holtek_udivmodqi4_2[0],a
 398  000C  0F0A        	mov a,10
 398  000D  0080     E  	mov _builtin_holtek_udivmodqi4_2[1],a
 398  000E              	fcall _builtin_holtek_udivmodqi4
 398  0015  0700     E  	mov a,_builtin_holtek_udivmodqi4_2[0]
 398  0016  0080     R  	mov _Update_time_2[0],a
 399  0017              #line 399 "f:\work\血糖仪\a_bh45f67-旧版\4g\美国客户\make_lib\v1.0.01（5000套出货)-02\g-777g-usa-bg95eseye-2022-2-20\lcd.c"
 399  0017  1080     R  	sz _Update_time_2[0]
 399  0018  2800     R  	jmp _LI3
 399  0019  2800     R  	jmp _L57
 399  001A              _LI3:
 401  001A              #line 401 "f:\work\血糖仪\a_bh45f67-旧版\4g\美国客户\make_lib\v1.0.01（5000套出货)-02\g-777g-usa-bg95eseye-2022-2-20\lcd.c"
 401  001A  1700     R  	sdza _Update_time_2[0]
 401  001B  2800     R  	jmp _L58
 403  001C              #line 403 "f:\work\血糖仪\a_bh45f67-旧版\4g\美国客户\make_lib\v1.0.01（5000套出货)-02\g-777g-usa-bg95eseye-2022-2-20\lcd.c"
 403  001C  0FA3        	mov a,low (offset _disp_buff+5)
 403  001D  0083        	mov mp,a
 403  001E  0F03        	mov a,high (offset _disp_buff+5)
 403  001F  0081        	mov sbp,a
 403  0020  0701        	mov a,sbp
 403  0021  0D00     R  	or a,bank _Update_time
 403  0022  0084        	mov bp,a
 403  0023  0F60        	mov a,96
 403  0024  0582        	orm a,ir
 403  0025  2800     R  	jmp _L59
 403  0026              _L58:
 405  0026              #line 405 "f:\work\血糖仪\a_bh45f67-旧版\4g\美国客户\make_lib\v1.0.01（5000套出货)-02\g-777g-usa-bg95eseye-2022-2-20\lcd.c"
 405  0026  0700     R  	mov a,_Update_time_2[0]
 405  0027  0A02        	sub a,2
 405  0028  390A        	snz z
 405  0029  2800     R  	jmp _L59
 407  002A              #line 407 "f:\work\血糖仪\a_bh45f67-旧版\4g\美国客户\make_lib\v1.0.01（5000套出货)-02\g-777g-usa-bg95eseye-2022-2-20\lcd.c"
 407  002A  0FA3        	mov a,low (offset _disp_buff+5)
 407  002B  0083        	mov mp,a
 407  002C  0F03        	mov a,high (offset _disp_buff+5)
 407  002D  0081        	mov sbp,a
 407  002E  0701        	mov a,sbp
 407  002F  0D00     R  	or a,bank _Update_time
 407  0030  0084        	mov bp,a
 407  0031  0FC0        	mov a,-64
 407  0032  0582        	orm a,ir
 407  0033  2800     R  	jmp _L59
 407  0034              _L57:
 412  0034              #line 412 "f:\work\血糖仪\a_bh45f67-旧版\4g\美国客户\make_lib\v1.0.01（5000套出货)-02\g-777g-usa-bg95eseye-2022-2-20\lcd.c"
 412  0034  0FA3        	mov a,low (offset _disp_buff+5)
 412  0035  0083        	mov mp,a
 412  0036  0F03        	mov a,high (offset _disp_buff+5)
 412  0037  0081        	mov sbp,a
 412  0038  0701        	mov a,sbp
 412  0039  0D00     R  	or a,bank _Update_time
 412  003A  0084        	mov bp,a
 412  003B  0F1F        	mov a,31
 412  003C  0682        	andm a,ir
 412  003D              _L59:
 414  003D              #line 414 "f:\work\血糖仪\a_bh45f67-旧版\4g\美国客户\make_lib\v1.0.01（5000套出货)-02\g-777g-usa-bg95eseye-2022-2-20\lcd.c"
 414  003D  0FB2        	mov a,low offset _sys_Month
 414  003E  0083        	mov mp,a
文件：lcd.c        编译器版本 HGASM 0202 页次32

 414  003F  0F03        	mov a,high offset _sys_Month
 414  0040  0081        	mov sbp,a
 414  0041  0701        	mov a,sbp
 414  0042  0D00     R  	or a,bank _Update_time
 414  0043  0084        	mov bp,a
 414  0044  0702        	mov a,ir
 414  0045  0080     E  	mov rb,a
 414  0046  1F00     E  	clr _builtin_holtek_udivmodqi4_2[3]
 414  0047  0700     E  	mov a,rb
 414  0048  0080     E  	mov _builtin_holtek_udivmodqi4_2[0],a
 414  0049  0F0A        	mov a,10
 414  004A  0080     E  	mov _builtin_holtek_udivmodqi4_2[1],a
 414  004B              	fcall _builtin_holtek_udivmodqi4
 414  0052  0700     E  	mov a,_builtin_holtek_udivmodqi4_2[2]
 414  0053  0080     E  	mov rb,a
 415  0054              #line 415 "f:\work\血糖仪\a_bh45f67-旧版\4g\美国客户\make_lib\v1.0.01（5000套出货)-02\g-777g-usa-bg95eseye-2022-2-20\lcd.c"
 415  0054  1F00     E  	clr rc
 415  0055  340A        	clr c
 415  0056  1A80     E  	rlc rb
 415  0057  1A80     E  	rlc rc
 415  0058  0F00     R  	mov a,low offset _small_number_tab
 415  0059  0300     E  	add a,rb
 415  005A  0083        	mov mp,a
 415  005B  0F00     R  	mov a,high offset _small_number_tab
 415  005C  1300     E  	adc a,rc
 415  005D  0081        	mov sbp,a
 415  005E              	fcall _Crom2Prom
 415  0065  0080     E  	mov ra,a
 415  0066  0FA4        	mov a,low (offset _disp_buff+6)
 415  0067  0083        	mov mp,a
 415  0068  0F03        	mov a,high (offset _disp_buff+6)
 415  0069  0081        	mov sbp,a
 415  006A  0701        	mov a,sbp
 415  006B  0D00     R  	or a,bank _Update_time
 415  006C  0084        	mov bp,a
 415  006D  0700     E  	mov a,ra
 415  006E  0082        	mov ir,a
 416  006F              #line 416 "f:\work\血糖仪\a_bh45f67-旧版\4g\美国客户\make_lib\v1.0.01（5000套出货)-02\g-777g-usa-bg95eseye-2022-2-20\lcd.c"
 416  006F  0FB3        	mov a,low offset _sys_Day
 416  0070  0083        	mov mp,a
 416  0071  0F03        	mov a,high offset _sys_Day
 416  0072  0081        	mov sbp,a
 416  0073  0701        	mov a,sbp
 416  0074  0D00     R  	or a,bank _Update_time
 416  0075  0084        	mov bp,a
 416  0076  0702        	mov a,ir
 416  0077  0080     E  	mov rb,a
 416  0078  1F00     E  	clr _builtin_holtek_udivmodqi4_2[3]
 416  0079  0700     E  	mov a,rb
 416  007A  0080     E  	mov _builtin_holtek_udivmodqi4_2[0],a
 416  007B  0F0A        	mov a,10
 416  007C  0080     E  	mov _builtin_holtek_udivmodqi4_2[1],a
 416  007D              	fcall _builtin_holtek_udivmodqi4
 416  0084  0700     E  	mov a,_builtin_holtek_udivmodqi4_2[0]
 416  0085  0080     E  	mov rb,a
 417  0086              #line 417 "f:\work\血糖仪\a_bh45f67-旧版\4g\美国客户\make_lib\v1.0.01（5000套出货)-02\g-777g-usa-bg95eseye-2022-2-20\lcd.c"
 417  0086  1F00     E  	clr rc
 417  0087  340A        	clr c
 417  0088  1A80     E  	rlc rb
 417  0089  1A80     E  	rlc rc
文件：lcd.c        编译器版本 HGASM 0202 页次33

 417  008A  0F00     R  	mov a,low offset _small_number_tab
 417  008B  0300     E  	add a,rb
 417  008C  0083        	mov mp,a
 417  008D  0F00     R  	mov a,high offset _small_number_tab
 417  008E  1300     E  	adc a,rc
 417  008F  0081        	mov sbp,a
 417  0090              	fcall _Crom2Prom
 417  0097  0080     E  	mov rb,a
 417  0098              	fcall _Crom2PromNext
 417  009F  0080     E  	mov rc,a
 417  00A0  0700     E  	mov a,rb
 417  00A1  0080     E  	mov ra,a
 417  00A2  1100     E  	swapa ra
 417  00A3  0EF0        	and a,0f0h 
 417  00A4  0080     E  	mov ra,a
 417  00A5  0FA8        	mov a,low (offset _disp_buff+10)
 417  00A6  0083        	mov mp,a
 417  00A7  0F03        	mov a,high (offset _disp_buff+10)
 417  00A8  0081        	mov sbp,a
 418  00A9              #line 418 "f:\work\血糖仪\a_bh45f67-旧版\4g\美国客户\make_lib\v1.0.01（5000套出货)-02\g-777g-usa-bg95eseye-2022-2-20\lcd.c"
 418  00A9  3000     E  	set ra.4
 418  00AA  0701        	mov a,sbp
 418  00AB  0D00     R  	or a,bank _Update_time
 418  00AC  0084        	mov bp,a
 418  00AD  0700     E  	mov a,ra
 418  00AE  0082        	mov ir,a
 419  00AF              #line 419 "f:\work\血糖仪\a_bh45f67-旧版\4g\美国客户\make_lib\v1.0.01（5000套出货)-02\g-777g-usa-bg95eseye-2022-2-20\lcd.c"
 419  00AF  0700     E  	mov a,rb
 419  00B0  0080     E  	mov rd,a
 419  00B1  0700     E  	mov a,rc
 419  00B2  0080     E  	mov re,a
 419  00B3  0F04        	mov a,4
 419  00B4              _LI4:
 419  00B4  340A        	clr c
 419  00B5  3C00     E  	sz re.7
 419  00B6  300A        	set c
 419  00B7  1B80     E  	rrc re
 419  00B8  1B80     E  	rrc rd
 419  00B9  1785        	sdz acc
 419  00BA  2800     R  	jmp _LI4
 421  00BB              #line 421 "f:\work\血糖仪\a_bh45f67-旧版\4g\美国客户\make_lib\v1.0.01（5000套出货)-02\g-777g-usa-bg95eseye-2022-2-20\lcd.c"
 421  00BB  0FB3        	mov a,low offset _sys_Day
 421  00BC  0083        	mov mp,a
 421  00BD  0F03        	mov a,high offset _sys_Day
 421  00BE  0081        	mov sbp,a
 421  00BF  0701        	mov a,sbp
 421  00C0  0D00     R  	or a,bank _Update_time
 421  00C1  0084        	mov bp,a
 421  00C2  0702        	mov a,ir
 421  00C3  0080     E  	mov rb,a
 421  00C4  1F00     E  	clr _builtin_holtek_udivmodqi4_2[3]
 421  00C5  0700     E  	mov a,rb
 421  00C6  0080     E  	mov _builtin_holtek_udivmodqi4_2[0],a
 421  00C7  0F0A        	mov a,10
 421  00C8  0080     E  	mov _builtin_holtek_udivmodqi4_2[1],a
 421  00C9              	fcall _builtin_holtek_udivmodqi4
 421  00D0  0700     E  	mov a,_builtin_holtek_udivmodqi4_2[2]
 421  00D1  0080     E  	mov rb,a
 423  00D2              #line 423 "f:\work\血糖仪\a_bh45f67-旧版\4g\美国客户\make_lib\v1.0.01（5000套出货)-02\g-777g-usa-bg95eseye-2022-2-20\lcd.c"
 423  00D2  1F00     E  	clr rc
文件：lcd.c        编译器版本 HGASM 0202 页次34

 423  00D3  340A        	clr c
 423  00D4  1A80     E  	rlc rb
 423  00D5  1A80     E  	rlc rc
 423  00D6  0F00     R  	mov a,low offset _small_number_tab
 423  00D7  0300     E  	add a,rb
 423  00D8  0083        	mov mp,a
 423  00D9  0F00     R  	mov a,high offset _small_number_tab
 423  00DA  1300     E  	adc a,rc
 423  00DB  0081        	mov sbp,a
 423  00DC              	fcall _Crom2Prom
 423  00E3  0080     E  	mov rb,a
 423  00E4              	fcall _Crom2PromNext
 423  00EB  0080     E  	mov rc,a
 423  00EC  0700     E  	mov a,rb
 423  00ED  0080     E  	mov ra,a
 423  00EE  1100     E  	swapa ra
 423  00EF  0EF0        	and a,0f0h 
 423  00F0  0080     E  	mov ra,a
 423  00F1  0FA9        	mov a,low (offset _disp_buff+11)
 423  00F2  0083        	mov mp,a
 423  00F3  0F03        	mov a,high (offset _disp_buff+11)
 423  00F4  0081        	mov sbp,a
 424  00F5              #line 424 "f:\work\血糖仪\a_bh45f67-旧版\4g\美国客户\make_lib\v1.0.01（5000套出货)-02\g-777g-usa-bg95eseye-2022-2-20\lcd.c"
 424  00F5  0700     E  	mov a,ra
 424  00F6  0580     E  	orm a,rd
 424  00F7  0701        	mov a,sbp
 424  00F8  0D00     R  	or a,bank _Update_time
 424  00F9  0084        	mov bp,a
 424  00FA  0700     E  	mov a,rd
 424  00FB  0082        	mov ir,a
 425  00FC              #line 425 "f:\work\血糖仪\a_bh45f67-旧版\4g\美国客户\make_lib\v1.0.01（5000套出货)-02\g-777g-usa-bg95eseye-2022-2-20\lcd.c"
 425  00FC  0F04        	mov a,4
 425  00FD              _LI5:
 425  00FD  340A        	clr c
 425  00FE  3C00     E  	sz rc.7
 425  00FF  300A        	set c
 425  0100  1B80     E  	rrc rc
 425  0101  1B80     E  	rrc rb
 425  0102  1785        	sdz acc
 425  0103  2800     R  	jmp _LI5
 425  0104  1483        	inc mp
 425  0105  3D0A        	sz z
 425  0106  1481        	inc sbp
 425  0107  0701        	mov a,sbp
 425  0108  0D00     R  	or a,bank _Update_time
 425  0109  0084        	mov bp,a
 425  010A  0700     E  	mov a,rb
 425  010B  0082        	mov ir,a
 426  010C              #line 426 "f:\work\血糖仪\a_bh45f67-旧版\4g\美国客户\make_lib\v1.0.01（5000套出货)-02\g-777g-usa-bg95eseye-2022-2-20\lcd.c"
 426  010C  0FB4        	mov a,low offset _sys_Hour
 426  010D  0083        	mov mp,a
 426  010E  0F03        	mov a,high offset _sys_Hour
 426  010F  0081        	mov sbp,a
 426  0110  0701        	mov a,sbp
 426  0111  0D00     R  	or a,bank _Update_time
 426  0112  0084        	mov bp,a
 426  0113  0702        	mov a,ir
 426  0114  0080     E  	mov ra,a
 426  0115  1F00     E  	clr _builtin_holtek_udivmodqi4_2[3]
 426  0116  0700     E  	mov a,ra
文件：lcd.c        编译器版本 HGASM 0202 页次35

 426  0117  0080     E  	mov _builtin_holtek_udivmodqi4_2[0],a
 426  0118  0F0A        	mov a,10
 426  0119  0080     E  	mov _builtin_holtek_udivmodqi4_2[1],a
 426  011A              	fcall _builtin_holtek_udivmodqi4
 426  0121  0700     E  	mov a,_builtin_holtek_udivmodqi4_2[0]
 426  0122  0080     R  	mov _Update_time_2[0],a
 427  0123              #line 427 "f:\work\血糖仪\a_bh45f67-旧版\4g\美国客户\make_lib\v1.0.01（5000套出货)-02\g-777g-usa-bg95eseye-2022-2-20\lcd.c"
 427  0123  1080     R  	sz _Update_time_2[0]
 427  0124  2800     R  	jmp _LI6
 427  0125  2800     R  	jmp _L60
 427  0126              _LI6:
 429  0126              #line 429 "f:\work\血糖仪\a_bh45f67-旧版\4g\美国客户\make_lib\v1.0.01（5000套出货)-02\g-777g-usa-bg95eseye-2022-2-20\lcd.c"
 429  0126  1700     R  	sdza _Update_time_2[0]
 429  0127  2800     R  	jmp _L61
 431  0128              #line 431 "f:\work\血糖仪\a_bh45f67-旧版\4g\美国客户\make_lib\v1.0.01（5000套出货)-02\g-777g-usa-bg95eseye-2022-2-20\lcd.c"
 431  0128  0FAA        	mov a,low (offset _disp_buff+12)
 431  0129  0083        	mov mp,a
 431  012A  0F03        	mov a,high (offset _disp_buff+12)
 431  012B  0081        	mov sbp,a
 431  012C  0701        	mov a,sbp
 431  012D  0D00     R  	or a,bank _Update_time
 431  012E  0084        	mov bp,a
 431  012F  0F60        	mov a,96
 431  0130  0582        	orm a,ir
 431  0131  2800     R  	jmp _L62
 431  0132              _L61:
 433  0132              #line 433 "f:\work\血糖仪\a_bh45f67-旧版\4g\美国客户\make_lib\v1.0.01（5000套出货)-02\g-777g-usa-bg95eseye-2022-2-20\lcd.c"
 433  0132  0700     R  	mov a,_Update_time_2[0]
 433  0133  0A02        	sub a,2
 433  0134  390A        	snz z
 433  0135  2800     R  	jmp _L62
 435  0136              #line 435 "f:\work\血糖仪\a_bh45f67-旧版\4g\美国客户\make_lib\v1.0.01（5000套出货)-02\g-777g-usa-bg95eseye-2022-2-20\lcd.c"
 435  0136  0FAA        	mov a,low (offset _disp_buff+12)
 435  0137  0083        	mov mp,a
 435  0138  0F03        	mov a,high (offset _disp_buff+12)
 435  0139  0081        	mov sbp,a
 435  013A  0701        	mov a,sbp
 435  013B  0D00     R  	or a,bank _Update_time
 435  013C  0084        	mov bp,a
 435  013D  0FC0        	mov a,-64
 435  013E  0582        	orm a,ir
 435  013F  2800     R  	jmp _L62
 435  0140              _L60:
 440  0140              #line 440 "f:\work\血糖仪\a_bh45f67-旧版\4g\美国客户\make_lib\v1.0.01（5000套出货)-02\g-777g-usa-bg95eseye-2022-2-20\lcd.c"
 440  0140  0FAA        	mov a,low (offset _disp_buff+12)
 440  0141  0083        	mov mp,a
 440  0142  0F03        	mov a,high (offset _disp_buff+12)
 440  0143  0081        	mov sbp,a
 440  0144  0701        	mov a,sbp
 440  0145  0D00     R  	or a,bank _Update_time
 440  0146  0084        	mov bp,a
 440  0147  0F0F        	mov a,15
 440  0148  0682        	andm a,ir
 440  0149              _L62:
 442  0149              #line 442 "f:\work\血糖仪\a_bh45f67-旧版\4g\美国客户\make_lib\v1.0.01（5000套出货)-02\g-777g-usa-bg95eseye-2022-2-20\lcd.c"
 442  0149  0FB4        	mov a,low offset _sys_Hour
 442  014A  0083        	mov mp,a
 442  014B  0F03        	mov a,high offset _sys_Hour
 442  014C  0081        	mov sbp,a
 442  014D  0701        	mov a,sbp
文件：lcd.c        编译器版本 HGASM 0202 页次36

 442  014E  0D00     R  	or a,bank _Update_time
 442  014F  0084        	mov bp,a
 442  0150  0702        	mov a,ir
 442  0151  0080     E  	mov rb,a
 442  0152  1F00     E  	clr _builtin_holtek_udivmodqi4_2[3]
 442  0153  0700     E  	mov a,rb
 442  0154  0080     E  	mov _builtin_holtek_udivmodqi4_2[0],a
 442  0155  0F0A        	mov a,10
 442  0156  0080     E  	mov _builtin_holtek_udivmodqi4_2[1],a
 442  0157              	fcall _builtin_holtek_udivmodqi4
 442  015E  0700     E  	mov a,_builtin_holtek_udivmodqi4_2[2]
 442  015F  0080     E  	mov rb,a
 443  0160              #line 443 "f:\work\血糖仪\a_bh45f67-旧版\4g\美国客户\make_lib\v1.0.01（5000套出货)-02\g-777g-usa-bg95eseye-2022-2-20\lcd.c"
 443  0160  1F00     E  	clr rc
 443  0161  340A        	clr c
 443  0162  1A80     E  	rlc rb
 443  0163  1A80     E  	rlc rc
 443  0164  0F00     R  	mov a,low offset _small_number_tab
 443  0165  0300     E  	add a,rb
 443  0166  0083        	mov mp,a
 443  0167  0F00     R  	mov a,high offset _small_number_tab
 443  0168  1300     E  	adc a,rc
 443  0169  0081        	mov sbp,a
 443  016A              	fcall _Crom2Prom
 443  0171  0080     E  	mov ra,a
 443  0172  0FAB        	mov a,low (offset _disp_buff+13)
 443  0173  0083        	mov mp,a
 443  0174  0F03        	mov a,high (offset _disp_buff+13)
 443  0175  0081        	mov sbp,a
 443  0176  0701        	mov a,sbp
 443  0177  0D00     R  	or a,bank _Update_time
 443  0178  0084        	mov bp,a
 443  0179  0700     E  	mov a,ra
 443  017A  0082        	mov ir,a
 445  017B              #line 445 "f:\work\血糖仪\a_bh45f67-旧版\4g\美国客户\make_lib\v1.0.01（5000套出货)-02\g-777g-usa-bg95eseye-2022-2-20\lcd.c"
 445  017B  0FB5        	mov a,low offset _sys_Minute
 445  017C  0083        	mov mp,a
 445  017D  0F03        	mov a,high offset _sys_Minute
 445  017E  0081        	mov sbp,a
 445  017F  0701        	mov a,sbp
 445  0180  0D00     R  	or a,bank _Update_time
 445  0181  0084        	mov bp,a
 445  0182  0702        	mov a,ir
 445  0183  0080     E  	mov rb,a
 445  0184  1F00     E  	clr _builtin_holtek_udivmodqi4_2[3]
 445  0185  0700     E  	mov a,rb
 445  0186  0080     E  	mov _builtin_holtek_udivmodqi4_2[0],a
 445  0187  0F0A        	mov a,10
 445  0188  0080     E  	mov _builtin_holtek_udivmodqi4_2[1],a
 445  0189              	fcall _builtin_holtek_udivmodqi4
 445  0190  0700     E  	mov a,_builtin_holtek_udivmodqi4_2[0]
 445  0191  0080     E  	mov rb,a
 446  0192              #line 446 "f:\work\血糖仪\a_bh45f67-旧版\4g\美国客户\make_lib\v1.0.01（5000套出货)-02\g-777g-usa-bg95eseye-2022-2-20\lcd.c"
 446  0192  1F00     E  	clr rc
 446  0193  340A        	clr c
 446  0194  1A80     E  	rlc rb
 446  0195  1A80     E  	rlc rc
 446  0196  0F00     R  	mov a,low offset _small_number_tab
 446  0197  0300     E  	add a,rb
 446  0198  0083        	mov mp,a
文件：lcd.c        编译器版本 HGASM 0202 页次37

 446  0199  0F00     R  	mov a,high offset _small_number_tab
 446  019A  1300     E  	adc a,rc
 446  019B  0081        	mov sbp,a
 446  019C              	fcall _Crom2Prom
 446  01A3  0080     E  	mov ra,a
 446  01A4  0FAC        	mov a,low (offset _disp_buff+14)
 446  01A5  0083        	mov mp,a
 446  01A6  0F03        	mov a,high (offset _disp_buff+14)
 446  01A7  0081        	mov sbp,a
 447  01A8              #line 447 "f:\work\血糖仪\a_bh45f67-旧版\4g\美国客户\make_lib\v1.0.01（5000套出货)-02\g-777g-usa-bg95eseye-2022-2-20\lcd.c"
 447  01A8  3000     E  	set ra.0
 447  01A9  0701        	mov a,sbp
 447  01AA  0D00     R  	or a,bank _Update_time
 447  01AB  0084        	mov bp,a
 447  01AC  0700     E  	mov a,ra
 447  01AD  0082        	mov ir,a
 449  01AE              #line 449 "f:\work\血糖仪\a_bh45f67-旧版\4g\美国客户\make_lib\v1.0.01（5000套出货)-02\g-777g-usa-bg95eseye-2022-2-20\lcd.c"
 449  01AE  0FB5        	mov a,low offset _sys_Minute
 449  01AF  0083        	mov mp,a
 449  01B0  0F03        	mov a,high offset _sys_Minute
 449  01B1  0081        	mov sbp,a
 449  01B2  0701        	mov a,sbp
 449  01B3  0D00     R  	or a,bank _Update_time
 449  01B4  0084        	mov bp,a
 449  01B5  0702        	mov a,ir
 449  01B6  0080     E  	mov rb,a
 449  01B7  1F00     E  	clr _builtin_holtek_udivmodqi4_2[3]
 449  01B8  0700     E  	mov a,rb
 449  01B9  0080     E  	mov _builtin_holtek_udivmodqi4_2[0],a
 449  01BA  0F0A        	mov a,10
 449  01BB  0080     E  	mov _builtin_holtek_udivmodqi4_2[1],a
 449  01BC              	fcall _builtin_holtek_udivmodqi4
 449  01C3  0700     E  	mov a,_builtin_holtek_udivmodqi4_2[2]
 449  01C4  0080     E  	mov rb,a
 450  01C5              #line 450 "f:\work\血糖仪\a_bh45f67-旧版\4g\美国客户\make_lib\v1.0.01（5000套出货)-02\g-777g-usa-bg95eseye-2022-2-20\lcd.c"
 450  01C5  1F00     E  	clr rc
 450  01C6  340A        	clr c
 450  01C7  1A80     E  	rlc rb
 450  01C8  1A80     E  	rlc rc
 450  01C9  0F00     R  	mov a,low offset _small_number_tab
 450  01CA  0300     E  	add a,rb
 450  01CB  0083        	mov mp,a
 450  01CC  0F00     R  	mov a,high offset _small_number_tab
 450  01CD  1300     E  	adc a,rc
 450  01CE  0081        	mov sbp,a
 450  01CF              	fcall _Crom2Prom
 450  01D6  0080     E  	mov ra,a
 450  01D7  0FAD        	mov a,low (offset _disp_buff+15)
 450  01D8  0083        	mov mp,a
 450  01D9  0F03        	mov a,high (offset _disp_buff+15)
 450  01DA  0081        	mov sbp,a
 450  01DB  0701        	mov a,sbp
 450  01DC  0D00     R  	or a,bank _Update_time
 450  01DD  0084        	mov bp,a
 450  01DE  0700     E  	mov a,ra
 450  01DF  0082        	mov ir,a
 450  01E0  0003        	ret
 450  01E1              _Update_time endp
 450  01E1              #line 450 "f:\work\血糖仪\a_bh45f67-旧版\4g\美国客户\make_lib\v1.0.01（5000套出货)-02\g-777g-usa-bg95eseye-2022-2-20\lcd.c"
 450  01E1              #pragma debug scope 1 1
文件：lcd.c        编译器版本 HGASM 0202 页次38

 450  01E1              _test_buff equ [987]
 450  01E1              public _Show_Big_number
 450  01E1              #pragma debug scope 24 1
 461  01E1              #line 461 "f:\work\血糖仪\a_bh45f67-旧版\4g\美国客户\make_lib\v1.0.01（5000套出货)-02\g-777g-usa-bg95eseye-2022-2-20\lcd.c"
 461  0000              _Show_Big_number .section 'code'
 461  0000              _Show_Big_number proc
 461  0000              public _Show_Big_number_2
 461  0000  0006[           local _Show_Big_number_2 db 6 dup(?)	; 5,1
            00
            ]
 461  0006              #pragma debug pointer 42 8 24
 461  0006              #pragma debug pointer 42 8 24
 461  0006              #pragma debug variable 42 24 _Show_Big_number_2+0 "p"
 461  0006              #pragma debug variable 10 24 _Show_Big_number_2+2 "dat"
 461  0006              #pragma debug variable 8 24 _Show_Big_number_2+4 "flag"
 464  0006              #line 464 "f:\work\血糖仪\a_bh45f67-旧版\4g\美国客户\make_lib\v1.0.01（5000套出货)-02\g-777g-usa-bg95eseye-2022-2-20\lcd.c"
 464  0000  1080     R  	sz _Show_Big_number_2[4]
 464  0001  2800     R  	jmp _L64
 466  0002              #line 466 "f:\work\血糖仪\a_bh45f67-旧版\4g\美国客户\make_lib\v1.0.01（5000套出货)-02\g-777g-usa-bg95eseye-2022-2-20\lcd.c"
 466  0002  0700     R  	mov a,_Show_Big_number_2[0]
 466  0003  0080     E  	mov rb,a
 466  0004  0700     R  	mov a,_Show_Big_number_2[1]
 466  0005  0080     E  	mov rc,a
 466  0006  0700     E  	mov a,rb
 466  0007  0083        	mov mp,a
 466  0008  0700     E  	mov a,rc
 466  0009  0081        	mov sbp,a
 466  000A              	fcall _Crom2Prom
 466  0011  0080     E  	mov ra,a
 466  0012  0F0A        	mov a,10
 466  0013  0200     E  	sub a,ra
 466  0014  3C0A        	sz c
 466  0015  2800     R  	jmp _L65
 466  0016  0F10        	mov a,16
 466  0017  0080     E  	mov ra,a
 466  0018  1F00     E  	clr rb
 466  0019              _L67:
 470  0019              #line 470 "f:\work\血糖仪\a_bh45f67-旧版\4g\美国客户\make_lib\v1.0.01（5000套出货)-02\g-777g-usa-bg95eseye-2022-2-20\lcd.c"
 470  0019  0F9E        	mov a,low offset _disp_buff
 470  001A  0300     E  	add a,rb
 470  001B  0083        	mov mp,a
 470  001C  0F03        	mov a,high offset _disp_buff
 470  001D  1F01        	clr sbp
 470  001E  1381        	adcm a,sbp
 470  001F  0701        	mov a,sbp
 470  0020  0D00     R  	or a,bank _Show_Big_number
 470  0021  0084        	mov bp,a
 470  0022  0F00        	mov a,0
 470  0023  0082        	mov ir,a
 468  0024              #line 468 "f:\work\血糖仪\a_bh45f67-旧版\4g\美国客户\make_lib\v1.0.01（5000套出货)-02\g-777g-usa-bg95eseye-2022-2-20\lcd.c"
 468  0024  1480     E  	inc rb
 468  0025  1780     E  	sdz ra
 468  0026  2800     R  	jmp _L67
 472  0027              #line 472 "f:\work\血糖仪\a_bh45f67-旧版\4g\美国客户\make_lib\v1.0.01（5000套出货)-02\g-777g-usa-bg95eseye-2022-2-20\lcd.c"
 472  0027  0FB2        	mov a,low offset _sys_Month
 472  0028  0083        	mov mp,a
 472  0029  0F03        	mov a,high offset _sys_Month
 472  002A  0081        	mov sbp,a
 472  002B  0701        	mov a,sbp
 472  002C  0D00     R  	or a,bank _Show_Big_number
文件：lcd.c        编译器版本 HGASM 0202 页次39

 472  002D  0084        	mov bp,a
 472  002E  0702        	mov a,ir
 472  002F  0080     E  	mov ra,a
 472  0030  1F00     E  	clr _builtin_holtek_udivmodqi4_2[3]
 472  0031  0700     E  	mov a,ra
 472  0032  0080     E  	mov _builtin_holtek_udivmodqi4_2[0],a
 472  0033  0F0A        	mov a,10
 472  0034  0080     E  	mov _builtin_holtek_udivmodqi4_2[1],a
 472  0035              	fcall _builtin_holtek_udivmodqi4
 472  003C  0700     E  	mov a,_builtin_holtek_udivmodqi4_2[0]
 472  003D  0080     R  	mov _Show_Big_number_2[5],a
 473  003E              #line 473 "f:\work\血糖仪\a_bh45f67-旧版\4g\美国客户\make_lib\v1.0.01（5000套出货)-02\g-777g-usa-bg95eseye-2022-2-20\lcd.c"
 473  003E  1080     R  	sz _Show_Big_number_2[5]
 473  003F  2800     R  	jmp _LI7
 473  0040  2800     R  	jmp _L68
 473  0041              _LI7:
 475  0041              #line 475 "f:\work\血糖仪\a_bh45f67-旧版\4g\美国客户\make_lib\v1.0.01（5000套出货)-02\g-777g-usa-bg95eseye-2022-2-20\lcd.c"
 475  0041  1700     R  	sdza _Show_Big_number_2[5]
 475  0042  2800     R  	jmp _L69
 477  0043              #line 477 "f:\work\血糖仪\a_bh45f67-旧版\4g\美国客户\make_lib\v1.0.01（5000套出货)-02\g-777g-usa-bg95eseye-2022-2-20\lcd.c"
 477  0043  0FA3        	mov a,low (offset _disp_buff+5)
 477  0044  0083        	mov mp,a
 477  0045  0F03        	mov a,high (offset _disp_buff+5)
 477  0046  0081        	mov sbp,a
 477  0047  0701        	mov a,sbp
 477  0048  0D00     R  	or a,bank _Show_Big_number
 477  0049  0084        	mov bp,a
 477  004A  0F60        	mov a,96
 477  004B  0582        	orm a,ir
 477  004C  2800     R  	jmp _L70
 477  004D              _L69:
 479  004D              #line 479 "f:\work\血糖仪\a_bh45f67-旧版\4g\美国客户\make_lib\v1.0.01（5000套出货)-02\g-777g-usa-bg95eseye-2022-2-20\lcd.c"
 479  004D  0700     R  	mov a,_Show_Big_number_2[5]
 479  004E  0A02        	sub a,2
 479  004F  390A        	snz z
 479  0050  2800     R  	jmp _L70
 481  0051              #line 481 "f:\work\血糖仪\a_bh45f67-旧版\4g\美国客户\make_lib\v1.0.01（5000套出货)-02\g-777g-usa-bg95eseye-2022-2-20\lcd.c"
 481  0051  0FA3        	mov a,low (offset _disp_buff+5)
 481  0052  0083        	mov mp,a
 481  0053  0F03        	mov a,high (offset _disp_buff+5)
 481  0054  0081        	mov sbp,a
 481  0055  0701        	mov a,sbp
 481  0056  0D00     R  	or a,bank _Show_Big_number
 481  0057  0084        	mov bp,a
 481  0058  0FC0        	mov a,-64
 481  0059  0582        	orm a,ir
 481  005A  2800     R  	jmp _L70
 481  005B              _L68:
 486  005B              #line 486 "f:\work\血糖仪\a_bh45f67-旧版\4g\美国客户\make_lib\v1.0.01（5000套出货)-02\g-777g-usa-bg95eseye-2022-2-20\lcd.c"
 486  005B  0FA3        	mov a,low (offset _disp_buff+5)
 486  005C  0083        	mov mp,a
 486  005D  0F03        	mov a,high (offset _disp_buff+5)
 486  005E  0081        	mov sbp,a
 486  005F  0701        	mov a,sbp
 486  0060  0D00     R  	or a,bank _Show_Big_number
 486  0061  0084        	mov bp,a
 486  0062  0F1F        	mov a,31
 486  0063  0682        	andm a,ir
 486  0064              _L70:
 488  0064              #line 488 "f:\work\血糖仪\a_bh45f67-旧版\4g\美国客户\make_lib\v1.0.01（5000套出货)-02\g-777g-usa-bg95eseye-2022-2-20\lcd.c"
文件：lcd.c        编译器版本 HGASM 0202 页次40

 488  0064  0FB2        	mov a,low offset _sys_Month
 488  0065  0083        	mov mp,a
 488  0066  0F03        	mov a,high offset _sys_Month
 488  0067  0081        	mov sbp,a
 488  0068  0701        	mov a,sbp
 488  0069  0D00     R  	or a,bank _Show_Big_number
 488  006A  0084        	mov bp,a
 488  006B  0702        	mov a,ir
 488  006C  0080     E  	mov rb,a
 488  006D  1F00     E  	clr _builtin_holtek_udivmodqi4_2[3]
 488  006E  0700     E  	mov a,rb
 488  006F  0080     E  	mov _builtin_holtek_udivmodqi4_2[0],a
 488  0070  0F0A        	mov a,10
 488  0071  0080     E  	mov _builtin_holtek_udivmodqi4_2[1],a
 488  0072              	fcall _builtin_holtek_udivmodqi4
 488  0079  0700     E  	mov a,_builtin_holtek_udivmodqi4_2[2]
 488  007A  0080     E  	mov rb,a
 489  007B              #line 489 "f:\work\血糖仪\a_bh45f67-旧版\4g\美国客户\make_lib\v1.0.01（5000套出货)-02\g-777g-usa-bg95eseye-2022-2-20\lcd.c"
 489  007B  1F00     E  	clr rc
 489  007C  340A        	clr c
 489  007D  1A80     E  	rlc rb
 489  007E  1A80     E  	rlc rc
 489  007F  0F00     R  	mov a,low offset _small_number_tab
 489  0080  0300     E  	add a,rb
 489  0081  0083        	mov mp,a
 489  0082  0F00     R  	mov a,high offset _small_number_tab
 489  0083  1300     E  	adc a,rc
 489  0084  0081        	mov sbp,a
 489  0085              	fcall _Crom2Prom
 489  008C  0080     E  	mov ra,a
 489  008D  0FA4        	mov a,low (offset _disp_buff+6)
 489  008E  0083        	mov mp,a
 489  008F  0F03        	mov a,high (offset _disp_buff+6)
 489  0090  0081        	mov sbp,a
 489  0091  0701        	mov a,sbp
 489  0092  0D00     R  	or a,bank _Show_Big_number
 489  0093  0084        	mov bp,a
 489  0094  0700     E  	mov a,ra
 489  0095  0082        	mov ir,a
 490  0096              #line 490 "f:\work\血糖仪\a_bh45f67-旧版\4g\美国客户\make_lib\v1.0.01（5000套出货)-02\g-777g-usa-bg95eseye-2022-2-20\lcd.c"
 490  0096  0FB3        	mov a,low offset _sys_Day
 490  0097  0083        	mov mp,a
 490  0098  0F03        	mov a,high offset _sys_Day
 490  0099  0081        	mov sbp,a
 490  009A  0701        	mov a,sbp
 490  009B  0D00     R  	or a,bank _Show_Big_number
 490  009C  0084        	mov bp,a
 490  009D  0702        	mov a,ir
 490  009E  0080     E  	mov rb,a
 490  009F  1F00     E  	clr _builtin_holtek_udivmodqi4_2[3]
 490  00A0  0700     E  	mov a,rb
 490  00A1  0080     E  	mov _builtin_holtek_udivmodqi4_2[0],a
 490  00A2  0F0A        	mov a,10
 490  00A3  0080     E  	mov _builtin_holtek_udivmodqi4_2[1],a
 490  00A4              	fcall _builtin_holtek_udivmodqi4
 490  00AB  0700     E  	mov a,_builtin_holtek_udivmodqi4_2[0]
 490  00AC  0080     E  	mov rb,a
 491  00AD              #line 491 "f:\work\血糖仪\a_bh45f67-旧版\4g\美国客户\make_lib\v1.0.01（5000套出货)-02\g-777g-usa-bg95eseye-2022-2-20\lcd.c"
 491  00AD  1F00     E  	clr rc
 491  00AE  340A        	clr c
文件：lcd.c        编译器版本 HGASM 0202 页次41

 491  00AF  1A80     E  	rlc rb
 491  00B0  1A80     E  	rlc rc
 491  00B1  0F00     R  	mov a,low offset _small_number_tab
 491  00B2  0300     E  	add a,rb
 491  00B3  0083        	mov mp,a
 491  00B4  0F00     R  	mov a,high offset _small_number_tab
 491  00B5  1300     E  	adc a,rc
 491  00B6  0081        	mov sbp,a
 491  00B7              	fcall _Crom2Prom
 491  00BE  0080     E  	mov rb,a
 491  00BF              	fcall _Crom2PromNext
 491  00C6  0080     E  	mov rc,a
 491  00C7  0700     E  	mov a,rb
 491  00C8  0080     E  	mov ra,a
 491  00C9  1100     E  	swapa ra
 491  00CA  0EF0        	and a,0f0h 
 491  00CB  0080     E  	mov ra,a
 491  00CC  0FA8        	mov a,low (offset _disp_buff+10)
 491  00CD  0083        	mov mp,a
 491  00CE  0F03        	mov a,high (offset _disp_buff+10)
 491  00CF  0081        	mov sbp,a
 492  00D0              #line 492 "f:\work\血糖仪\a_bh45f67-旧版\4g\美国客户\make_lib\v1.0.01（5000套出货)-02\g-777g-usa-bg95eseye-2022-2-20\lcd.c"
 492  00D0  3000     E  	set ra.4
 492  00D1  0701        	mov a,sbp
 492  00D2  0D00     R  	or a,bank _Show_Big_number
 492  00D3  0084        	mov bp,a
 492  00D4  0700     E  	mov a,ra
 492  00D5  0082        	mov ir,a
 493  00D6              #line 493 "f:\work\血糖仪\a_bh45f67-旧版\4g\美国客户\make_lib\v1.0.01（5000套出货)-02\g-777g-usa-bg95eseye-2022-2-20\lcd.c"
 493  00D6  0700     E  	mov a,rb
 493  00D7  0080     E  	mov rd,a
 493  00D8  0700     E  	mov a,rc
 493  00D9  0080     E  	mov re,a
 493  00DA  0F04        	mov a,4
 493  00DB              _LI8:
 493  00DB  340A        	clr c
 493  00DC  3C00     E  	sz re.7
 493  00DD  300A        	set c
 493  00DE  1B80     E  	rrc re
 493  00DF  1B80     E  	rrc rd
 493  00E0  1785        	sdz acc
 493  00E1  2800     R  	jmp _LI8
 495  00E2              #line 495 "f:\work\血糖仪\a_bh45f67-旧版\4g\美国客户\make_lib\v1.0.01（5000套出货)-02\g-777g-usa-bg95eseye-2022-2-20\lcd.c"
 495  00E2  0FB3        	mov a,low offset _sys_Day
 495  00E3  0083        	mov mp,a
 495  00E4  0F03        	mov a,high offset _sys_Day
 495  00E5  0081        	mov sbp,a
 495  00E6  0701        	mov a,sbp
 495  00E7  0D00     R  	or a,bank _Show_Big_number
 495  00E8  0084        	mov bp,a
 495  00E9  0702        	mov a,ir
 495  00EA  0080     E  	mov rb,a
 495  00EB  1F00     E  	clr _builtin_holtek_udivmodqi4_2[3]
 495  00EC  0700     E  	mov a,rb
 495  00ED  0080     E  	mov _builtin_holtek_udivmodqi4_2[0],a
 495  00EE  0F0A        	mov a,10
 495  00EF  0080     E  	mov _builtin_holtek_udivmodqi4_2[1],a
 495  00F0              	fcall _builtin_holtek_udivmodqi4
 495  00F7  0700     E  	mov a,_builtin_holtek_udivmodqi4_2[2]
 495  00F8  0080     E  	mov rb,a
文件：lcd.c        编译器版本 HGASM 0202 页次42

 497  00F9              #line 497 "f:\work\血糖仪\a_bh45f67-旧版\4g\美国客户\make_lib\v1.0.01（5000套出货)-02\g-777g-usa-bg95eseye-2022-2-20\lcd.c"
 497  00F9  1F00     E  	clr rc
 497  00FA  340A        	clr c
 497  00FB  1A80     E  	rlc rb
 497  00FC  1A80     E  	rlc rc
 497  00FD  0F00     R  	mov a,low offset _small_number_tab
 497  00FE  0300     E  	add a,rb
 497  00FF  0083        	mov mp,a
 497  0100  0F00     R  	mov a,high offset _small_number_tab
 497  0101  1300     E  	adc a,rc
 497  0102  0081        	mov sbp,a
 497  0103              	fcall _Crom2Prom
 497  010A  0080     E  	mov rb,a
 497  010B              	fcall _Crom2PromNext
 497  0112  0080     E  	mov rc,a
 497  0113  0700     E  	mov a,rb
 497  0114  0080     E  	mov ra,a
 497  0115  1100     E  	swapa ra
 497  0116  0EF0        	and a,0f0h 
 497  0117  0080     E  	mov ra,a
 497  0118  0FA9        	mov a,low (offset _disp_buff+11)
 497  0119  0083        	mov mp,a
 497  011A  0F03        	mov a,high (offset _disp_buff+11)
 497  011B  0081        	mov sbp,a
 498  011C              #line 498 "f:\work\血糖仪\a_bh45f67-旧版\4g\美国客户\make_lib\v1.0.01（5000套出货)-02\g-777g-usa-bg95eseye-2022-2-20\lcd.c"
 498  011C  0700     E  	mov a,ra
 498  011D  0580     E  	orm a,rd
 498  011E  0701        	mov a,sbp
 498  011F  0D00     R  	or a,bank _Show_Big_number
 498  0120  0084        	mov bp,a
 498  0121  0700     E  	mov a,rd
 498  0122  0082        	mov ir,a
 499  0123              #line 499 "f:\work\血糖仪\a_bh45f67-旧版\4g\美国客户\make_lib\v1.0.01（5000套出货)-02\g-777g-usa-bg95eseye-2022-2-20\lcd.c"
 499  0123  0F04        	mov a,4
 499  0124              _LI9:
 499  0124  340A        	clr c
 499  0125  3C00     E  	sz rc.7
 499  0126  300A        	set c
 499  0127  1B80     E  	rrc rc
 499  0128  1B80     E  	rrc rb
 499  0129  1785        	sdz acc
 499  012A  2800     R  	jmp _LI9
 499  012B  1483        	inc mp
 499  012C  3D0A        	sz z
 499  012D  1481        	inc sbp
 499  012E  0701        	mov a,sbp
 499  012F  0D00     R  	or a,bank _Show_Big_number
 499  0130  0084        	mov bp,a
 499  0131  0700     E  	mov a,rb
 499  0132  0082        	mov ir,a
 500  0133              #line 500 "f:\work\血糖仪\a_bh45f67-旧版\4g\美国客户\make_lib\v1.0.01（5000套出货)-02\g-777g-usa-bg95eseye-2022-2-20\lcd.c"
 500  0133  0FB4        	mov a,low offset _sys_Hour
 500  0134  0083        	mov mp,a
 500  0135  0F03        	mov a,high offset _sys_Hour
 500  0136  0081        	mov sbp,a
 500  0137  0701        	mov a,sbp
 500  0138  0D00     R  	or a,bank _Show_Big_number
 500  0139  0084        	mov bp,a
 500  013A  0702        	mov a,ir
 500  013B  0080     E  	mov ra,a
文件：lcd.c        编译器版本 HGASM 0202 页次43

 500  013C  1F00     E  	clr _builtin_holtek_udivmodqi4_2[3]
 500  013D  0700     E  	mov a,ra
 500  013E  0080     E  	mov _builtin_holtek_udivmodqi4_2[0],a
 500  013F  0F0A        	mov a,10
 500  0140  0080     E  	mov _builtin_holtek_udivmodqi4_2[1],a
 500  0141              	fcall _builtin_holtek_udivmodqi4
 500  0148  0700     E  	mov a,_builtin_holtek_udivmodqi4_2[0]
 500  0149  0080     R  	mov _Show_Big_number_2[5],a
 501  014A              #line 501 "f:\work\血糖仪\a_bh45f67-旧版\4g\美国客户\make_lib\v1.0.01（5000套出货)-02\g-777g-usa-bg95eseye-2022-2-20\lcd.c"
 501  014A  1080     R  	sz _Show_Big_number_2[5]
 501  014B  2800     R  	jmp _LI10
 501  014C  2800     R  	jmp _L71
 501  014D              _LI10:
 503  014D              #line 503 "f:\work\血糖仪\a_bh45f67-旧版\4g\美国客户\make_lib\v1.0.01（5000套出货)-02\g-777g-usa-bg95eseye-2022-2-20\lcd.c"
 503  014D  1700     R  	sdza _Show_Big_number_2[5]
 503  014E  2800     R  	jmp _L72
 505  014F              #line 505 "f:\work\血糖仪\a_bh45f67-旧版\4g\美国客户\make_lib\v1.0.01（5000套出货)-02\g-777g-usa-bg95eseye-2022-2-20\lcd.c"
 505  014F  0FAA        	mov a,low (offset _disp_buff+12)
 505  0150  0083        	mov mp,a
 505  0151  0F03        	mov a,high (offset _disp_buff+12)
 505  0152  0081        	mov sbp,a
 505  0153  0701        	mov a,sbp
 505  0154  0D00     R  	or a,bank _Show_Big_number
 505  0155  0084        	mov bp,a
 505  0156  0F60        	mov a,96
 505  0157  0582        	orm a,ir
 505  0158  2800     R  	jmp _L73
 505  0159              _L72:
 507  0159              #line 507 "f:\work\血糖仪\a_bh45f67-旧版\4g\美国客户\make_lib\v1.0.01（5000套出货)-02\g-777g-usa-bg95eseye-2022-2-20\lcd.c"
 507  0159  0700     R  	mov a,_Show_Big_number_2[5]
 507  015A  0A02        	sub a,2
 507  015B  390A        	snz z
 507  015C  2800     R  	jmp _L73
 509  015D              #line 509 "f:\work\血糖仪\a_bh45f67-旧版\4g\美国客户\make_lib\v1.0.01（5000套出货)-02\g-777g-usa-bg95eseye-2022-2-20\lcd.c"
 509  015D  0FAA        	mov a,low (offset _disp_buff+12)
 509  015E  0083        	mov mp,a
 509  015F  0F03        	mov a,high (offset _disp_buff+12)
 509  0160  0081        	mov sbp,a
 509  0161  0701        	mov a,sbp
 509  0162  0D00     R  	or a,bank _Show_Big_number
 509  0163  0084        	mov bp,a
 509  0164  0FC0        	mov a,-64
 509  0165  0582        	orm a,ir
 509  0166  2800     R  	jmp _L73
 509  0167              _L71:
 514  0167              #line 514 "f:\work\血糖仪\a_bh45f67-旧版\4g\美国客户\make_lib\v1.0.01（5000套出货)-02\g-777g-usa-bg95eseye-2022-2-20\lcd.c"
 514  0167  0FAA        	mov a,low (offset _disp_buff+12)
 514  0168  0083        	mov mp,a
 514  0169  0F03        	mov a,high (offset _disp_buff+12)
 514  016A  0081        	mov sbp,a
 514  016B  0701        	mov a,sbp
 514  016C  0D00     R  	or a,bank _Show_Big_number
 514  016D  0084        	mov bp,a
 514  016E  0F0F        	mov a,15
 514  016F  0682        	andm a,ir
 514  0170              _L73:
 516  0170              #line 516 "f:\work\血糖仪\a_bh45f67-旧版\4g\美国客户\make_lib\v1.0.01（5000套出货)-02\g-777g-usa-bg95eseye-2022-2-20\lcd.c"
 516  0170  0FB4        	mov a,low offset _sys_Hour
 516  0171  0083        	mov mp,a
 516  0172  0F03        	mov a,high offset _sys_Hour
文件：lcd.c        编译器版本 HGASM 0202 页次44

 516  0173  0081        	mov sbp,a
 516  0174  0701        	mov a,sbp
 516  0175  0D00     R  	or a,bank _Show_Big_number
 516  0176  0084        	mov bp,a
 516  0177  0702        	mov a,ir
 516  0178  0080     E  	mov rb,a
 516  0179  1F00     E  	clr _builtin_holtek_udivmodqi4_2[3]
 516  017A  0700     E  	mov a,rb
 516  017B  0080     E  	mov _builtin_holtek_udivmodqi4_2[0],a
 516  017C  0F0A        	mov a,10
 516  017D  0080     E  	mov _builtin_holtek_udivmodqi4_2[1],a
 516  017E              	fcall _builtin_holtek_udivmodqi4
 516  0185  0700     E  	mov a,_builtin_holtek_udivmodqi4_2[2]
 516  0186  0080     E  	mov rb,a
 517  0187              #line 517 "f:\work\血糖仪\a_bh45f67-旧版\4g\美国客户\make_lib\v1.0.01（5000套出货)-02\g-777g-usa-bg95eseye-2022-2-20\lcd.c"
 517  0187  1F00     E  	clr rc
 517  0188  340A        	clr c
 517  0189  1A80     E  	rlc rb
 517  018A  1A80     E  	rlc rc
 517  018B  0F00     R  	mov a,low offset _small_number_tab
 517  018C  0300     E  	add a,rb
 517  018D  0083        	mov mp,a
 517  018E  0F00     R  	mov a,high offset _small_number_tab
 517  018F  1300     E  	adc a,rc
 517  0190  0081        	mov sbp,a
 517  0191              	fcall _Crom2Prom
 517  0198  0080     E  	mov ra,a
 517  0199  0FAB        	mov a,low (offset _disp_buff+13)
 517  019A  0083        	mov mp,a
 517  019B  0F03        	mov a,high (offset _disp_buff+13)
 517  019C  0081        	mov sbp,a
 517  019D  0701        	mov a,sbp
 517  019E  0D00     R  	or a,bank _Show_Big_number
 517  019F  0084        	mov bp,a
 517  01A0  0700     E  	mov a,ra
 517  01A1  0082        	mov ir,a
 519  01A2              #line 519 "f:\work\血糖仪\a_bh45f67-旧版\4g\美国客户\make_lib\v1.0.01（5000套出货)-02\g-777g-usa-bg95eseye-2022-2-20\lcd.c"
 519  01A2  0FB5        	mov a,low offset _sys_Minute
 519  01A3  0083        	mov mp,a
 519  01A4  0F03        	mov a,high offset _sys_Minute
 519  01A5  0081        	mov sbp,a
 519  01A6  0701        	mov a,sbp
 519  01A7  0D00     R  	or a,bank _Show_Big_number
 519  01A8  0084        	mov bp,a
 519  01A9  0702        	mov a,ir
 519  01AA  0080     E  	mov rb,a
 519  01AB  1F00     E  	clr _builtin_holtek_udivmodqi4_2[3]
 519  01AC  0700     E  	mov a,rb
 519  01AD  0080     E  	mov _builtin_holtek_udivmodqi4_2[0],a
 519  01AE  0F0A        	mov a,10
 519  01AF  0080     E  	mov _builtin_holtek_udivmodqi4_2[1],a
 519  01B0              	fcall _builtin_holtek_udivmodqi4
 519  01B7  0700     E  	mov a,_builtin_holtek_udivmodqi4_2[0]
 519  01B8  0080     E  	mov rb,a
 520  01B9              #line 520 "f:\work\血糖仪\a_bh45f67-旧版\4g\美国客户\make_lib\v1.0.01（5000套出货)-02\g-777g-usa-bg95eseye-2022-2-20\lcd.c"
 520  01B9  1F00     E  	clr rc
 520  01BA  340A        	clr c
 520  01BB  1A80     E  	rlc rb
 520  01BC  1A80     E  	rlc rc
 520  01BD  0F00     R  	mov a,low offset _small_number_tab
文件：lcd.c        编译器版本 HGASM 0202 页次45

 520  01BE  0300     E  	add a,rb
 520  01BF  0083        	mov mp,a
 520  01C0  0F00     R  	mov a,high offset _small_number_tab
 520  01C1  1300     E  	adc a,rc
 520  01C2  0081        	mov sbp,a
 520  01C3              	fcall _Crom2Prom
 520  01CA  0080     E  	mov ra,a
 520  01CB  0FAC        	mov a,low (offset _disp_buff+14)
 520  01CC  0083        	mov mp,a
 520  01CD  0F03        	mov a,high (offset _disp_buff+14)
 520  01CE  0081        	mov sbp,a
 521  01CF              #line 521 "f:\work\血糖仪\a_bh45f67-旧版\4g\美国客户\make_lib\v1.0.01（5000套出货)-02\g-777g-usa-bg95eseye-2022-2-20\lcd.c"
 521  01CF  3000     E  	set ra.0
 521  01D0  0701        	mov a,sbp
 521  01D1  0D00     R  	or a,bank _Show_Big_number
 521  01D2  0084        	mov bp,a
 521  01D3  0700     E  	mov a,ra
 521  01D4  0082        	mov ir,a
 523  01D5              #line 523 "f:\work\血糖仪\a_bh45f67-旧版\4g\美国客户\make_lib\v1.0.01（5000套出货)-02\g-777g-usa-bg95eseye-2022-2-20\lcd.c"
 523  01D5  0FB5        	mov a,low offset _sys_Minute
 523  01D6  0083        	mov mp,a
 523  01D7  0F03        	mov a,high offset _sys_Minute
 523  01D8  0081        	mov sbp,a
 523  01D9  0701        	mov a,sbp
 523  01DA  0D00     R  	or a,bank _Show_Big_number
 523  01DB  0084        	mov bp,a
 523  01DC  0702        	mov a,ir
 523  01DD  0080     E  	mov rb,a
 523  01DE  1F00     E  	clr _builtin_holtek_udivmodqi4_2[3]
 523  01DF  0700     E  	mov a,rb
 523  01E0  0080     E  	mov _builtin_holtek_udivmodqi4_2[0],a
 523  01E1  0F0A        	mov a,10
 523  01E2  0080     E  	mov _builtin_holtek_udivmodqi4_2[1],a
 523  01E3              	fcall _builtin_holtek_udivmodqi4
 523  01EA  0700     E  	mov a,_builtin_holtek_udivmodqi4_2[2]
 523  01EB  0080     E  	mov rb,a
 523  01EC  2800     R  	jmp _L138
 523  01ED              _L65:
 530  01ED              #line 530 "f:\work\血糖仪\a_bh45f67-旧版\4g\美国客户\make_lib\v1.0.01（5000套出货)-02\g-777g-usa-bg95eseye-2022-2-20\lcd.c"
 530  01ED  0F03        	mov a,3
 530  01EE  0300     E  	add a,rb
 530  01EF  0083        	mov mp,a
 530  01F0  0F00        	mov a,0
 530  01F1  1300     E  	adc a,rc
 530  01F2  0081        	mov sbp,a
 530  01F3              	fcall _Crom2Prom
 530  01FA  0080     E  	mov rb,a
 530  01FB  1F00     E  	clr rc
 530  01FC  0F00     R  	mov a,low offset _number_tabL
 530  01FD  0300     E  	add a,rb
 530  01FE  0083        	mov mp,a
 530  01FF  0F00     R  	mov a,high offset _number_tabL
 530  0200  1300     E  	adc a,rc
 530  0201  0081        	mov sbp,a
 530  0202              	fcall _Crom2Prom
 530  0209  0080     E  	mov ra,a
 531  020A              #line 531 "f:\work\血糖仪\a_bh45f67-旧版\4g\美国客户\make_lib\v1.0.01（5000套出货)-02\g-777g-usa-bg95eseye-2022-2-20\lcd.c"
 531  020A  1100     E  	swapa ra
 531  020B  0EF0        	and a,0f0h 
 531  020C  0080     E  	mov ra,a
文件：lcd.c        编译器版本 HGASM 0202 页次46

 532  020D              #line 532 "f:\work\血糖仪\a_bh45f67-旧版\4g\美国客户\make_lib\v1.0.01（5000套出货)-02\g-777g-usa-bg95eseye-2022-2-20\lcd.c"
 532  020D  0F00     R  	mov a,low offset _number_tabR
 532  020E  0300     E  	add a,rb
 532  020F  0083        	mov mp,a
 532  0210  0F00     R  	mov a,high offset _number_tabR
 532  0211  1300     E  	adc a,rc
 532  0212  0081        	mov sbp,a
 532  0213              	fcall _Crom2Prom
 532  021A  0080     E  	mov rb,a
 532  021B  0700     E  	mov a,rb
 532  021C  0580     E  	orm a,ra
 533  021D              #line 533 "f:\work\血糖仪\a_bh45f67-旧版\4g\美国客户\make_lib\v1.0.01（5000套出货)-02\g-777g-usa-bg95eseye-2022-2-20\lcd.c"
 533  021D  0F9E        	mov a,low offset _disp_buff
 533  021E  0083        	mov mp,a
 533  021F  0F03        	mov a,high offset _disp_buff
 533  0220  0081        	mov sbp,a
 533  0221  0701        	mov a,sbp
 533  0222  0D00     R  	or a,bank _Show_Big_number
 533  0223  0084        	mov bp,a
 533  0224  0702        	mov a,ir
 533  0225  0080     R  	mov _Show_Big_number_2[5],a
 533  0226  0700     E  	mov a,ra
 533  0227  0080     E  	mov rb,a
 533  0228  1100     E  	swapa rb
 533  0229  0EF0        	and a,0f0h 
 533  022A  0080     E  	mov rb,a
 533  022B  0700     R  	mov a,_Show_Big_number_2[5]
 533  022C  0580     E  	orm a,rb
 533  022D  0701        	mov a,sbp
 533  022E  0D00     R  	or a,bank _Show_Big_number
 533  022F  0084        	mov bp,a
 533  0230  0700     E  	mov a,rb
 533  0231  0082        	mov ir,a
 534  0232              #line 534 "f:\work\血糖仪\a_bh45f67-旧版\4g\美国客户\make_lib\v1.0.01（5000套出货)-02\g-777g-usa-bg95eseye-2022-2-20\lcd.c"
 534  0232  1483        	inc mp
 534  0233  3D0A        	sz z
 534  0234  1481        	inc sbp
 534  0235  0701        	mov a,sbp
 534  0236  0D00     R  	or a,bank _Show_Big_number
 534  0237  0084        	mov bp,a
 534  0238  0702        	mov a,ir
 534  0239  0080     R  	mov _Show_Big_number_2[5],a
 534  023A  1100     E  	swapa ra
 534  023B  0E0F        	and a,0fh
 534  023C  0080     E  	mov ra,a
 534  023D  0700     R  	mov a,_Show_Big_number_2[5]
 534  023E  0580     E  	orm a,ra
 534  023F  0701        	mov a,sbp
 534  0240  0D00     R  	or a,bank _Show_Big_number
 534  0241  0084        	mov bp,a
 534  0242  0700     E  	mov a,ra
 534  0243  0082        	mov ir,a
 530  0244              #line 530 "f:\work\血糖仪\a_bh45f67-旧版\4g\美国客户\make_lib\v1.0.01（5000套出货)-02\g-777g-usa-bg95eseye-2022-2-20\lcd.c"
 530  0244  0F04        	mov a,4
 530  0245  0300     R  	add a,_Show_Big_number_2[0]
 530  0246  0083        	mov mp,a
 530  0247  0F00        	mov a,0
 530  0248  1300     R  	adc a,_Show_Big_number_2[1]
 530  0249  0081        	mov sbp,a
 530  024A              	fcall _Crom2Prom
文件：lcd.c        编译器版本 HGASM 0202 页次47

 530  0251  0080     E  	mov rb,a
 530  0252  1F00     E  	clr rc
 530  0253  0F00     R  	mov a,low offset _number_tabL
 530  0254  0300     E  	add a,rb
 530  0255  0083        	mov mp,a
 530  0256  0F00     R  	mov a,high offset _number_tabL
 530  0257  1300     E  	adc a,rc
 530  0258  0081        	mov sbp,a
 530  0259              	fcall _Crom2Prom
 530  0260  0080     E  	mov ra,a
 531  0261              #line 531 "f:\work\血糖仪\a_bh45f67-旧版\4g\美国客户\make_lib\v1.0.01（5000套出货)-02\g-777g-usa-bg95eseye-2022-2-20\lcd.c"
 531  0261  1100     E  	swapa ra
 531  0262  0EF0        	and a,0f0h 
 531  0263  0080     E  	mov ra,a
 532  0264              #line 532 "f:\work\血糖仪\a_bh45f67-旧版\4g\美国客户\make_lib\v1.0.01（5000套出货)-02\g-777g-usa-bg95eseye-2022-2-20\lcd.c"
 532  0264  0F00     R  	mov a,low offset _number_tabR
 532  0265  0300     E  	add a,rb
 532  0266  0083        	mov mp,a
 532  0267  0F00     R  	mov a,high offset _number_tabR
 532  0268  1300     E  	adc a,rc
 532  0269  0081        	mov sbp,a
 532  026A              	fcall _Crom2Prom
 532  0271  0080     E  	mov rb,a
 532  0272  0700     E  	mov a,rb
 532  0273  0580     E  	orm a,ra
 533  0274              #line 533 "f:\work\血糖仪\a_bh45f67-旧版\4g\美国客户\make_lib\v1.0.01（5000套出货)-02\g-777g-usa-bg95eseye-2022-2-20\lcd.c"
 533  0274  0F9F        	mov a,low (offset _disp_buff+1)
 533  0275  0083        	mov mp,a
 533  0276  0F03        	mov a,high (offset _disp_buff+1)
 533  0277  0081        	mov sbp,a
 533  0278  0701        	mov a,sbp
 533  0279  0D00     R  	or a,bank _Show_Big_number
 533  027A  0084        	mov bp,a
 533  027B  0702        	mov a,ir
 533  027C  0080     R  	mov _Show_Big_number_2[5],a
 533  027D  0700     E  	mov a,ra
 533  027E  0080     E  	mov rb,a
 533  027F  1100     E  	swapa rb
 533  0280  0EF0        	and a,0f0h 
 533  0281  0080     E  	mov rb,a
 533  0282  0700     R  	mov a,_Show_Big_number_2[5]
 533  0283  0580     E  	orm a,rb
 533  0284  0701        	mov a,sbp
 533  0285  0D00     R  	or a,bank _Show_Big_number
 533  0286  0084        	mov bp,a
 533  0287  0700     E  	mov a,rb
 533  0288  0082        	mov ir,a
 534  0289              #line 534 "f:\work\血糖仪\a_bh45f67-旧版\4g\美国客户\make_lib\v1.0.01（5000套出货)-02\g-777g-usa-bg95eseye-2022-2-20\lcd.c"
 534  0289  1483        	inc mp
 534  028A  3D0A        	sz z
 534  028B  1481        	inc sbp
 534  028C  0701        	mov a,sbp
 534  028D  0D00     R  	or a,bank _Show_Big_number
 534  028E  0084        	mov bp,a
 534  028F  0702        	mov a,ir
 534  0290  0080     R  	mov _Show_Big_number_2[5],a
 534  0291  1100     E  	swapa ra
 534  0292  0E0F        	and a,0fh
 534  0293  0080     E  	mov ra,a
 534  0294  0700     R  	mov a,_Show_Big_number_2[5]
文件：lcd.c        编译器版本 HGASM 0202 页次48

 534  0295  0580     E  	orm a,ra
 534  0296  0701        	mov a,sbp
 534  0297  0D00     R  	or a,bank _Show_Big_number
 534  0298  0084        	mov bp,a
 534  0299  0700     E  	mov a,ra
 534  029A  0082        	mov ir,a
 536  029B              #line 536 "f:\work\血糖仪\a_bh45f67-旧版\4g\美国客户\make_lib\v1.0.01（5000套出货)-02\g-777g-usa-bg95eseye-2022-2-20\lcd.c"
 536  029B  0F05        	mov a,5
 536  029C  0300     R  	add a,_Show_Big_number_2[0]
 536  029D  0083        	mov mp,a
 536  029E  0F00        	mov a,0
 536  029F  1300     R  	adc a,_Show_Big_number_2[1]
 536  02A0  0081        	mov sbp,a
 536  02A1              	fcall _Crom2Prom
 536  02A8  0080     E  	mov rb,a
 536  02A9  1F00     E  	clr rc
 536  02AA  0F00     R  	mov a,low offset _number_tabM
 536  02AB  0300     E  	add a,rb
 536  02AC  0083        	mov mp,a
 536  02AD  0F00     R  	mov a,high offset _number_tabM
 536  02AE  1300     E  	adc a,rc
 536  02AF  0081        	mov sbp,a
 536  02B0              	fcall _Crom2Prom
 536  02B7  0080     E  	mov ra,a
 537  02B8              #line 537 "f:\work\血糖仪\a_bh45f67-旧版\4g\美国客户\make_lib\v1.0.01（5000套出货)-02\g-777g-usa-bg95eseye-2022-2-20\lcd.c"
 537  02B8  1100     E  	swapa ra
 537  02B9  0EF0        	and a,0f0h 
 537  02BA  0080     E  	mov ra,a
 538  02BB              #line 538 "f:\work\血糖仪\a_bh45f67-旧版\4g\美国客户\make_lib\v1.0.01（5000套出货)-02\g-777g-usa-bg95eseye-2022-2-20\lcd.c"
 538  02BB  0F00     R  	mov a,low offset _number_tabR2
 538  02BC  0300     E  	add a,rb
 538  02BD  0083        	mov mp,a
 538  02BE  0F00     R  	mov a,high offset _number_tabR2
 538  02BF  1300     E  	adc a,rc
 538  02C0  0081        	mov sbp,a
 538  02C1              	fcall _Crom2Prom
 538  02C8  0080     E  	mov rd,a
 538  02C9  0700     E  	mov a,rd
 538  02CA  0580     E  	orm a,ra
 539  02CB              #line 539 "f:\work\血糖仪\a_bh45f67-旧版\4g\美国客户\make_lib\v1.0.01（5000套出货)-02\g-777g-usa-bg95eseye-2022-2-20\lcd.c"
 539  02CB  0FA0        	mov a,low (offset _disp_buff+2)
 539  02CC  0083        	mov mp,a
 539  02CD  0F03        	mov a,high (offset _disp_buff+2)
 539  02CE  0081        	mov sbp,a
 539  02CF  0701        	mov a,sbp
 539  02D0  0D00     R  	or a,bank _Show_Big_number
 539  02D1  0084        	mov bp,a
 539  02D2  0702        	mov a,ir
 539  02D3  0080     R  	mov _Show_Big_number_2[5],a
 539  02D4  0700     E  	mov a,ra
 539  02D5  0080     E  	mov rd,a
 539  02D6  1100     E  	swapa rd
 539  02D7  0EF0        	and a,0f0h 
 539  02D8  0080     E  	mov rd,a
 539  02D9  0700     R  	mov a,_Show_Big_number_2[5]
 539  02DA  0580     E  	orm a,rd
 539  02DB  0701        	mov a,sbp
 539  02DC  0D00     R  	or a,bank _Show_Big_number
 539  02DD  0084        	mov bp,a
 539  02DE  0700     E  	mov a,rd
文件：lcd.c        编译器版本 HGASM 0202 页次49

 539  02DF  0082        	mov ir,a
 541  02E0              #line 541 "f:\work\血糖仪\a_bh45f67-旧版\4g\美国客户\make_lib\v1.0.01（5000套出货)-02\g-777g-usa-bg95eseye-2022-2-20\lcd.c"
 541  02E0  1483        	inc mp
 541  02E1  3D0A        	sz z
 541  02E2  1481        	inc sbp
 541  02E3  0701        	mov a,sbp
 541  02E4  0D00     R  	or a,bank _Show_Big_number
 541  02E5  0084        	mov bp,a
 541  02E6  0702        	mov a,ir
 541  02E7  0080     E  	mov rd,a
 541  02E8  1100     E  	swapa ra
 541  02E9  0E0F        	and a,0fh
 541  02EA  0080     E  	mov re,a
 542  02EB              #line 542 "f:\work\血糖仪\a_bh45f67-旧版\4g\美国客户\make_lib\v1.0.01（5000套出货)-02\g-777g-usa-bg95eseye-2022-2-20\lcd.c"
 542  02EB  0F00     R  	mov a,low offset _number_tabL2
 542  02EC  0300     E  	add a,rb
 542  02ED  0083        	mov mp,a
 542  02EE  0F00     R  	mov a,high offset _number_tabL2
 542  02EF  1300     E  	adc a,rc
 542  02F0  0081        	mov sbp,a
 542  02F1              	fcall _Crom2Prom
 542  02F8  0080     E  	mov ra,a
 544  02F9              #line 544 "f:\work\血糖仪\a_bh45f67-旧版\4g\美国客户\make_lib\v1.0.01（5000套出货)-02\g-777g-usa-bg95eseye-2022-2-20\lcd.c"
 544  02F9  0FA1        	mov a,low (offset _disp_buff+3)
 544  02FA  0083        	mov mp,a
 544  02FB  0F03        	mov a,high (offset _disp_buff+3)
 544  02FC  0081        	mov sbp,a
 544  02FD  0700     E  	mov a,re
 544  02FE  0500     E  	or a,rd
 544  02FF  0080     E  	mov rb,a
 543  0300              #line 543 "f:\work\血糖仪\a_bh45f67-旧版\4g\美国客户\make_lib\v1.0.01（5000套出货)-02\g-777g-usa-bg95eseye-2022-2-20\lcd.c"
 543  0300  1100     E  	swapa ra
 543  0301  0EF0        	and a,0f0h 
 543  0302  0080     E  	mov ra,a
 544  0303              #line 544 "f:\work\血糖仪\a_bh45f67-旧版\4g\美国客户\make_lib\v1.0.01（5000套出货)-02\g-777g-usa-bg95eseye-2022-2-20\lcd.c"
 544  0303  0700     E  	mov a,rb
 544  0304  0580     E  	orm a,ra
 544  0305  0701        	mov a,sbp
 544  0306  0D00     R  	or a,bank _Show_Big_number
 544  0307  0084        	mov bp,a
 544  0308  0700     E  	mov a,ra
 544  0309  0082        	mov ir,a
 546  030A              #line 546 "f:\work\血糖仪\a_bh45f67-旧版\4g\美国客户\make_lib\v1.0.01（5000套出货)-02\g-777g-usa-bg95eseye-2022-2-20\lcd.c"
 546  030A  0700     R  	mov a,_Show_Big_number_2[0]
 546  030B  0083        	mov mp,a
 546  030C  0700     R  	mov a,_Show_Big_number_2[1]
 546  030D  0081        	mov sbp,a
 546  030E              	fcall _Crom2Prom
 546  0315  0080     E  	mov rb,a
 546  0316  1F00     E  	clr rc
 546  0317  340A        	clr c
 546  0318  1A80     E  	rlc rb
 546  0319  1A80     E  	rlc rc
 546  031A  0F00     R  	mov a,low offset _small_number_tab
 546  031B  0300     E  	add a,rb
 546  031C  0083        	mov mp,a
 546  031D  0F00     R  	mov a,high offset _small_number_tab
 546  031E  1300     E  	adc a,rc
 546  031F  0081        	mov sbp,a
 546  0320              	fcall _Crom2Prom
文件：lcd.c        编译器版本 HGASM 0202 页次50

 546  0327  0080     E  	mov ra,a
 546  0328  0FAB        	mov a,low (offset _disp_buff+13)
 546  0329  0083        	mov mp,a
 546  032A  0F03        	mov a,high (offset _disp_buff+13)
 546  032B  0081        	mov sbp,a
 546  032C  0701        	mov a,sbp
 546  032D  0D00     R  	or a,bank _Show_Big_number
 546  032E  0084        	mov bp,a
 546  032F  0700     E  	mov a,ra
 546  0330  0082        	mov ir,a
 547  0331              #line 547 "f:\work\血糖仪\a_bh45f67-旧版\4g\美国客户\make_lib\v1.0.01（5000套出货)-02\g-777g-usa-bg95eseye-2022-2-20\lcd.c"
 547  0331  0F01        	mov a,1
 547  0332  0300     R  	add a,_Show_Big_number_2[0]
 547  0333  0083        	mov mp,a
 547  0334  0F00        	mov a,0
 547  0335  1300     R  	adc a,_Show_Big_number_2[1]
 547  0336  0081        	mov sbp,a
 547  0337              	fcall _Crom2Prom
 547  033E  0080     E  	mov rb,a
 547  033F  1F00     E  	clr rc
 547  0340  340A        	clr c
 547  0341  1A80     E  	rlc rb
 547  0342  1A80     E  	rlc rc
 547  0343  0F00     R  	mov a,low offset _small_number_tab
 547  0344  0300     E  	add a,rb
 547  0345  0083        	mov mp,a
 547  0346  0F00     R  	mov a,high offset _small_number_tab
 547  0347  1300     E  	adc a,rc
 547  0348  0081        	mov sbp,a
 547  0349              	fcall _Crom2Prom
 547  0350  0080     E  	mov ra,a
 547  0351  0FAC        	mov a,low (offset _disp_buff+14)
 547  0352  0083        	mov mp,a
 547  0353  0F03        	mov a,high (offset _disp_buff+14)
 547  0354  0081        	mov sbp,a
 547  0355  0701        	mov a,sbp
 547  0356  0D00     R  	or a,bank _Show_Big_number
 547  0357  0084        	mov bp,a
 547  0358  0700     E  	mov a,ra
 547  0359  0082        	mov ir,a
 548  035A              #line 548 "f:\work\血糖仪\a_bh45f67-旧版\4g\美国客户\make_lib\v1.0.01（5000套出货)-02\g-777g-usa-bg95eseye-2022-2-20\lcd.c"
 548  035A  0F02        	mov a,2
 548  035B  0300     R  	add a,_Show_Big_number_2[0]
 548  035C  0083        	mov mp,a
 548  035D  0F00        	mov a,0
 548  035E  1300     R  	adc a,_Show_Big_number_2[1]
 548  035F  0081        	mov sbp,a
 548  0360              	fcall _Crom2Prom
 548  0367  0080     E  	mov rb,a
 548  0368              _L138:
 548  0368  1F00     E  	clr rc
 548  0369  340A        	clr c
 548  036A  1A80     E  	rlc rb
 548  036B  1A80     E  	rlc rc
 548  036C  0F00     R  	mov a,low offset _small_number_tab
 548  036D  0300     E  	add a,rb
 548  036E  0083        	mov mp,a
 548  036F  0F00     R  	mov a,high offset _small_number_tab
 548  0370  1300     E  	adc a,rc
 548  0371  0081        	mov sbp,a
文件：lcd.c        编译器版本 HGASM 0202 页次51

 548  0372              	fcall _Crom2Prom
 548  0379  0080     E  	mov ra,a
 548  037A  0FAD        	mov a,low (offset _disp_buff+15)
 548  037B  0083        	mov mp,a
 548  037C  0F03        	mov a,high (offset _disp_buff+15)
 548  037D  0081        	mov sbp,a
 548  037E  0701        	mov a,sbp
 548  037F  0D00     R  	or a,bank _Show_Big_number
 548  0380  0084        	mov bp,a
 548  0381  0700     E  	mov a,ra
 548  0382  0082        	mov ir,a
 550  0383              #line 550 "f:\work\血糖仪\a_bh45f67-旧版\4g\美国客户\make_lib\v1.0.01（5000套出货)-02\g-777g-usa-bg95eseye-2022-2-20\lcd.c"
 550  0383  0F80        	mov a,low offset _SystemFlags
 550  0384  0083        	mov mp,a
 550  0385  0F03        	mov a,high offset _SystemFlags
 550  0386  0081        	mov sbp,a
 550  0387  0701        	mov a,sbp
 550  0388  0D00     R  	or a,bank _Show_Big_number
 550  0389  0084        	mov bp,a
 550  038A  0702        	mov a,ir
 550  038B  0080     E  	mov ra,a
 550  038C  3800     E  	snz ra.4
 550  038D  2800     R  	jmp _L75
 552  038E              #line 552 "f:\work\血糖仪\a_bh45f67-旧版\4g\美国客户\make_lib\v1.0.01（5000套出货)-02\g-777g-usa-bg95eseye-2022-2-20\lcd.c"
 552  038E  0F90        	mov a,low (offset _flash+2)
 552  038F  0083        	mov mp,a
 552  0390  0F03        	mov a,high (offset _flash+2)
 552  0391  0081        	mov sbp,a
 552  0392  0701        	mov a,sbp
 552  0393  0D00     R  	or a,bank _Show_Big_number
 552  0394  0084        	mov bp,a
 552  0395  3782        	clr ir.7
 553  0396              #line 553 "f:\work\血糖仪\a_bh45f67-旧版\4g\美国客户\make_lib\v1.0.01（5000套出货)-02\g-777g-usa-bg95eseye-2022-2-20\lcd.c"
 553  0396  0FA0        	mov a,low (offset _disp_buff+2)
 553  0397  0083        	mov mp,a
 553  0398  0F03        	mov a,high (offset _disp_buff+2)
 553  0399  0081        	mov sbp,a
 553  039A  0701        	mov a,sbp
 553  039B  0D00     R  	or a,bank _Show_Big_number
 553  039C  0084        	mov bp,a
 553  039D  3382        	set ir.7
 553  039E              _L75:
 555  039E              #line 555 "f:\work\血糖仪\a_bh45f67-旧版\4g\美国客户\make_lib\v1.0.01（5000套出货)-02\g-777g-usa-bg95eseye-2022-2-20\lcd.c"
 555  039E  0F81        	mov a,low (offset _SystemFlags+1)
 555  039F  0083        	mov mp,a
 555  03A0  0F03        	mov a,high (offset _SystemFlags+1)
 555  03A1  0081        	mov sbp,a
 555  03A2  0701        	mov a,sbp
 555  03A3  0D00     R  	or a,bank _Show_Big_number
 555  03A4  0084        	mov bp,a
 555  03A5  0702        	mov a,ir
 555  03A6  0080     E  	mov ra,a
 555  03A7  3800     E  	snz ra.4
 555  03A8  2800     R  	jmp _L76
 557  03A9              #line 557 "f:\work\血糖仪\a_bh45f67-旧版\4g\美国客户\make_lib\v1.0.01（5000套出货)-02\g-777g-usa-bg95eseye-2022-2-20\lcd.c"
 557  03A9  0F9F        	mov a,low (offset _disp_buff+1)
 557  03AA  0083        	mov mp,a
 557  03AB  0F03        	mov a,high (offset _disp_buff+1)
 557  03AC  0081        	mov sbp,a
 557  03AD  0701        	mov a,sbp
文件：lcd.c        编译器版本 HGASM 0202 页次52

 557  03AE  0D00     R  	or a,bank _Show_Big_number
 557  03AF  0084        	mov bp,a
 557  03B0  3382        	set ir.7
 557  03B1              _L76:
 560  03B1              #line 560 "f:\work\血糖仪\a_bh45f67-旧版\4g\美国客户\make_lib\v1.0.01（5000套出货)-02\g-777g-usa-bg95eseye-2022-2-20\lcd.c"
 560  03B1  0FA2        	mov a,low (offset _disp_buff+4)
 560  03B2  0083        	mov mp,a
 560  03B3  0F03        	mov a,high (offset _disp_buff+4)
 560  03B4  0081        	mov sbp,a
 560  03B5  0701        	mov a,sbp
 560  03B6  0D00     R  	or a,bank _Show_Big_number
 560  03B7  0084        	mov bp,a
 560  03B8  3182        	set ir.3
 560  03B9  2800     R  	jmp _L77
 560  03BA              _L64:
 563  03BA              #line 563 "f:\work\血糖仪\a_bh45f67-旧版\4g\美国客户\make_lib\v1.0.01（5000套出货)-02\g-777g-usa-bg95eseye-2022-2-20\lcd.c"
 563  03BA  1700     R  	sdza _Show_Big_number_2[4]
 563  03BB  2800     R  	jmp _L78
 565  03BC              #line 565 "f:\work\血糖仪\a_bh45f67-旧版\4g\美国客户\make_lib\v1.0.01（5000套出货)-02\g-777g-usa-bg95eseye-2022-2-20\lcd.c"
 565  03BC  0F9E        	mov a,low offset _disp_buff
 565  03BD  0083        	mov mp,a
 565  03BE  0F03        	mov a,high offset _disp_buff
 565  03BF  0081        	mov sbp,a
 565  03C0  0701        	mov a,sbp
 565  03C1  0D00     R  	or a,bank _Show_Big_number
 565  03C2  0084        	mov bp,a
 565  03C3  0F00        	mov a,0
 565  03C4  0082        	mov ir,a
 566  03C5              #line 566 "f:\work\血糖仪\a_bh45f67-旧版\4g\美国客户\make_lib\v1.0.01（5000套出货)-02\g-777g-usa-bg95eseye-2022-2-20\lcd.c"
 566  03C5  1483        	inc mp
 566  03C6  3D0A        	sz z
 566  03C7  1481        	inc sbp
 566  03C8  0701        	mov a,sbp
 566  03C9  0D00     R  	or a,bank _Show_Big_number
 566  03CA  0084        	mov bp,a
 566  03CB  0F00        	mov a,0
 566  03CC  0082        	mov ir,a
 567  03CD              #line 567 "f:\work\血糖仪\a_bh45f67-旧版\4g\美国客户\make_lib\v1.0.01（5000套出货)-02\g-777g-usa-bg95eseye-2022-2-20\lcd.c"
 567  03CD  1483        	inc mp
 567  03CE  3D0A        	sz z
 567  03CF  1481        	inc sbp
 567  03D0  0701        	mov a,sbp
 567  03D1  0D00     R  	or a,bank _Show_Big_number
 567  03D2  0084        	mov bp,a
 567  03D3  0F00        	mov a,0
 567  03D4  0082        	mov ir,a
 568  03D5              #line 568 "f:\work\血糖仪\a_bh45f67-旧版\4g\美国客户\make_lib\v1.0.01（5000套出货)-02\g-777g-usa-bg95eseye-2022-2-20\lcd.c"
 568  03D5  1F00     E  	clr _builtin_holtek_udivmodhi4_2[6]
 568  03D6  0700     R  	mov a,_Show_Big_number_2[2]  
 568  03D7  0080     E  	mov _builtin_holtek_udivmodhi4_2[0],a  
 568  03D8  0700     R  	mov a,_Show_Big_number_2[3]  
 568  03D9  0080     E  	mov _builtin_holtek_udivmodhi4_2[1],a
 568  03DA  0F64        	mov a,100  
 568  03DB  0080     E  	mov _builtin_holtek_udivmodhi4_2[2],a  
 568  03DC  1F00     E  	clr _builtin_holtek_udivmodhi4_2[3]
 568  03DD              	fcall _builtin_holtek_udivmodhi4
 568  03E4  0700     E  	mov a,_builtin_holtek_udivmodhi4_2[0]  
 568  03E5  0080     E  	mov rb,a  
 568  03E6  0700     E  	mov a,_builtin_holtek_udivmodhi4_2[1]  
 568  03E7  0080     E  	mov rc,a
文件：lcd.c        编译器版本 HGASM 0202 页次53

 569  03E8              #line 569 "f:\work\血糖仪\a_bh45f67-旧版\4g\美国客户\make_lib\v1.0.01（5000套出货)-02\g-777g-usa-bg95eseye-2022-2-20\lcd.c"
 569  03E8  1080     E  	sz rb
 569  03E9  2800     R  	jmp _LI11
 569  03EA  2800     R  	jmp _L79
 569  03EB              _LI11:
 569  03EB  0FFF        	mov a,255  
 569  03EC  0680     E  	andm a,rb  
 569  03ED  0F00        	mov a,0  
 569  03EE  0680     E  	andm a,rc
 571  03EF              #line 571 "f:\work\血糖仪\a_bh45f67-旧版\4g\美国客户\make_lib\v1.0.01（5000套出货)-02\g-777g-usa-bg95eseye-2022-2-20\lcd.c"
 571  03EF  0F00     R  	mov a,low offset _number_tabL
 571  03F0  0300     E  	add a,rb
 571  03F1  0083        	mov mp,a
 571  03F2  0F00     R  	mov a,high offset _number_tabL
 571  03F3  1300     E  	adc a,rc
 571  03F4  0081        	mov sbp,a
 571  03F5              	fcall _Crom2Prom
 571  03FC  0080     E  	mov ra,a
 572  03FD              #line 572 "f:\work\血糖仪\a_bh45f67-旧版\4g\美国客户\make_lib\v1.0.01（5000套出货)-02\g-777g-usa-bg95eseye-2022-2-20\lcd.c"
 572  03FD  1100     E  	swapa ra
 572  03FE  0EF0        	and a,0f0h 
 572  03FF  0080     E  	mov ra,a
 573  0400              #line 573 "f:\work\血糖仪\a_bh45f67-旧版\4g\美国客户\make_lib\v1.0.01（5000套出货)-02\g-777g-usa-bg95eseye-2022-2-20\lcd.c"
 573  0400  0F00     R  	mov a,low offset _number_tabR
 573  0401  0300     E  	add a,rb
 573  0402  0083        	mov mp,a
 573  0403  0F00     R  	mov a,high offset _number_tabR
 573  0404  1300     E  	adc a,rc
 573  0405  0081        	mov sbp,a
 573  0406              	fcall _Crom2Prom
 573  040D  0080     E  	mov rb,a
 573  040E  0700     E  	mov a,rb
 573  040F  0580     E  	orm a,ra
 574  0410              #line 574 "f:\work\血糖仪\a_bh45f67-旧版\4g\美国客户\make_lib\v1.0.01（5000套出货)-02\g-777g-usa-bg95eseye-2022-2-20\lcd.c"
 574  0410  0F9E        	mov a,low offset _disp_buff
 574  0411  0083        	mov mp,a
 574  0412  0F03        	mov a,high offset _disp_buff
 574  0413  0081        	mov sbp,a
 574  0414  0701        	mov a,sbp
 574  0415  0D00     R  	or a,bank _Show_Big_number
 574  0416  0084        	mov bp,a
 574  0417  0702        	mov a,ir
 574  0418  0080     R  	mov _Show_Big_number_2[5],a
 574  0419  0700     E  	mov a,ra
 574  041A  0080     E  	mov rb,a
 574  041B  1100     E  	swapa rb
 574  041C  0EF0        	and a,0f0h 
 574  041D  0080     E  	mov rb,a
 574  041E  0700     R  	mov a,_Show_Big_number_2[5]
 574  041F  0580     E  	orm a,rb
 574  0420  0701        	mov a,sbp
 574  0421  0D00     R  	or a,bank _Show_Big_number
 574  0422  0084        	mov bp,a
 574  0423  0700     E  	mov a,rb
 574  0424  0082        	mov ir,a
 575  0425              #line 575 "f:\work\血糖仪\a_bh45f67-旧版\4g\美国客户\make_lib\v1.0.01（5000套出货)-02\g-777g-usa-bg95eseye-2022-2-20\lcd.c"
 575  0425  1483        	inc mp
 575  0426  3D0A        	sz z
 575  0427  1481        	inc sbp
 575  0428  0701        	mov a,sbp
文件：lcd.c        编译器版本 HGASM 0202 页次54

 575  0429  0D00     R  	or a,bank _Show_Big_number
 575  042A  0084        	mov bp,a
 575  042B  0702        	mov a,ir
 575  042C  0080     R  	mov _Show_Big_number_2[5],a
 575  042D  1100     E  	swapa ra
 575  042E  0E0F        	and a,0fh
 575  042F  0080     E  	mov ra,a
 575  0430  0700     R  	mov a,_Show_Big_number_2[5]
 575  0431  0580     E  	orm a,ra
 575  0432  0701        	mov a,sbp
 575  0433  0D00     R  	or a,bank _Show_Big_number
 575  0434  0084        	mov bp,a
 575  0435  0700     E  	mov a,ra
 575  0436  0082        	mov ir,a
 575  0437              _L79:
 577  0437              #line 577 "f:\work\血糖仪\a_bh45f67-旧版\4g\美国客户\make_lib\v1.0.01（5000套出货)-02\g-777g-usa-bg95eseye-2022-2-20\lcd.c"
 577  0437  1F00     E  	clr _builtin_holtek_udivmodhi4_2[6]
 577  0438  0700     R  	mov a,_Show_Big_number_2[2]  
 577  0439  0080     E  	mov _builtin_holtek_udivmodhi4_2[0],a  
 577  043A  0700     R  	mov a,_Show_Big_number_2[3]  
 577  043B  0080     E  	mov _builtin_holtek_udivmodhi4_2[1],a
 577  043C  0F64        	mov a,100  
 577  043D  0080     E  	mov _builtin_holtek_udivmodhi4_2[2],a  
 577  043E  1F00     E  	clr _builtin_holtek_udivmodhi4_2[3]
 577  043F              	fcall _builtin_holtek_udivmodhi4
 577  0446  0700     E  	mov a,_builtin_holtek_udivmodhi4_2[4]  
 577  0447  0080     E  	mov rb,a  
 577  0448  0700     E  	mov a,_builtin_holtek_udivmodhi4_2[5]  
 577  0449  0080     E  	mov rc,a
 577  044A  1F00     E  	clr _builtin_holtek_udivmodhi4_2[6]
 577  044B  0700     E  	mov a,rb  
 577  044C  0080     E  	mov _builtin_holtek_udivmodhi4_2[0],a  
 577  044D  0700     E  	mov a,rc  
 577  044E  0080     E  	mov _builtin_holtek_udivmodhi4_2[1],a
 577  044F  0F0A        	mov a,10  
 577  0450  0080     E  	mov _builtin_holtek_udivmodhi4_2[2],a  
 577  0451  1F00     E  	clr _builtin_holtek_udivmodhi4_2[3]
 577  0452              	fcall _builtin_holtek_udivmodhi4
 577  0459  0700     E  	mov a,_builtin_holtek_udivmodhi4_2[0]  
 577  045A  0080     E  	mov rb,a  
 577  045B  0700     E  	mov a,_builtin_holtek_udivmodhi4_2[1]  
 577  045C  0080     E  	mov rc,a
 578  045D              #line 578 "f:\work\血糖仪\a_bh45f67-旧版\4g\美国客户\make_lib\v1.0.01（5000套出货)-02\g-777g-usa-bg95eseye-2022-2-20\lcd.c"
 578  045D  0F00     R  	mov a,low offset _number_tabL
 578  045E  0300     E  	add a,rb
 578  045F  0083        	mov mp,a
 578  0460  0F00     R  	mov a,high offset _number_tabL
 578  0461  1300     E  	adc a,rc
 578  0462  0081        	mov sbp,a
 578  0463              	fcall _Crom2Prom
 578  046A  0080     E  	mov ra,a
 579  046B              #line 579 "f:\work\血糖仪\a_bh45f67-旧版\4g\美国客户\make_lib\v1.0.01（5000套出货)-02\g-777g-usa-bg95eseye-2022-2-20\lcd.c"
 579  046B  1100     E  	swapa ra
 579  046C  0EF0        	and a,0f0h 
 579  046D  0080     E  	mov ra,a
 580  046E              #line 580 "f:\work\血糖仪\a_bh45f67-旧版\4g\美国客户\make_lib\v1.0.01（5000套出货)-02\g-777g-usa-bg95eseye-2022-2-20\lcd.c"
 580  046E  0F00     R  	mov a,low offset _number_tabR
 580  046F  0300     E  	add a,rb
 580  0470  0083        	mov mp,a
 580  0471  0F00     R  	mov a,high offset _number_tabR
文件：lcd.c        编译器版本 HGASM 0202 页次55

 580  0472  1300     E  	adc a,rc
 580  0473  0081        	mov sbp,a
 580  0474              	fcall _Crom2Prom
 580  047B  0080     E  	mov rb,a
 580  047C  0700     E  	mov a,rb
 580  047D  0580     E  	orm a,ra
 581  047E              #line 581 "f:\work\血糖仪\a_bh45f67-旧版\4g\美国客户\make_lib\v1.0.01（5000套出货)-02\g-777g-usa-bg95eseye-2022-2-20\lcd.c"
 581  047E  0F9F        	mov a,low (offset _disp_buff+1)
 581  047F  0083        	mov mp,a
 581  0480  0F03        	mov a,high (offset _disp_buff+1)
 581  0481  0081        	mov sbp,a
 581  0482  0701        	mov a,sbp
 581  0483  0D00     R  	or a,bank _Show_Big_number
 581  0484  0084        	mov bp,a
 581  0485  0702        	mov a,ir
 581  0486  0080     R  	mov _Show_Big_number_2[5],a
 581  0487  0700     E  	mov a,ra
 581  0488  0080     E  	mov rb,a
 581  0489  1100     E  	swapa rb
 581  048A  0EF0        	and a,0f0h 
 581  048B  0080     E  	mov rb,a
 581  048C  0700     R  	mov a,_Show_Big_number_2[5]
 581  048D  0580     E  	orm a,rb
 581  048E  0701        	mov a,sbp
 581  048F  0D00     R  	or a,bank _Show_Big_number
 581  0490  0084        	mov bp,a
 581  0491  0700     E  	mov a,rb
 581  0492  0082        	mov ir,a
 582  0493              #line 582 "f:\work\血糖仪\a_bh45f67-旧版\4g\美国客户\make_lib\v1.0.01（5000套出货)-02\g-777g-usa-bg95eseye-2022-2-20\lcd.c"
 582  0493  1483        	inc mp
 582  0494  3D0A        	sz z
 582  0495  1481        	inc sbp
 582  0496  0701        	mov a,sbp
 582  0497  0D00     R  	or a,bank _Show_Big_number
 582  0498  0084        	mov bp,a
 582  0499  0702        	mov a,ir
 582  049A  0080     R  	mov _Show_Big_number_2[5],a
 582  049B  1100     E  	swapa ra
 582  049C  0E0F        	and a,0fh
 582  049D  0080     E  	mov ra,a
 582  049E  0700     R  	mov a,_Show_Big_number_2[5]
 582  049F  0580     E  	orm a,ra
 584  04A0              #line 584 "f:\work\血糖仪\a_bh45f67-旧版\4g\美国客户\make_lib\v1.0.01（5000套出货)-02\g-777g-usa-bg95eseye-2022-2-20\lcd.c"
 584  04A0  0F0F        	mov a,15
 584  04A1  0680     E  	andm a,ra
 584  04A2  0701        	mov a,sbp
 584  04A3  0D00     R  	or a,bank _Show_Big_number
 584  04A4  0084        	mov bp,a
 584  04A5  0700     E  	mov a,ra
 584  04A6  0082        	mov ir,a
 585  04A7              #line 585 "f:\work\血糖仪\a_bh45f67-旧版\4g\美国客户\make_lib\v1.0.01（5000套出货)-02\g-777g-usa-bg95eseye-2022-2-20\lcd.c"
 585  04A7  1483        	inc mp
 585  04A8  3D0A        	sz z
 585  04A9  1481        	inc sbp
 585  04AA  0701        	mov a,sbp
 585  04AB  0D00     R  	or a,bank _Show_Big_number
 585  04AC  0084        	mov bp,a
 585  04AD  0F00        	mov a,0
 585  04AE  0082        	mov ir,a
 586  04AF              #line 586 "f:\work\血糖仪\a_bh45f67-旧版\4g\美国客户\make_lib\v1.0.01（5000套出货)-02\g-777g-usa-bg95eseye-2022-2-20\lcd.c"
文件：lcd.c        编译器版本 HGASM 0202 页次56

 586  04AF  1F00     E  	clr _builtin_holtek_udivmodhi4_2[6]
 586  04B0  0700     R  	mov a,_Show_Big_number_2[2]  
 586  04B1  0080     E  	mov _builtin_holtek_udivmodhi4_2[0],a  
 586  04B2  0700     R  	mov a,_Show_Big_number_2[3]  
 586  04B3  0080     E  	mov _builtin_holtek_udivmodhi4_2[1],a
 586  04B4  0F0A        	mov a,10  
 586  04B5  0080     E  	mov _builtin_holtek_udivmodhi4_2[2],a  
 586  04B6  1F00     E  	clr _builtin_holtek_udivmodhi4_2[3]
 586  04B7              	fcall _builtin_holtek_udivmodhi4
 586  04BE  0700     E  	mov a,_builtin_holtek_udivmodhi4_2[4]  
 586  04BF  0080     E  	mov rb,a  
 586  04C0  0700     E  	mov a,_builtin_holtek_udivmodhi4_2[5]  
 586  04C1  0080     E  	mov rc,a
 587  04C2              #line 587 "f:\work\血糖仪\a_bh45f67-旧版\4g\美国客户\make_lib\v1.0.01（5000套出货)-02\g-777g-usa-bg95eseye-2022-2-20\lcd.c"
 587  04C2  0F00     R  	mov a,low offset _number_tabM
 587  04C3  0300     E  	add a,rb
 587  04C4  0083        	mov mp,a
 587  04C5  0F00     R  	mov a,high offset _number_tabM
 587  04C6  1300     E  	adc a,rc
 587  04C7  0081        	mov sbp,a
 587  04C8              	fcall _Crom2Prom
 587  04CF  0080     E  	mov ra,a
 588  04D0              #line 588 "f:\work\血糖仪\a_bh45f67-旧版\4g\美国客户\make_lib\v1.0.01（5000套出货)-02\g-777g-usa-bg95eseye-2022-2-20\lcd.c"
 588  04D0  1100     E  	swapa ra
 588  04D1  0EF0        	and a,0f0h 
 588  04D2  0080     E  	mov ra,a
 589  04D3              #line 589 "f:\work\血糖仪\a_bh45f67-旧版\4g\美国客户\make_lib\v1.0.01（5000套出货)-02\g-777g-usa-bg95eseye-2022-2-20\lcd.c"
 589  04D3  0F00     R  	mov a,low offset _number_tabR2
 589  04D4  0300     E  	add a,rb
 589  04D5  0083        	mov mp,a
 589  04D6  0F00     R  	mov a,high offset _number_tabR2
 589  04D7  1300     E  	adc a,rc
 589  04D8  0081        	mov sbp,a
 589  04D9              	fcall _Crom2Prom
 589  04E0  0080     E  	mov rd,a
 589  04E1  0700     E  	mov a,rd
 589  04E2  0580     E  	orm a,ra
 590  04E3              #line 590 "f:\work\血糖仪\a_bh45f67-旧版\4g\美国客户\make_lib\v1.0.01（5000套出货)-02\g-777g-usa-bg95eseye-2022-2-20\lcd.c"
 590  04E3  0FA0        	mov a,low (offset _disp_buff+2)
 590  04E4  0083        	mov mp,a
 590  04E5  0F03        	mov a,high (offset _disp_buff+2)
 590  04E6  0081        	mov sbp,a
 590  04E7  0701        	mov a,sbp
 590  04E8  0D00     R  	or a,bank _Show_Big_number
 590  04E9  0084        	mov bp,a
 590  04EA  0702        	mov a,ir
 590  04EB  0080     R  	mov _Show_Big_number_2[5],a
 590  04EC  0700     E  	mov a,ra
 590  04ED  0080     E  	mov rd,a
 590  04EE  1100     E  	swapa rd
 590  04EF  0EF0        	and a,0f0h 
 590  04F0  0080     E  	mov rd,a
 590  04F1  0700     R  	mov a,_Show_Big_number_2[5]
 590  04F2  0580     E  	orm a,rd
 590  04F3  0701        	mov a,sbp
 590  04F4  0D00     R  	or a,bank _Show_Big_number
 590  04F5  0084        	mov bp,a
 590  04F6  0700     E  	mov a,rd
 590  04F7  0082        	mov ir,a
 592  04F8              #line 592 "f:\work\血糖仪\a_bh45f67-旧版\4g\美国客户\make_lib\v1.0.01（5000套出货)-02\g-777g-usa-bg95eseye-2022-2-20\lcd.c"
文件：lcd.c        编译器版本 HGASM 0202 页次57

 592  04F8  1483        	inc mp
 592  04F9  3D0A        	sz z
 592  04FA  1481        	inc sbp
 592  04FB  0701        	mov a,sbp
 592  04FC  0D00     R  	or a,bank _Show_Big_number
 592  04FD  0084        	mov bp,a
 592  04FE  0702        	mov a,ir
 592  04FF  0080     E  	mov rd,a
 592  0500  1100     E  	swapa ra
 592  0501  0E0F        	and a,0fh
 592  0502  0080     E  	mov re,a
 593  0503              #line 593 "f:\work\血糖仪\a_bh45f67-旧版\4g\美国客户\make_lib\v1.0.01（5000套出货)-02\g-777g-usa-bg95eseye-2022-2-20\lcd.c"
 593  0503  0F00     R  	mov a,low offset _number_tabL2
 593  0504  0300     E  	add a,rb
 593  0505  0083        	mov mp,a
 593  0506  0F00     R  	mov a,high offset _number_tabL2
 593  0507  1300     E  	adc a,rc
 593  0508  0081        	mov sbp,a
 593  0509              	fcall _Crom2Prom
 593  0510  0080     E  	mov ra,a
 595  0511              #line 595 "f:\work\血糖仪\a_bh45f67-旧版\4g\美国客户\make_lib\v1.0.01（5000套出货)-02\g-777g-usa-bg95eseye-2022-2-20\lcd.c"
 595  0511  0FA1        	mov a,low (offset _disp_buff+3)
 595  0512  0083        	mov mp,a
 595  0513  0F03        	mov a,high (offset _disp_buff+3)
 595  0514  0081        	mov sbp,a
 595  0515  0700     E  	mov a,re
 595  0516  0500     E  	or a,rd
 595  0517  0080     E  	mov rb,a
 594  0518              #line 594 "f:\work\血糖仪\a_bh45f67-旧版\4g\美国客户\make_lib\v1.0.01（5000套出货)-02\g-777g-usa-bg95eseye-2022-2-20\lcd.c"
 594  0518  1100     E  	swapa ra
 594  0519  0EF0        	and a,0f0h 
 594  051A  0080     E  	mov ra,a
 595  051B              #line 595 "f:\work\血糖仪\a_bh45f67-旧版\4g\美国客户\make_lib\v1.0.01（5000套出货)-02\g-777g-usa-bg95eseye-2022-2-20\lcd.c"
 595  051B  0700     E  	mov a,rb
 595  051C  0580     E  	orm a,ra
 595  051D  0701        	mov a,sbp
 595  051E  0D00     R  	or a,bank _Show_Big_number
 595  051F  0084        	mov bp,a
 595  0520  0700     E  	mov a,ra
 595  0521  0082        	mov ir,a
 595  0522  2800     R  	jmp _L80
 595  0523              _L78:
 599  0523              #line 599 "f:\work\血糖仪\a_bh45f67-旧版\4g\美国客户\make_lib\v1.0.01（5000套出货)-02\g-777g-usa-bg95eseye-2022-2-20\lcd.c"
 599  0523  0F80        	mov a,low offset _SystemFlags
 599  0524  0083        	mov mp,a
 599  0525  0F03        	mov a,high offset _SystemFlags
 599  0526  0081        	mov sbp,a
 599  0527  0701        	mov a,sbp
 599  0528  0D00     R  	or a,bank _Show_Big_number
 599  0529  0084        	mov bp,a
 599  052A  3702        	clr ir.6
 600  052B              #line 600 "f:\work\血糖仪\a_bh45f67-旧版\4g\美国客户\make_lib\v1.0.01（5000套出货)-02\g-777g-usa-bg95eseye-2022-2-20\lcd.c"
 600  052B  0FC3        	mov a,low offset _Blood_glucose
 600  052C  0083        	mov mp,a
 600  052D  0F03        	mov a,high offset _Blood_glucose
 600  052E  0081        	mov sbp,a
 600  052F  0701        	mov a,sbp
 600  0530  0D00     R  	or a,bank _Show_Big_number
 600  0531  0084        	mov bp,a
 600  0532  0702        	mov a,ir
文件：lcd.c        编译器版本 HGASM 0202 页次58

 600  0533  0080     E  	mov rd,a
 600  0534  1483        	inc mp
 600  0535  0702        	mov a,ir
 600  0536  0080     E  	mov re,a
 600  0537  1483        	inc mp
 600  0538  0702        	mov a,ir
 600  0539  0080     E  	mov rf,a
 600  053A  1483        	inc mp
 600  053B  0702        	mov a,ir
 600  053C  0080     E  	mov rg,a
 600  053D  0F12        	mov a,18
 600  053E  0200     E  	sub a,rd
 600  053F  0F00        	mov a,0
 600  0540  1200     E  	sbc a,re
 600  0541  0F00        	mov a,0
 600  0542  1200     E  	sbc a,rf
 600  0543  0F00        	mov a,0
 600  0544  1200     E  	sbc a,rg
 600  0545  3C0A        	sz c
 600  0546  2800     R  	jmp _L81
 600  0547  0FC3        	mov a,low offset _Blood_glucose
 600  0548  0083        	mov mp,a
 600  0549  0F03        	mov a,high offset _Blood_glucose
 600  054A  0081        	mov sbp,a
 600  054B  0701        	mov a,sbp
 600  054C  0D00     R  	or a,bank _Show_Big_number
 600  054D  0084        	mov bp,a
 600  054E  0702        	mov a,ir
 600  054F  0080     E  	mov rd,a
 600  0550  1483        	inc mp
 600  0551  0702        	mov a,ir
 600  0552  0080     E  	mov re,a
 600  0553  1483        	inc mp
 600  0554  0702        	mov a,ir
 600  0555  0080     E  	mov rf,a
 600  0556  1483        	inc mp
 600  0557  0702        	mov a,ir
 600  0558  0080     E  	mov rg,a
 600  0559  0F58        	mov a,88
 600  055A  0200     E  	sub a,rd
 600  055B  0F02        	mov a,2
 600  055C  1200     E  	sbc a,re
 600  055D  0F00        	mov a,0
 600  055E  1200     E  	sbc a,rf
 600  055F  0F00        	mov a,0
 600  0560  1200     E  	sbc a,rg
 600  0561  380A        	snz c
 600  0562  2800     R  	jmp _L81
 613  0563              #line 613 "f:\work\血糖仪\a_bh45f67-旧版\4g\美国客户\make_lib\v1.0.01（5000套出货)-02\g-777g-usa-bg95eseye-2022-2-20\lcd.c"
 613  0563  0FC3        	mov a,low offset _Blood_glucose
 613  0564  0083        	mov mp,a
 613  0565  0F03        	mov a,high offset _Blood_glucose
 613  0566  0081        	mov sbp,a
 613  0567  0701        	mov a,sbp
 613  0568  0D00     R  	or a,bank _Show_Big_number
 613  0569  0084        	mov bp,a
 613  056A  0702        	mov a,ir
 613  056B  0080     E  	mov rd,a
 613  056C  1483        	inc mp
 613  056D  0702        	mov a,ir
文件：lcd.c        编译器版本 HGASM 0202 页次59

 613  056E  0080     E  	mov re,a
 613  056F  1483        	inc mp
 613  0570  0702        	mov a,ir
 613  0571  0080     E  	mov rf,a
 613  0572  1483        	inc mp
 613  0573  0702        	mov a,ir
 613  0574  0080     E  	mov rg,a
 613  0575  0700     E  	mov a,rd  
 613  0576  0080     E  	mov _builtin_holtek_mulhi3_2[0],a  
 613  0577  0700     E  	mov a,re  
 613  0578  0080     E  	mov _builtin_holtek_mulhi3_2[1],a
 613  0579  0F64        	mov a,100  
 613  057A  0080     E  	mov _builtin_holtek_mulhi3_2[2],a  
 613  057B  1F00     E  	clr _builtin_holtek_mulhi3_2[3]
 613  057C              	fcall _builtin_holtek_mulhi3
 613  0583  0700     E  	mov a,_builtin_holtek_mulhi3_2[4]  
 613  0584  0080     E  	mov rd,a  
 613  0585  0700     E  	mov a,_builtin_holtek_mulhi3_2[5]  
 613  0586  0080     E  	mov re,a
 614  0587              #line 614 "f:\work\血糖仪\a_bh45f67-旧版\4g\美国客户\make_lib\v1.0.01（5000套出货)-02\g-777g-usa-bg95eseye-2022-2-20\lcd.c"
 614  0587  1F00     E  	clr _builtin_holtek_udivmodhi4_2[6]
 614  0588  0700     E  	mov a,rd  
 614  0589  0080     E  	mov _builtin_holtek_udivmodhi4_2[0],a  
 614  058A  0700     E  	mov a,re  
 614  058B  0080     E  	mov _builtin_holtek_udivmodhi4_2[1],a
 614  058C  0F0A        	mov a,10  
 614  058D  0080     E  	mov _builtin_holtek_udivmodhi4_2[2],a  
 614  058E  1F00     E  	clr _builtin_holtek_udivmodhi4_2[3]
 614  058F              	fcall _builtin_holtek_udivmodhi4
 614  0596  0700     E  	mov a,_builtin_holtek_udivmodhi4_2[0]  
 614  0597  0080     E  	mov rd,a  
 614  0598  0700     E  	mov a,_builtin_holtek_udivmodhi4_2[1]  
 614  0599  0080     E  	mov re,a
 615  059A              #line 615 "f:\work\血糖仪\a_bh45f67-旧版\4g\美国客户\make_lib\v1.0.01（5000套出货)-02\g-777g-usa-bg95eseye-2022-2-20\lcd.c"
 615  059A  1F00     E  	clr _builtin_holtek_udivmodhi4_2[6]
 615  059B  0700     E  	mov a,rd  
 615  059C  0080     E  	mov _builtin_holtek_udivmodhi4_2[0],a  
 615  059D  0700     E  	mov a,re  
 615  059E  0080     E  	mov _builtin_holtek_udivmodhi4_2[1],a
 615  059F  0FE8        	mov a,232  
 615  05A0  0080     E  	mov _builtin_holtek_udivmodhi4_2[2],a  
 615  05A1  0F03        	mov a,3  
 615  05A2  0080     E  	mov _builtin_holtek_udivmodhi4_2[3],a
 615  05A3              	fcall _builtin_holtek_udivmodhi4
 615  05AA  0700     E  	mov a,_builtin_holtek_udivmodhi4_2[4]  
 615  05AB  0080     E  	mov rb,a  
 615  05AC  0700     E  	mov a,_builtin_holtek_udivmodhi4_2[5]  
 615  05AD  0080     E  	mov rc,a
 615  05AE  1F00     E  	clr _builtin_holtek_udivmodhi4_2[6]
 615  05AF  0700     E  	mov a,rb  
 615  05B0  0080     E  	mov _builtin_holtek_udivmodhi4_2[0],a  
 615  05B1  0700     E  	mov a,rc  
 615  05B2  0080     E  	mov _builtin_holtek_udivmodhi4_2[1],a
 615  05B3  0F64        	mov a,100  
 615  05B4  0080     E  	mov _builtin_holtek_udivmodhi4_2[2],a  
 615  05B5  1F00     E  	clr _builtin_holtek_udivmodhi4_2[3]
 615  05B6              	fcall _builtin_holtek_udivmodhi4
 615  05BD  0700     E  	mov a,_builtin_holtek_udivmodhi4_2[4]  
 615  05BE  0080     E  	mov rb,a  
 615  05BF  0700     E  	mov a,_builtin_holtek_udivmodhi4_2[5]  
文件：lcd.c        编译器版本 HGASM 0202 页次60

 615  05C0  0080     E  	mov rc,a
 615  05C1  1F00     E  	clr _builtin_holtek_udivmodhi4_2[6]
 615  05C2  0700     E  	mov a,rb  
 615  05C3  0080     E  	mov _builtin_holtek_udivmodhi4_2[0],a  
 615  05C4  0700     E  	mov a,rc  
 615  05C5  0080     E  	mov _builtin_holtek_udivmodhi4_2[1],a
 615  05C6  0F0A        	mov a,10  
 615  05C7  0080     E  	mov _builtin_holtek_udivmodhi4_2[2],a  
 615  05C8  1F00     E  	clr _builtin_holtek_udivmodhi4_2[3]
 615  05C9              	fcall _builtin_holtek_udivmodhi4
 615  05D0  0700     E  	mov a,_builtin_holtek_udivmodhi4_2[4]  
 615  05D1  0080     E  	mov rb,a  
 615  05D2  0700     E  	mov a,_builtin_holtek_udivmodhi4_2[5]  
 615  05D3  0080     E  	mov rc,a
 616  05D4              #line 616 "f:\work\血糖仪\a_bh45f67-旧版\4g\美国客户\make_lib\v1.0.01（5000套出货)-02\g-777g-usa-bg95eseye-2022-2-20\lcd.c"
 616  05D4  0F04        	mov a,4
 616  05D5  0200     E  	sub a,rb
 616  05D6  3C0A        	sz c
 616  05D7  2800     R  	jmp _L82
 618  05D8              #line 618 "f:\work\血糖仪\a_bh45f67-旧版\4g\美国客户\make_lib\v1.0.01（5000套出货)-02\g-777g-usa-bg95eseye-2022-2-20\lcd.c"
 618  05D8  0F0A        	mov a,10
 618  05D9  0380     E  	addm a,rd
 618  05DA  0F00        	mov a,0
 618  05DB  1380     E  	adcm a,re
 618  05DC              _L82:
 620  05DC              #line 620 "f:\work\血糖仪\a_bh45f67-旧版\4g\美国客户\make_lib\v1.0.01（5000套出货)-02\g-777g-usa-bg95eseye-2022-2-20\lcd.c"
 620  05DC  1F00     E  	clr _builtin_holtek_udivmodhi4_2[6]
 620  05DD  0700     E  	mov a,rd  
 620  05DE  0080     E  	mov _builtin_holtek_udivmodhi4_2[0],a  
 620  05DF  0700     E  	mov a,re  
 620  05E0  0080     E  	mov _builtin_holtek_udivmodhi4_2[1],a
 620  05E1  0F0A        	mov a,10  
 620  05E2  0080     E  	mov _builtin_holtek_udivmodhi4_2[2],a  
 620  05E3  1F00     E  	clr _builtin_holtek_udivmodhi4_2[3]
 620  05E4              	fcall _builtin_holtek_udivmodhi4
 620  05EB  0700     E  	mov a,_builtin_holtek_udivmodhi4_2[0]  
 620  05EC  0080     E  	mov rd,a  
 620  05ED  0700     E  	mov a,_builtin_holtek_udivmodhi4_2[1]  
 620  05EE  0080     E  	mov re,a
 621  05EF              #line 621 "f:\work\血糖仪\a_bh45f67-旧版\4g\美国客户\make_lib\v1.0.01（5000套出货)-02\g-777g-usa-bg95eseye-2022-2-20\lcd.c"
 621  05EF  1F00     E  	clr _builtin_holtek_udivmodhi4_2[6]
 621  05F0  0700     E  	mov a,rd  
 621  05F1  0080     E  	mov _builtin_holtek_udivmodhi4_2[0],a  
 621  05F2  0700     E  	mov a,re  
 621  05F3  0080     E  	mov _builtin_holtek_udivmodhi4_2[1],a
 621  05F4  0FE8        	mov a,232  
 621  05F5  0080     E  	mov _builtin_holtek_udivmodhi4_2[2],a  
 621  05F6  0F03        	mov a,3  
 621  05F7  0080     E  	mov _builtin_holtek_udivmodhi4_2[3],a
 621  05F8              	fcall _builtin_holtek_udivmodhi4
 621  05FF  0700     E  	mov a,_builtin_holtek_udivmodhi4_2[4]  
 621  0600  0080     E  	mov rd,a  
 621  0601  0700     E  	mov a,_builtin_holtek_udivmodhi4_2[5]  
 621  0602  0080     E  	mov re,a
 621  0603  1F00     E  	clr _builtin_holtek_udivmodhi4_2[6]
 621  0604  0700     E  	mov a,rd  
 621  0605  0080     E  	mov _builtin_holtek_udivmodhi4_2[0],a  
 621  0606  0700     E  	mov a,re  
 621  0607  0080     E  	mov _builtin_holtek_udivmodhi4_2[1],a
 621  0608  0F64        	mov a,100  
文件：lcd.c        编译器版本 HGASM 0202 页次61

 621  0609  0080     E  	mov _builtin_holtek_udivmodhi4_2[2],a  
 621  060A  1F00     E  	clr _builtin_holtek_udivmodhi4_2[3]
 621  060B              	fcall _builtin_holtek_udivmodhi4
 621  0612  0700     E  	mov a,_builtin_holtek_udivmodhi4_2[0]  
 621  0613  0080     E  	mov rb,a  
 621  0614  0700     E  	mov a,_builtin_holtek_udivmodhi4_2[1]  
 621  0615  0080     E  	mov rc,a
 622  0616              #line 622 "f:\work\血糖仪\a_bh45f67-旧版\4g\美国客户\make_lib\v1.0.01（5000套出货)-02\g-777g-usa-bg95eseye-2022-2-20\lcd.c"
 622  0616  1F00     E  	clr _builtin_holtek_udivmodhi4_2[6]
 622  0617  0700     E  	mov a,rd  
 622  0618  0080     E  	mov _builtin_holtek_udivmodhi4_2[0],a  
 622  0619  0700     E  	mov a,re  
 622  061A  0080     E  	mov _builtin_holtek_udivmodhi4_2[1],a
 622  061B  0F64        	mov a,100  
 622  061C  0080     E  	mov _builtin_holtek_udivmodhi4_2[2],a  
 622  061D  1F00     E  	clr _builtin_holtek_udivmodhi4_2[3]
 622  061E              	fcall _builtin_holtek_udivmodhi4
 622  0625  0700     E  	mov a,_builtin_holtek_udivmodhi4_2[4]  
 622  0626  0080     E  	mov rd,a  
 622  0627  0700     E  	mov a,_builtin_holtek_udivmodhi4_2[5]  
 622  0628  0080     E  	mov re,a
 622  0629  1F00     E  	clr _builtin_holtek_udivmodhi4_2[6]
 622  062A  0700     E  	mov a,rd  
 622  062B  0080     E  	mov _builtin_holtek_udivmodhi4_2[0],a  
 622  062C  0700     E  	mov a,re  
 622  062D  0080     E  	mov _builtin_holtek_udivmodhi4_2[1],a
 622  062E  0F0A        	mov a,10  
 622  062F  0080     E  	mov _builtin_holtek_udivmodhi4_2[2],a  
 622  0630  1F00     E  	clr _builtin_holtek_udivmodhi4_2[3]
 622  0631              	fcall _builtin_holtek_udivmodhi4
 622  0638  0700     E  	mov a,_builtin_holtek_udivmodhi4_2[0]  
 622  0639  0080     E  	mov rf,a  
 622  063A  0700     E  	mov a,_builtin_holtek_udivmodhi4_2[1]  
 622  063B  0080     E  	mov rg,a
 623  063C              #line 623 "f:\work\血糖仪\a_bh45f67-旧版\4g\美国客户\make_lib\v1.0.01（5000套出货)-02\g-777g-usa-bg95eseye-2022-2-20\lcd.c"
 623  063C  1F00     E  	clr _builtin_holtek_udivmodhi4_2[6]
 623  063D  0700     E  	mov a,rd  
 623  063E  0080     E  	mov _builtin_holtek_udivmodhi4_2[0],a  
 623  063F  0700     E  	mov a,re  
 623  0640  0080     E  	mov _builtin_holtek_udivmodhi4_2[1],a
 623  0641  0F0A        	mov a,10  
 623  0642  0080     E  	mov _builtin_holtek_udivmodhi4_2[2],a  
 623  0643  1F00     E  	clr _builtin_holtek_udivmodhi4_2[3]
 623  0644              	fcall _builtin_holtek_udivmodhi4
 623  064B  0700     E  	mov a,_builtin_holtek_udivmodhi4_2[4]  
 623  064C  0080     E  	mov rd,a  
 623  064D  0700     E  	mov a,_builtin_holtek_udivmodhi4_2[5]  
 623  064E  0080     E  	mov re,a
 628  064F              #line 628 "f:\work\血糖仪\a_bh45f67-旧版\4g\美国客户\make_lib\v1.0.01（5000套出货)-02\g-777g-usa-bg95eseye-2022-2-20\lcd.c"
 628  064F  0F9E        	mov a,low offset _disp_buff
 628  0650  0083        	mov mp,a
 628  0651  0F03        	mov a,high offset _disp_buff
 628  0652  0081        	mov sbp,a
 626  0653              #line 626 "f:\work\血糖仪\a_bh45f67-旧版\4g\美国客户\make_lib\v1.0.01（5000套出货)-02\g-777g-usa-bg95eseye-2022-2-20\lcd.c"
 626  0653  1080     E  	sz rb
 626  0654  2800     R  	jmp _LI12
 626  0655  2800     R  	jmp _L83
 626  0656              _LI12:
 628  0656              #line 628 "f:\work\血糖仪\a_bh45f67-旧版\4g\美国客户\make_lib\v1.0.01（5000套出货)-02\g-777g-usa-bg95eseye-2022-2-20\lcd.c"
 628  0656  0701        	mov a,sbp
文件：lcd.c        编译器版本 HGASM 0202 页次62

 628  0657  0D00     R  	or a,bank _Show_Big_number
 628  0658  0084        	mov bp,a
 628  0659  0F00        	mov a,0
 628  065A  0082        	mov ir,a
 629  065B              #line 629 "f:\work\血糖仪\a_bh45f67-旧版\4g\美国客户\make_lib\v1.0.01（5000套出货)-02\g-777g-usa-bg95eseye-2022-2-20\lcd.c"
 629  065B  1483        	inc mp
 629  065C  3D0A        	sz z
 629  065D  1481        	inc sbp
 629  065E  0701        	mov a,sbp
 629  065F  0D00     R  	or a,bank _Show_Big_number
 629  0660  0084        	mov bp,a
 629  0661  0F00        	mov a,0
 629  0662  0082        	mov ir,a
 630  0663              #line 630 "f:\work\血糖仪\a_bh45f67-旧版\4g\美国客户\make_lib\v1.0.01（5000套出货)-02\g-777g-usa-bg95eseye-2022-2-20\lcd.c"
 630  0663  1483        	inc mp
 630  0664  3D0A        	sz z
 630  0665  1481        	inc sbp
 630  0666  0701        	mov a,sbp
 630  0667  0D00     R  	or a,bank _Show_Big_number
 630  0668  0084        	mov bp,a
 630  0669  0F00        	mov a,0
 630  066A  0082        	mov ir,a
 631  066B              #line 631 "f:\work\血糖仪\a_bh45f67-旧版\4g\美国客户\make_lib\v1.0.01（5000套出货)-02\g-777g-usa-bg95eseye-2022-2-20\lcd.c"
 631  066B  0F00     R  	mov a,low offset _number_tabL
 631  066C  0300     E  	add a,rb
 631  066D  0083        	mov mp,a
 631  066E  0F00     R  	mov a,high offset _number_tabL
 631  066F  1300     E  	adc a,rc
 631  0670  0081        	mov sbp,a
 631  0671              	fcall _Crom2Prom
 631  0678  0080     E  	mov ra,a
 632  0679              #line 632 "f:\work\血糖仪\a_bh45f67-旧版\4g\美国客户\make_lib\v1.0.01（5000套出货)-02\g-777g-usa-bg95eseye-2022-2-20\lcd.c"
 632  0679  1100     E  	swapa ra
 632  067A  0EF0        	and a,0f0h 
 632  067B  0080     E  	mov ra,a
 633  067C              #line 633 "f:\work\血糖仪\a_bh45f67-旧版\4g\美国客户\make_lib\v1.0.01（5000套出货)-02\g-777g-usa-bg95eseye-2022-2-20\lcd.c"
 633  067C  0F00     R  	mov a,low offset _number_tabR
 633  067D  0300     E  	add a,rb
 633  067E  0083        	mov mp,a
 633  067F  0F00     R  	mov a,high offset _number_tabR
 633  0680  1300     E  	adc a,rc
 633  0681  0081        	mov sbp,a
 633  0682              	fcall _Crom2Prom
 633  0689  0080     E  	mov rb,a
 633  068A  0700     E  	mov a,rb
 633  068B  0580     E  	orm a,ra
 634  068C              #line 634 "f:\work\血糖仪\a_bh45f67-旧版\4g\美国客户\make_lib\v1.0.01（5000套出货)-02\g-777g-usa-bg95eseye-2022-2-20\lcd.c"
 634  068C  0F9E        	mov a,low offset _disp_buff
 634  068D  0083        	mov mp,a
 634  068E  0F03        	mov a,high offset _disp_buff
 634  068F  0081        	mov sbp,a
 634  0690  0701        	mov a,sbp
 634  0691  0D00     R  	or a,bank _Show_Big_number
 634  0692  0084        	mov bp,a
 634  0693  0702        	mov a,ir
 634  0694  0080     R  	mov _Show_Big_number_2[5],a
 634  0695  0700     E  	mov a,ra
 634  0696  0080     E  	mov rb,a
 634  0697  1100     E  	swapa rb
 634  0698  0EF0        	and a,0f0h 
文件：lcd.c        编译器版本 HGASM 0202 页次63

 634  0699  0080     E  	mov rb,a
 634  069A  0700     R  	mov a,_Show_Big_number_2[5]
 634  069B  0580     E  	orm a,rb
 634  069C  0701        	mov a,sbp
 634  069D  0D00     R  	or a,bank _Show_Big_number
 634  069E  0084        	mov bp,a
 634  069F  0700     E  	mov a,rb
 634  06A0  0082        	mov ir,a
 635  06A1              #line 635 "f:\work\血糖仪\a_bh45f67-旧版\4g\美国客户\make_lib\v1.0.01（5000套出货)-02\g-777g-usa-bg95eseye-2022-2-20\lcd.c"
 635  06A1  1483        	inc mp
 635  06A2  3D0A        	sz z
 635  06A3  1481        	inc sbp
 635  06A4  0701        	mov a,sbp
 635  06A5  0D00     R  	or a,bank _Show_Big_number
 635  06A6  0084        	mov bp,a
 635  06A7  0702        	mov a,ir
 635  06A8  0080     R  	mov _Show_Big_number_2[5],a
 635  06A9  1100     E  	swapa ra
 635  06AA  0E0F        	and a,0fh
 635  06AB  0080     E  	mov ra,a
 635  06AC  0700     R  	mov a,_Show_Big_number_2[5]
 635  06AD  0580     E  	orm a,ra
 635  06AE  0701        	mov a,sbp
 635  06AF  0D00     R  	or a,bank _Show_Big_number
 635  06B0  0084        	mov bp,a
 635  06B1  0700     E  	mov a,ra
 635  06B2  0082        	mov ir,a
 635  06B3  2800     R  	jmp _L84
 635  06B4              _L83:
 639  06B4              #line 639 "f:\work\血糖仪\a_bh45f67-旧版\4g\美国客户\make_lib\v1.0.01（5000套出货)-02\g-777g-usa-bg95eseye-2022-2-20\lcd.c"
 639  06B4  0701        	mov a,sbp
 639  06B5  0D00     R  	or a,bank _Show_Big_number
 639  06B6  0084        	mov bp,a
 639  06B7  0F0F        	mov a,15
 639  06B8  0682        	andm a,ir
 640  06B9              #line 640 "f:\work\血糖仪\a_bh45f67-旧版\4g\美国客户\make_lib\v1.0.01（5000套出货)-02\g-777g-usa-bg95eseye-2022-2-20\lcd.c"
 640  06B9  1483        	inc mp
 640  06BA  3D0A        	sz z
 640  06BB  1481        	inc sbp
 640  06BC  0701        	mov a,sbp
 640  06BD  0D00     R  	or a,bank _Show_Big_number
 640  06BE  0084        	mov bp,a
 640  06BF  0F00        	mov a,0
 640  06C0  0082        	mov ir,a
 641  06C1              #line 641 "f:\work\血糖仪\a_bh45f67-旧版\4g\美国客户\make_lib\v1.0.01（5000套出货)-02\g-777g-usa-bg95eseye-2022-2-20\lcd.c"
 641  06C1  1483        	inc mp
 641  06C2  3D0A        	sz z
 641  06C3  1481        	inc sbp
 641  06C4  0701        	mov a,sbp
 641  06C5  0D00     R  	or a,bank _Show_Big_number
 641  06C6  0084        	mov bp,a
 641  06C7  0F00        	mov a,0
 641  06C8  0082        	mov ir,a
 641  06C9              _L84:
 643  06C9              #line 643 "f:\work\血糖仪\a_bh45f67-旧版\4g\美国客户\make_lib\v1.0.01（5000套出货)-02\g-777g-usa-bg95eseye-2022-2-20\lcd.c"
 643  06C9  0F00     R  	mov a,low offset _number_tabL
 643  06CA  0300     E  	add a,rf
 643  06CB  0083        	mov mp,a
 643  06CC  0F00     R  	mov a,high offset _number_tabL
 643  06CD  1300     E  	adc a,rg
文件：lcd.c        编译器版本 HGASM 0202 页次64

 643  06CE  0081        	mov sbp,a
 643  06CF              	fcall _Crom2Prom
 643  06D6  0080     E  	mov ra,a
 644  06D7              #line 644 "f:\work\血糖仪\a_bh45f67-旧版\4g\美国客户\make_lib\v1.0.01（5000套出货)-02\g-777g-usa-bg95eseye-2022-2-20\lcd.c"
 644  06D7  1100     E  	swapa ra
 644  06D8  0EF0        	and a,0f0h 
 644  06D9  0080     E  	mov ra,a
 645  06DA              #line 645 "f:\work\血糖仪\a_bh45f67-旧版\4g\美国客户\make_lib\v1.0.01（5000套出货)-02\g-777g-usa-bg95eseye-2022-2-20\lcd.c"
 645  06DA  0F00     R  	mov a,low offset _number_tabR
 645  06DB  0300     E  	add a,rf
 645  06DC  0083        	mov mp,a
 645  06DD  0F00     R  	mov a,high offset _number_tabR
 645  06DE  1300     E  	adc a,rg
 645  06DF  0081        	mov sbp,a
 645  06E0              	fcall _Crom2Prom
 645  06E7  0080     E  	mov rb,a
 645  06E8  0700     E  	mov a,rb
 645  06E9  0580     E  	orm a,ra
 646  06EA              #line 646 "f:\work\血糖仪\a_bh45f67-旧版\4g\美国客户\make_lib\v1.0.01（5000套出货)-02\g-777g-usa-bg95eseye-2022-2-20\lcd.c"
 646  06EA  0F9F        	mov a,low (offset _disp_buff+1)
 646  06EB  0083        	mov mp,a
 646  06EC  0F03        	mov a,high (offset _disp_buff+1)
 646  06ED  0081        	mov sbp,a
 646  06EE  0701        	mov a,sbp
 646  06EF  0D00     R  	or a,bank _Show_Big_number
 646  06F0  0084        	mov bp,a
 646  06F1  0702        	mov a,ir
 646  06F2  0080     R  	mov _Show_Big_number_2[5],a
 646  06F3  0700     E  	mov a,ra
 646  06F4  0080     E  	mov rb,a
 646  06F5  1100     E  	swapa rb
 646  06F6  0EF0        	and a,0f0h 
 646  06F7  0080     E  	mov rb,a
 646  06F8  0700     R  	mov a,_Show_Big_number_2[5]
 646  06F9  0580     E  	orm a,rb
 646  06FA  0701        	mov a,sbp
 646  06FB  0D00     R  	or a,bank _Show_Big_number
 646  06FC  0084        	mov bp,a
 646  06FD  0700     E  	mov a,rb
 646  06FE  0082        	mov ir,a
 648  06FF              #line 648 "f:\work\血糖仪\a_bh45f67-旧版\4g\美国客户\make_lib\v1.0.01（5000套出货)-02\g-777g-usa-bg95eseye-2022-2-20\lcd.c"
 648  06FF  1483        	inc mp
 648  0700  3D0A        	sz z
 648  0701  1481        	inc sbp
 648  0702  0701        	mov a,sbp
 648  0703  0D00     R  	or a,bank _Show_Big_number
 648  0704  0084        	mov bp,a
 648  0705  0702        	mov a,ir
 648  0706  0080     E  	mov rb,a
 647  0707              #line 647 "f:\work\血糖仪\a_bh45f67-旧版\4g\美国客户\make_lib\v1.0.01（5000套出货)-02\g-777g-usa-bg95eseye-2022-2-20\lcd.c"
 647  0707  1100     E  	swapa ra
 647  0708  0E0F        	and a,0fh
 647  0709  0080     E  	mov rc,a
 650  070A              #line 650 "f:\work\血糖仪\a_bh45f67-旧版\4g\美国客户\make_lib\v1.0.01（5000套出货)-02\g-777g-usa-bg95eseye-2022-2-20\lcd.c"
 650  070A  0F00     R  	mov a,low offset _number_tabR2
 650  070B  0300     E  	add a,rd
 650  070C  0083        	mov mp,a
 650  070D  0F00     R  	mov a,high offset _number_tabR2
 650  070E  1300     E  	adc a,re
 650  070F  0081        	mov sbp,a
文件：lcd.c        编译器版本 HGASM 0202 页次65

 650  0710              	fcall _Crom2Prom
 650  0717  0080     E  	mov ra,a
 652  0718              #line 652 "f:\work\血糖仪\a_bh45f67-旧版\4g\美国客户\make_lib\v1.0.01（5000套出货)-02\g-777g-usa-bg95eseye-2022-2-20\lcd.c"
 652  0718  0FA0        	mov a,low (offset _disp_buff+2)
 652  0719  0083        	mov mp,a
 652  071A  0F03        	mov a,high (offset _disp_buff+2)
 652  071B  0081        	mov sbp,a
 652  071C  0700     E  	mov a,rc
 652  071D  0580     E  	orm a,rb
 651  071E              #line 651 "f:\work\血糖仪\a_bh45f67-旧版\4g\美国客户\make_lib\v1.0.01（5000套出货)-02\g-777g-usa-bg95eseye-2022-2-20\lcd.c"
 651  071E  1100     E  	swapa ra
 651  071F  0EF0        	and a,0f0h 
 651  0720  0080     E  	mov ra,a
 652  0721              #line 652 "f:\work\血糖仪\a_bh45f67-旧版\4g\美国客户\make_lib\v1.0.01（5000套出货)-02\g-777g-usa-bg95eseye-2022-2-20\lcd.c"
 652  0721  0F0F        	mov a,15
 652  0722  0680     E  	andm a,rb
 652  0723  0700     E  	mov a,rb
 652  0724  0580     E  	orm a,ra
 653  0725              #line 653 "f:\work\血糖仪\a_bh45f67-旧版\4g\美国客户\make_lib\v1.0.01（5000套出货)-02\g-777g-usa-bg95eseye-2022-2-20\lcd.c"
 653  0725  0701        	mov a,sbp
 653  0726  0D00     R  	or a,bank _Show_Big_number
 653  0727  0084        	mov bp,a
 653  0728  0700     E  	mov a,ra
 653  0729  0082        	mov ir,a
 654  072A              #line 654 "f:\work\血糖仪\a_bh45f67-旧版\4g\美国客户\make_lib\v1.0.01（5000套出货)-02\g-777g-usa-bg95eseye-2022-2-20\lcd.c"
 654  072A  0F00     R  	mov a,low offset _number_tabL2
 654  072B  0300     E  	add a,rd
 654  072C  0083        	mov mp,a
 654  072D  0F00     R  	mov a,high offset _number_tabL2
 654  072E  1300     E  	adc a,re
 654  072F  0081        	mov sbp,a
 654  0730              	fcall _Crom2Prom
 654  0737  0080     E  	mov ra,a
 655  0738              #line 655 "f:\work\血糖仪\a_bh45f67-旧版\4g\美国客户\make_lib\v1.0.01（5000套出货)-02\g-777g-usa-bg95eseye-2022-2-20\lcd.c"
 655  0738  1100     E  	swapa ra
 655  0739  0EF0        	and a,0f0h 
 655  073A  0080     E  	mov ra,a
 656  073B              #line 656 "f:\work\血糖仪\a_bh45f67-旧版\4g\美国客户\make_lib\v1.0.01（5000套出货)-02\g-777g-usa-bg95eseye-2022-2-20\lcd.c"
 656  073B  0F00     R  	mov a,low offset _number_tabM
 656  073C  0300     E  	add a,rd
 656  073D  0083        	mov mp,a
 656  073E  0F00     R  	mov a,high offset _number_tabM
 656  073F  1300     E  	adc a,re
 656  0740  0081        	mov sbp,a
 656  0741              	fcall _Crom2Prom
 656  0748  0080     E  	mov rb,a
 656  0749  0700     E  	mov a,rb
 656  074A  0580     E  	orm a,ra
 657  074B              #line 657 "f:\work\血糖仪\a_bh45f67-旧版\4g\美国客户\make_lib\v1.0.01（5000套出货)-02\g-777g-usa-bg95eseye-2022-2-20\lcd.c"
 657  074B  0FA1        	mov a,low (offset _disp_buff+3)
 657  074C  0083        	mov mp,a
 657  074D  0F03        	mov a,high (offset _disp_buff+3)
 657  074E  0081        	mov sbp,a
 657  074F  0701        	mov a,sbp
 657  0750  0D00     R  	or a,bank _Show_Big_number
 657  0751  0084        	mov bp,a
 657  0752  0700     E  	mov a,ra
 657  0753  0082        	mov ir,a
 657  0754              _L81:
 663  0754              #line 663 "f:\work\血糖仪\a_bh45f67-旧版\4g\美国客户\make_lib\v1.0.01（5000套出货)-02\g-777g-usa-bg95eseye-2022-2-20\lcd.c"
文件：lcd.c        编译器版本 HGASM 0202 页次66

 663  0754  0FC3        	mov a,low offset _Blood_glucose
 663  0755  0083        	mov mp,a
 663  0756  0F03        	mov a,high offset _Blood_glucose
 663  0757  0081        	mov sbp,a
 663  0758  0701        	mov a,sbp
 663  0759  0D00     R  	or a,bank _Show_Big_number
 663  075A  0084        	mov bp,a
 663  075B  0702        	mov a,ir
 663  075C  0080     E  	mov rd,a
 663  075D  1483        	inc mp
 663  075E  0702        	mov a,ir
 663  075F  0080     E  	mov re,a
 663  0760  1483        	inc mp
 663  0761  0702        	mov a,ir
 663  0762  0080     E  	mov rf,a
 663  0763  1483        	inc mp
 663  0764  0702        	mov a,ir
 663  0765  0080     E  	mov rg,a
 663  0766  0F58        	mov a,88
 663  0767  0200     E  	sub a,rd
 663  0768  0F02        	mov a,2
 663  0769  1200     E  	sbc a,re
 663  076A  0F00        	mov a,0
 663  076B  1200     E  	sbc a,rf
 663  076C  0F00        	mov a,0
 663  076D  1200     E  	sbc a,rg
 663  076E  3C0A        	sz c
 663  076F  2800     R  	jmp _L85
 665  0770              #line 665 "f:\work\血糖仪\a_bh45f67-旧版\4g\美国客户\make_lib\v1.0.01（5000套出货)-02\g-777g-usa-bg95eseye-2022-2-20\lcd.c"
 665  0770  0F9E        	mov a,low offset _disp_buff
 665  0771  0083        	mov mp,a
 665  0772  0F03        	mov a,high offset _disp_buff
 665  0773  0081        	mov sbp,a
 665  0774  0701        	mov a,sbp
 665  0775  0D00     R  	or a,bank _Show_Big_number
 665  0776  0084        	mov bp,a
 665  0777  0F70        	mov a,112
 665  0778  0082        	mov ir,a
 666  0779              #line 666 "f:\work\血糖仪\a_bh45f67-旧版\4g\美国客户\make_lib\v1.0.01（5000套出货)-02\g-777g-usa-bg95eseye-2022-2-20\lcd.c"
 666  0779  1483        	inc mp
 666  077A  3D0A        	sz z
 666  077B  1481        	inc sbp
 666  077C  0701        	mov a,sbp
 666  077D  0D00     R  	or a,bank _Show_Big_number
 666  077E  0084        	mov bp,a
 666  077F  0F56        	mov a,86
 666  0780  0082        	mov ir,a
 667  0781              #line 667 "f:\work\血糖仪\a_bh45f67-旧版\4g\美国客户\make_lib\v1.0.01（5000套出货)-02\g-777g-usa-bg95eseye-2022-2-20\lcd.c"
 667  0781  1483        	inc mp
 667  0782  3D0A        	sz z
 667  0783  1481        	inc sbp
 667  0784  0701        	mov a,sbp
 667  0785  0D00     R  	or a,bank _Show_Big_number
 667  0786  0084        	mov bp,a
 667  0787  0F00        	mov a,0
 667  0788  0082        	mov ir,a
 668  0789              #line 668 "f:\work\血糖仪\a_bh45f67-旧版\4g\美国客户\make_lib\v1.0.01（5000套出货)-02\g-777g-usa-bg95eseye-2022-2-20\lcd.c"
 668  0789  1483        	inc mp
 668  078A  3D0A        	sz z
 668  078B  1481        	inc sbp
文件：lcd.c        编译器版本 HGASM 0202 页次67

 668  078C  0701        	mov a,sbp
 668  078D  0D00     R  	or a,bank _Show_Big_number
 668  078E  0084        	mov bp,a
 668  078F  0F00        	mov a,0
 668  0790  0082        	mov ir,a
 668  0791              _L85:
 670  0791              #line 670 "f:\work\血糖仪\a_bh45f67-旧版\4g\美国客户\make_lib\v1.0.01（5000套出货)-02\g-777g-usa-bg95eseye-2022-2-20\lcd.c"
 670  0791  0FC3        	mov a,low offset _Blood_glucose
 670  0792  0083        	mov mp,a
 670  0793  0F03        	mov a,high offset _Blood_glucose
 670  0794  0081        	mov sbp,a
 670  0795  0701        	mov a,sbp
 670  0796  0D00     R  	or a,bank _Show_Big_number
 670  0797  0084        	mov bp,a
 670  0798  0702        	mov a,ir
 670  0799  0080     E  	mov rd,a
 670  079A  1483        	inc mp
 670  079B  0702        	mov a,ir
 670  079C  0080     E  	mov re,a
 670  079D  1483        	inc mp
 670  079E  0702        	mov a,ir
 670  079F  0080     E  	mov rf,a
 670  07A0  1483        	inc mp
 670  07A1  0702        	mov a,ir
 670  07A2  0080     E  	mov rg,a
 670  07A3  0F12        	mov a,18
 670  07A4  0200     E  	sub a,rd
 670  07A5  0F00        	mov a,0
 670  07A6  1200     E  	sbc a,re
 670  07A7  0F00        	mov a,0
 670  07A8  1200     E  	sbc a,rf
 670  07A9  0F00        	mov a,0
 670  07AA  1200     E  	sbc a,rg
 670  07AB  380A        	snz c
 670  07AC  2800     R  	jmp _L86
 672  07AD              #line 672 "f:\work\血糖仪\a_bh45f67-旧版\4g\美国客户\make_lib\v1.0.01（5000套出货)-02\g-777g-usa-bg95eseye-2022-2-20\lcd.c"
 672  07AD  0F9E        	mov a,low offset _disp_buff
 672  07AE  0083        	mov mp,a
 672  07AF  0F03        	mov a,high offset _disp_buff
 672  07B0  0081        	mov sbp,a
 672  07B1  0701        	mov a,sbp
 672  07B2  0D00     R  	or a,bank _Show_Big_number
 672  07B3  0084        	mov bp,a
 672  07B4  0F50        	mov a,80
 672  07B5  0082        	mov ir,a
 673  07B6              #line 673 "f:\work\血糖仪\a_bh45f67-旧版\4g\美国客户\make_lib\v1.0.01（5000套出货)-02\g-777g-usa-bg95eseye-2022-2-20\lcd.c"
 673  07B6  1483        	inc mp
 673  07B7  3D0A        	sz z
 673  07B8  1481        	inc sbp
 673  07B9  0701        	mov a,sbp
 673  07BA  0D00     R  	or a,bank _Show_Big_number
 673  07BB  0084        	mov bp,a
 673  07BC  0F31        	mov a,49
 673  07BD  0082        	mov ir,a
 674  07BE              #line 674 "f:\work\血糖仪\a_bh45f67-旧版\4g\美国客户\make_lib\v1.0.01（5000套出货)-02\g-777g-usa-bg95eseye-2022-2-20\lcd.c"
 674  07BE  1483        	inc mp
 674  07BF  3D0A        	sz z
 674  07C0  1481        	inc sbp
 674  07C1  0701        	mov a,sbp
 674  07C2  0D00     R  	or a,bank _Show_Big_number
文件：lcd.c        编译器版本 HGASM 0202 页次68

 674  07C3  0084        	mov bp,a
 674  07C4  0F03        	mov a,3
 674  07C5  0082        	mov ir,a
 675  07C6              #line 675 "f:\work\血糖仪\a_bh45f67-旧版\4g\美国客户\make_lib\v1.0.01（5000套出货)-02\g-777g-usa-bg95eseye-2022-2-20\lcd.c"
 675  07C6  1483        	inc mp
 675  07C7  3D0A        	sz z
 675  07C8  1481        	inc sbp
 675  07C9  0701        	mov a,sbp
 675  07CA  0D00     R  	or a,bank _Show_Big_number
 675  07CB  0084        	mov bp,a
 675  07CC  0F00        	mov a,0
 675  07CD  0082        	mov ir,a
 675  07CE              _L86:
 677  07CE              #line 677 "f:\work\血糖仪\a_bh45f67-旧版\4g\美国客户\make_lib\v1.0.01（5000套出货)-02\g-777g-usa-bg95eseye-2022-2-20\lcd.c"
 677  07CE  0FC3        	mov a,low offset _Blood_glucose
 677  07CF  0083        	mov mp,a
 677  07D0  0F03        	mov a,high offset _Blood_glucose
 677  07D1  0081        	mov sbp,a
 677  07D2  0701        	mov a,sbp
 677  07D3  0D00     R  	or a,bank _Show_Big_number
 677  07D4  0084        	mov bp,a
 677  07D5  0702        	mov a,ir
 677  07D6  0080     E  	mov rd,a
 677  07D7  1483        	inc mp
 677  07D8  0702        	mov a,ir
 677  07D9  0080     E  	mov re,a
 677  07DA  1483        	inc mp
 677  07DB  0702        	mov a,ir
 677  07DC  0080     E  	mov rf,a
 677  07DD  1483        	inc mp
 677  07DE  0702        	mov a,ir
 677  07DF  0080     E  	mov rg,a
 677  07E0  0FF0        	mov a,240
 677  07E1  0200     E  	sub a,rd
 677  07E2  0F00        	mov a,0
 677  07E3  1200     E  	sbc a,re
 677  07E4  0F00        	mov a,0
 677  07E5  1200     E  	sbc a,rf
 677  07E6  0F00        	mov a,0
 677  07E7  1200     E  	sbc a,rg
 677  07E8  3C0A        	sz c
 677  07E9  2800     R  	jmp _L87
 679  07EA              #line 679 "f:\work\血糖仪\a_bh45f67-旧版\4g\美国客户\make_lib\v1.0.01（5000套出货)-02\g-777g-usa-bg95eseye-2022-2-20\lcd.c"
 679  07EA  0FA2        	mov a,low (offset _disp_buff+4)
 679  07EB  0083        	mov mp,a
 679  07EC  0F03        	mov a,high (offset _disp_buff+4)
 679  07ED  0081        	mov sbp,a
 679  07EE  0701        	mov a,sbp
 679  07EF  0D00     R  	or a,bank _Show_Big_number
 679  07F0  0084        	mov bp,a
 679  07F1  3082        	set ir.1
 679  07F2              _L87:
 681  07F2              #line 681 "f:\work\血糖仪\a_bh45f67-旧版\4g\美国客户\make_lib\v1.0.01（5000套出货)-02\g-777g-usa-bg95eseye-2022-2-20\lcd.c"
 681  07F2  0F8C        	mov a,low (offset _SystemFlags+12)
 681  07F3  0083        	mov mp,a
 681  07F4  0F03        	mov a,high (offset _SystemFlags+12)
 681  07F5  0081        	mov sbp,a
 681  07F6  0701        	mov a,sbp
 681  07F7  0D00     R  	or a,bank _Show_Big_number
 681  07F8  0084        	mov bp,a
文件：lcd.c        编译器版本 HGASM 0202 页次69

 681  07F9  0702        	mov a,ir
 681  07FA  0080     E  	mov ra,a
 681  07FB  0F09        	mov a,9
 681  07FC  0200     E  	sub a,ra
 681  07FD  3C0A        	sz c
 681  07FE  2800     R  	jmp _L88
 683  07FF              #line 683 "f:\work\血糖仪\a_bh45f67-旧版\4g\美国客户\make_lib\v1.0.01（5000套出货)-02\g-777g-usa-bg95eseye-2022-2-20\lcd.c"
 683  07FF  0FA2        	mov a,low (offset _disp_buff+4)
 683  0800  0083        	mov mp,a
 683  0801  0F03        	mov a,high (offset _disp_buff+4)
 683  0802  0081        	mov sbp,a
 683  0803  0701        	mov a,sbp
 683  0804  0D00     R  	or a,bank _Show_Big_number
 683  0805  0084        	mov bp,a
 683  0806  3382        	set ir.7
 683  0807              _L88:
 685  0807              #line 685 "f:\work\血糖仪\a_bh45f67-旧版\4g\美国客户\make_lib\v1.0.01（5000套出货)-02\g-777g-usa-bg95eseye-2022-2-20\lcd.c"
 685  0807  0F8C        	mov a,low (offset _SystemFlags+12)
 685  0808  0083        	mov mp,a
 685  0809  0F03        	mov a,high (offset _SystemFlags+12)
 685  080A  0081        	mov sbp,a
 685  080B  0701        	mov a,sbp
 685  080C  0D00     R  	or a,bank _Show_Big_number
 685  080D  0084        	mov bp,a
 685  080E  0702        	mov a,ir
 685  080F  0080     E  	mov ra,a
 685  0810  0F0A        	mov a,10
 685  0811  0200     E  	sub a,ra
 685  0812  3C0A        	sz c
 685  0813  2800     R  	jmp _L89
 687  0814              #line 687 "f:\work\血糖仪\a_bh45f67-旧版\4g\美国客户\make_lib\v1.0.01（5000套出货)-02\g-777g-usa-bg95eseye-2022-2-20\lcd.c"
 687  0814  0FA3        	mov a,low (offset _disp_buff+5)
 687  0815  0083        	mov mp,a
 687  0816  0F03        	mov a,high (offset _disp_buff+5)
 687  0817  0081        	mov sbp,a
 687  0818  0701        	mov a,sbp
 687  0819  0D00     R  	or a,bank _Show_Big_number
 687  081A  0084        	mov bp,a
 687  081B  3002        	set ir.0
 687  081C              _L89:
 689  081C              #line 689 "f:\work\血糖仪\a_bh45f67-旧版\4g\美国客户\make_lib\v1.0.01（5000套出货)-02\g-777g-usa-bg95eseye-2022-2-20\lcd.c"
 689  081C  0F8C        	mov a,low (offset _SystemFlags+12)
 689  081D  0083        	mov mp,a
 689  081E  0F03        	mov a,high (offset _SystemFlags+12)
 689  081F  0081        	mov sbp,a
 689  0820  0701        	mov a,sbp
 689  0821  0D00     R  	or a,bank _Show_Big_number
 689  0822  0084        	mov bp,a
 689  0823  0702        	mov a,ir
 689  0824  0080     E  	mov ra,a
 689  0825  0F0F        	mov a,15
 689  0826  0200     E  	sub a,ra
 689  0827  3C0A        	sz c
 689  0828  2800     R  	jmp _L90
 691  0829              #line 691 "f:\work\血糖仪\a_bh45f67-旧版\4g\美国客户\make_lib\v1.0.01（5000套出货)-02\g-777g-usa-bg95eseye-2022-2-20\lcd.c"
 691  0829  0FA3        	mov a,low (offset _disp_buff+5)
 691  082A  0083        	mov mp,a
 691  082B  0F03        	mov a,high (offset _disp_buff+5)
 691  082C  0081        	mov sbp,a
 691  082D  0701        	mov a,sbp
文件：lcd.c        编译器版本 HGASM 0202 页次70

 691  082E  0D00     R  	or a,bank _Show_Big_number
 691  082F  0084        	mov bp,a
 691  0830  3082        	set ir.1
 691  0831              _L90:
 693  0831              #line 693 "f:\work\血糖仪\a_bh45f67-旧版\4g\美国客户\make_lib\v1.0.01（5000套出货)-02\g-777g-usa-bg95eseye-2022-2-20\lcd.c"
 693  0831  0F8C        	mov a,low (offset _SystemFlags+12)
 693  0832  0083        	mov mp,a
 693  0833  0F03        	mov a,high (offset _SystemFlags+12)
 693  0834  0081        	mov sbp,a
 693  0835  0701        	mov a,sbp
 693  0836  0D00     R  	or a,bank _Show_Big_number
 693  0837  0084        	mov bp,a
 693  0838  0702        	mov a,ir
 693  0839  0080     E  	mov ra,a
 693  083A  0F19        	mov a,25
 693  083B  0200     E  	sub a,ra
 693  083C  3C0A        	sz c
 693  083D  2800     R  	jmp _L91
 695  083E              #line 695 "f:\work\血糖仪\a_bh45f67-旧版\4g\美国客户\make_lib\v1.0.01（5000套出货)-02\g-777g-usa-bg95eseye-2022-2-20\lcd.c"
 695  083E  0FA3        	mov a,low (offset _disp_buff+5)
 695  083F  0083        	mov mp,a
 695  0840  0F03        	mov a,high (offset _disp_buff+5)
 695  0841  0081        	mov sbp,a
 695  0842  0701        	mov a,sbp
 695  0843  0D00     R  	or a,bank _Show_Big_number
 695  0844  0084        	mov bp,a
 695  0845  3102        	set ir.2
 695  0846              _L91:
 697  0846              #line 697 "f:\work\血糖仪\a_bh45f67-旧版\4g\美国客户\make_lib\v1.0.01（5000套出货)-02\g-777g-usa-bg95eseye-2022-2-20\lcd.c"
 697  0846  0F80        	mov a,low offset _SystemFlags
 697  0847  0083        	mov mp,a
 697  0848  0F03        	mov a,high offset _SystemFlags
 697  0849  0081        	mov sbp,a
 697  084A  0701        	mov a,sbp
 697  084B  0D00     R  	or a,bank _Show_Big_number
 697  084C  0084        	mov bp,a
 697  084D  0702        	mov a,ir
 697  084E  0080     E  	mov ra,a
 697  084F  3800     E  	snz ra.2
 697  0850  2800     R  	jmp _L92
 699  0851              #line 699 "f:\work\血糖仪\a_bh45f67-旧版\4g\美国客户\make_lib\v1.0.01（5000套出货)-02\g-777g-usa-bg95eseye-2022-2-20\lcd.c"
 699  0851  0FA3        	mov a,low (offset _disp_buff+5)
 699  0852  0083        	mov mp,a
 699  0853  0F03        	mov a,high (offset _disp_buff+5)
 699  0854  0081        	mov sbp,a
 699  0855  0701        	mov a,sbp
 699  0856  0D00     R  	or a,bank _Show_Big_number
 699  0857  0084        	mov bp,a
 699  0858  3182        	set ir.3
 699  0859              _L92:
 701  0859              #line 701 "f:\work\血糖仪\a_bh45f67-旧版\4g\美国客户\make_lib\v1.0.01（5000套出货)-02\g-777g-usa-bg95eseye-2022-2-20\lcd.c"
 701  0859  0F80        	mov a,low offset _SystemFlags
 701  085A  0083        	mov mp,a
 701  085B  0F03        	mov a,high offset _SystemFlags
 701  085C  0081        	mov sbp,a
 701  085D  0701        	mov a,sbp
 701  085E  0D00     R  	or a,bank _Show_Big_number
 701  085F  0084        	mov bp,a
 701  0860  0702        	mov a,ir
 701  0861  0080     E  	mov ra,a
文件：lcd.c        编译器版本 HGASM 0202 页次71

 701  0862  3800     E  	snz ra.6
 701  0863  2800     R  	jmp _L93
 703  0864              #line 703 "f:\work\血糖仪\a_bh45f67-旧版\4g\美国客户\make_lib\v1.0.01（5000套出货)-02\g-777g-usa-bg95eseye-2022-2-20\lcd.c"
 703  0864  0FC3        	mov a,low offset _Blood_glucose
 703  0865  0083        	mov mp,a
 703  0866  0F03        	mov a,high offset _Blood_glucose
 703  0867  0081        	mov sbp,a
 703  0868  0701        	mov a,sbp
 703  0869  0D00     R  	or a,bank _Show_Big_number
 703  086A  0084        	mov bp,a
 703  086B  0702        	mov a,ir
 703  086C  0080     E  	mov rd,a
 703  086D  1483        	inc mp
 703  086E  0702        	mov a,ir
 703  086F  0080     E  	mov re,a
 703  0870  1483        	inc mp
 703  0871  0702        	mov a,ir
 703  0872  0080     E  	mov rf,a
 703  0873  1483        	inc mp
 703  0874  0702        	mov a,ir
 703  0875  0080     E  	mov rg,a
 703  0876  0F12        	mov a,18
 703  0877  0200     E  	sub a,rd
 703  0878  0F00        	mov a,0
 703  0879  1200     E  	sbc a,re
 703  087A  0F00        	mov a,0
 703  087B  1200     E  	sbc a,rf
 703  087C  0F00        	mov a,0
 703  087D  1200     E  	sbc a,rg
 703  087E  3C0A        	sz c
 703  087F  2800     R  	jmp _L94
 703  0880  0FC3        	mov a,low offset _Blood_glucose
 703  0881  0083        	mov mp,a
 703  0882  0F03        	mov a,high offset _Blood_glucose
 703  0883  0081        	mov sbp,a
 703  0884  0701        	mov a,sbp
 703  0885  0D00     R  	or a,bank _Show_Big_number
 703  0886  0084        	mov bp,a
 703  0887  0702        	mov a,ir
 703  0888  0080     E  	mov rd,a
 703  0889  1483        	inc mp
 703  088A  0702        	mov a,ir
 703  088B  0080     E  	mov re,a
 703  088C  1483        	inc mp
 703  088D  0702        	mov a,ir
 703  088E  0080     E  	mov rf,a
 703  088F  1483        	inc mp
 703  0890  0702        	mov a,ir
 703  0891  0080     E  	mov rg,a
 703  0892  0F58        	mov a,88
 703  0893  0200     E  	sub a,rd
 703  0894  0F02        	mov a,2
 703  0895  1200     E  	sbc a,re
 703  0896  0F00        	mov a,0
 703  0897  1200     E  	sbc a,rf
 703  0898  0F00        	mov a,0
 703  0899  1200     E  	sbc a,rg
 703  089A  380A        	snz c
 703  089B  2800     R  	jmp _L94
 705  089C              #line 705 "f:\work\血糖仪\a_bh45f67-旧版\4g\美国客户\make_lib\v1.0.01（5000套出货)-02\g-777g-usa-bg95eseye-2022-2-20\lcd.c"
文件：lcd.c        编译器版本 HGASM 0202 页次72

 705  089C  0FA0        	mov a,low (offset _disp_buff+2)
 705  089D  0083        	mov mp,a
 705  089E  0F03        	mov a,high (offset _disp_buff+2)
 705  089F  0081        	mov sbp,a
 705  08A0  0701        	mov a,sbp
 705  08A1  0D00     R  	or a,bank _Show_Big_number
 705  08A2  0084        	mov bp,a
 705  08A3  3202        	set ir.4
 705  08A4              _L94:
 708  08A4              #line 708 "f:\work\血糖仪\a_bh45f67-旧版\4g\美国客户\make_lib\v1.0.01（5000套出货)-02\g-777g-usa-bg95eseye-2022-2-20\lcd.c"
 708  08A4  0FA2        	mov a,low (offset _disp_buff+4)
 708  08A5  0083        	mov mp,a
 708  08A6  0F03        	mov a,high (offset _disp_buff+4)
 708  08A7  0081        	mov sbp,a
 708  08A8  2800     R  	jmp _L139
 708  08A9              _L93:
 712  08A9              #line 712 "f:\work\血糖仪\a_bh45f67-旧版\4g\美国客户\make_lib\v1.0.01（5000套出货)-02\g-777g-usa-bg95eseye-2022-2-20\lcd.c"
 712  08A9  0FA0        	mov a,low (offset _disp_buff+2)
 712  08AA  0083        	mov mp,a
 712  08AB  0F03        	mov a,high (offset _disp_buff+2)
 712  08AC  0081        	mov sbp,a
 712  08AD  0701        	mov a,sbp
 712  08AE  0D00     R  	or a,bank _Show_Big_number
 712  08AF  0084        	mov bp,a
 712  08B0  3602        	clr ir.4
 714  08B1              #line 714 "f:\work\血糖仪\a_bh45f67-旧版\4g\美国客户\make_lib\v1.0.01（5000套出货)-02\g-777g-usa-bg95eseye-2022-2-20\lcd.c"
 714  08B1  0F02        	mov a,2
 714  08B2  0383        	addm a,mp
 714  08B3  0F00        	mov a,0
 714  08B4  1381        	adcm a,sbp
 714  08B5              _L139:
 714  08B5  0701        	mov a,sbp
 714  08B6  0D00     R  	or a,bank _Show_Big_number
 714  08B7  0084        	mov bp,a
 714  08B8  3182        	set ir.3
 716  08B9              #line 716 "f:\work\血糖仪\a_bh45f67-旧版\4g\美国客户\make_lib\v1.0.01（5000套出货)-02\g-777g-usa-bg95eseye-2022-2-20\lcd.c"
 716  08B9  0F82        	mov a,low (offset _SystemFlags+2)
 716  08BA  0083        	mov mp,a
 716  08BB  0F03        	mov a,high (offset _SystemFlags+2)
 716  08BC  0081        	mov sbp,a
 716  08BD  0701        	mov a,sbp
 716  08BE  0D00     R  	or a,bank _Show_Big_number
 716  08BF  0084        	mov bp,a
 716  08C0  0702        	mov a,ir
 716  08C1  0080     E  	mov ra,a
 716  08C2  3800     E  	snz ra.7
 716  08C3  2800     R  	jmp _L96
 718  08C4              #line 718 "f:\work\血糖仪\a_bh45f67-旧版\4g\美国客户\make_lib\v1.0.01（5000套出货)-02\g-777g-usa-bg95eseye-2022-2-20\lcd.c"
 718  08C4  0F9E        	mov a,low offset _disp_buff
 718  08C5  0083        	mov mp,a
 718  08C6  0F03        	mov a,high offset _disp_buff
 718  08C7  0081        	mov sbp,a
 718  08C8  0701        	mov a,sbp
 718  08C9  0D00     R  	or a,bank _Show_Big_number
 718  08CA  0084        	mov bp,a
 718  08CB  3382        	set ir.7
 719  08CC              #line 719 "f:\work\血糖仪\a_bh45f67-旧版\4g\美国客户\make_lib\v1.0.01（5000套出货)-02\g-777g-usa-bg95eseye-2022-2-20\lcd.c"
 719  08CC  0F82        	mov a,low (offset _SystemFlags+2)
 719  08CD  0083        	mov mp,a
 719  08CE  0F03        	mov a,high (offset _SystemFlags+2)
文件：lcd.c        编译器版本 HGASM 0202 页次73

 719  08CF  0081        	mov sbp,a
 719  08D0  0701        	mov a,sbp
 719  08D1  0D00     R  	or a,bank _Show_Big_number
 719  08D2  0084        	mov bp,a
 719  08D3  0702        	mov a,ir
 719  08D4  0080     E  	mov ra,a
 721  08D5              #line 721 "f:\work\血糖仪\a_bh45f67-旧版\4g\美国客户\make_lib\v1.0.01（5000套出货)-02\g-777g-usa-bg95eseye-2022-2-20\lcd.c"
 721  08D5  0FA2        	mov a,low (offset _disp_buff+4)
 721  08D6  0083        	mov mp,a
 721  08D7  0F03        	mov a,high (offset _disp_buff+4)
 721  08D8  0081        	mov sbp,a
 719  08D9              #line 719 "f:\work\血糖仪\a_bh45f67-旧版\4g\美国客户\make_lib\v1.0.01（5000套出货)-02\g-777g-usa-bg95eseye-2022-2-20\lcd.c"
 719  08D9  3800     E  	snz ra.3
 719  08DA  2800     R  	jmp _L97
 721  08DB              #line 721 "f:\work\血糖仪\a_bh45f67-旧版\4g\美国客户\make_lib\v1.0.01（5000套出货)-02\g-777g-usa-bg95eseye-2022-2-20\lcd.c"
 721  08DB  0701        	mov a,sbp
 721  08DC  0D00     R  	or a,bank _Show_Big_number
 721  08DD  0084        	mov bp,a
 721  08DE  3202        	set ir.4
 722  08DF              #line 722 "f:\work\血糖仪\a_bh45f67-旧版\4g\美国客户\make_lib\v1.0.01（5000套出货)-02\g-777g-usa-bg95eseye-2022-2-20\lcd.c"
 722  08DF  0F92        	mov a,low (offset _flash+4)
 722  08E0  0083        	mov mp,a
 722  08E1  0F03        	mov a,high (offset _flash+4)
 722  08E2  0081        	mov sbp,a
 722  08E3  0701        	mov a,sbp
 722  08E4  0D00     R  	or a,bank _Show_Big_number
 722  08E5  0084        	mov bp,a
 722  08E6  3602        	clr ir.4
 722  08E7  2800     R  	jmp _L96
 722  08E8              _L97:
 726  08E8              #line 726 "f:\work\血糖仪\a_bh45f67-旧版\4g\美国客户\make_lib\v1.0.01（5000套出货)-02\g-777g-usa-bg95eseye-2022-2-20\lcd.c"
 726  08E8  0701        	mov a,sbp
 726  08E9  0D00     R  	or a,bank _Show_Big_number
 726  08EA  0084        	mov bp,a
 726  08EB  3602        	clr ir.4
 727  08EC              #line 727 "f:\work\血糖仪\a_bh45f67-旧版\4g\美国客户\make_lib\v1.0.01（5000套出货)-02\g-777g-usa-bg95eseye-2022-2-20\lcd.c"
 727  08EC  0F82        	mov a,low (offset _SystemFlags+2)
 727  08ED  0083        	mov mp,a
 727  08EE  0F03        	mov a,high (offset _SystemFlags+2)
 727  08EF  0081        	mov sbp,a
 727  08F0  0701        	mov a,sbp
 727  08F1  0D00     R  	or a,bank _Show_Big_number
 727  08F2  0084        	mov bp,a
 727  08F3  0702        	mov a,ir
 727  08F4  0080     E  	mov ra,a
 729  08F5              #line 729 "f:\work\血糖仪\a_bh45f67-旧版\4g\美国客户\make_lib\v1.0.01（5000套出货)-02\g-777g-usa-bg95eseye-2022-2-20\lcd.c"
 729  08F5  0FA2        	mov a,low (offset _disp_buff+4)
 729  08F6  0083        	mov mp,a
 729  08F7  0F03        	mov a,high (offset _disp_buff+4)
 729  08F8  0081        	mov sbp,a
 727  08F9              #line 727 "f:\work\血糖仪\a_bh45f67-旧版\4g\美国客户\make_lib\v1.0.01（5000套出货)-02\g-777g-usa-bg95eseye-2022-2-20\lcd.c"
 727  08F9  3800     E  	snz ra.6
 727  08FA  2800     R  	jmp _L98
 729  08FB              #line 729 "f:\work\血糖仪\a_bh45f67-旧版\4g\美国客户\make_lib\v1.0.01（5000套出货)-02\g-777g-usa-bg95eseye-2022-2-20\lcd.c"
 729  08FB  0701        	mov a,sbp
 729  08FC  0D00     R  	or a,bank _Show_Big_number
 729  08FD  0084        	mov bp,a
 729  08FE  3282        	set ir.5
 729  08FF  2800     R  	jmp _L96
 729  0900              _L98:
文件：lcd.c        编译器版本 HGASM 0202 页次74

 733  0900              #line 733 "f:\work\血糖仪\a_bh45f67-旧版\4g\美国客户\make_lib\v1.0.01（5000套出货)-02\g-777g-usa-bg95eseye-2022-2-20\lcd.c"
 733  0900  0701        	mov a,sbp
 733  0901  0D00     R  	or a,bank _Show_Big_number
 733  0902  0084        	mov bp,a
 733  0903  3302        	set ir.6
 733  0904              _L96:
 737  0904              #line 737 "f:\work\血糖仪\a_bh45f67-旧版\4g\美国客户\make_lib\v1.0.01（5000套出货)-02\g-777g-usa-bg95eseye-2022-2-20\lcd.c"
 737  0904  0700     R  	mov a,_Show_Big_number_2[4]
 737  0905  0A04        	sub a,4
 737  0906  3D0A        	sz z
 737  0907  2800     R  	jmp _L99
 739  0908              #line 739 "f:\work\血糖仪\a_bh45f67-旧版\4g\美国客户\make_lib\v1.0.01（5000套出货)-02\g-777g-usa-bg95eseye-2022-2-20\lcd.c"
 739  0908  0FB2        	mov a,low offset _sys_Month
 739  0909  0083        	mov mp,a
 739  090A  0F03        	mov a,high offset _sys_Month
 739  090B  0081        	mov sbp,a
 739  090C  2800     R  	jmp _L140
 739  090D              _L99:
 743  090D              #line 743 "f:\work\血糖仪\a_bh45f67-旧版\4g\美国客户\make_lib\v1.0.01（5000套出货)-02\g-777g-usa-bg95eseye-2022-2-20\lcd.c"
 743  090D  0FDC        	mov a,low (offset _test_buff+1)
 743  090E  0083        	mov mp,a
 743  090F  0F03        	mov a,high (offset _test_buff+1)
 743  0910  0081        	mov sbp,a
 743  0911              _L140:
 743  0911  0701        	mov a,sbp
 743  0912  0D00     R  	or a,bank _Show_Big_number
 743  0913  0084        	mov bp,a
 743  0914  0702        	mov a,ir
 743  0915  0080     E  	mov ra,a
 743  0916  1F00     E  	clr _builtin_holtek_udivmodqi4_2[3]
 743  0917  0700     E  	mov a,ra
 743  0918  0080     E  	mov _builtin_holtek_udivmodqi4_2[0],a
 743  0919  0F0A        	mov a,10
 743  091A  0080     E  	mov _builtin_holtek_udivmodqi4_2[1],a
 743  091B              	fcall _builtin_holtek_udivmodqi4
 743  0922  0700     E  	mov a,_builtin_holtek_udivmodqi4_2[0]
 743  0923  0080     R  	mov _Show_Big_number_2[5],a
 745  0924              #line 745 "f:\work\血糖仪\a_bh45f67-旧版\4g\美国客户\make_lib\v1.0.01（5000套出货)-02\g-777g-usa-bg95eseye-2022-2-20\lcd.c"
 745  0924  1080     R  	sz _Show_Big_number_2[5]
 745  0925  2800     R  	jmp _LI13
 745  0926  2800     R  	jmp _L101
 745  0927              _LI13:
 747  0927              #line 747 "f:\work\血糖仪\a_bh45f67-旧版\4g\美国客户\make_lib\v1.0.01（5000套出货)-02\g-777g-usa-bg95eseye-2022-2-20\lcd.c"
 747  0927  1700     R  	sdza _Show_Big_number_2[5]
 747  0928  2800     R  	jmp _L102
 749  0929              #line 749 "f:\work\血糖仪\a_bh45f67-旧版\4g\美国客户\make_lib\v1.0.01（5000套出货)-02\g-777g-usa-bg95eseye-2022-2-20\lcd.c"
 749  0929  0FA3        	mov a,low (offset _disp_buff+5)
 749  092A  0083        	mov mp,a
 749  092B  0F03        	mov a,high (offset _disp_buff+5)
 749  092C  0081        	mov sbp,a
 749  092D  0701        	mov a,sbp
 749  092E  0D00     R  	or a,bank _Show_Big_number
 749  092F  0084        	mov bp,a
 749  0930  0F60        	mov a,96
 749  0931  0582        	orm a,ir
 749  0932  2800     R  	jmp _L103
 749  0933              _L102:
 751  0933              #line 751 "f:\work\血糖仪\a_bh45f67-旧版\4g\美国客户\make_lib\v1.0.01（5000套出货)-02\g-777g-usa-bg95eseye-2022-2-20\lcd.c"
 751  0933  0700     R  	mov a,_Show_Big_number_2[5]
 751  0934  0A02        	sub a,2
文件：lcd.c        编译器版本 HGASM 0202 页次75

 751  0935  390A        	snz z
 751  0936  2800     R  	jmp _L103
 753  0937              #line 753 "f:\work\血糖仪\a_bh45f67-旧版\4g\美国客户\make_lib\v1.0.01（5000套出货)-02\g-777g-usa-bg95eseye-2022-2-20\lcd.c"
 753  0937  0FA3        	mov a,low (offset _disp_buff+5)
 753  0938  0083        	mov mp,a
 753  0939  0F03        	mov a,high (offset _disp_buff+5)
 753  093A  0081        	mov sbp,a
 753  093B  0701        	mov a,sbp
 753  093C  0D00     R  	or a,bank _Show_Big_number
 753  093D  0084        	mov bp,a
 753  093E  0FC0        	mov a,-64
 753  093F  0582        	orm a,ir
 753  0940  2800     R  	jmp _L103
 753  0941              _L101:
 758  0941              #line 758 "f:\work\血糖仪\a_bh45f67-旧版\4g\美国客户\make_lib\v1.0.01（5000套出货)-02\g-777g-usa-bg95eseye-2022-2-20\lcd.c"
 758  0941  0FA3        	mov a,low (offset _disp_buff+5)
 758  0942  0083        	mov mp,a
 758  0943  0F03        	mov a,high (offset _disp_buff+5)
 758  0944  0081        	mov sbp,a
 758  0945  0701        	mov a,sbp
 758  0946  0D00     R  	or a,bank _Show_Big_number
 758  0947  0084        	mov bp,a
 758  0948  0F1F        	mov a,31
 758  0949  0682        	andm a,ir
 758  094A              _L103:
 760  094A              #line 760 "f:\work\血糖仪\a_bh45f67-旧版\4g\美国客户\make_lib\v1.0.01（5000套出货)-02\g-777g-usa-bg95eseye-2022-2-20\lcd.c"
 760  094A  0700     R  	mov a,_Show_Big_number_2[4]
 760  094B  0A04        	sub a,4
 760  094C  3D0A        	sz z
 760  094D  2800     R  	jmp _L104
 762  094E              #line 762 "f:\work\血糖仪\a_bh45f67-旧版\4g\美国客户\make_lib\v1.0.01（5000套出货)-02\g-777g-usa-bg95eseye-2022-2-20\lcd.c"
 762  094E  0FB2        	mov a,low offset _sys_Month
 762  094F  0083        	mov mp,a
 762  0950  0F03        	mov a,high offset _sys_Month
 762  0951  0081        	mov sbp,a
 762  0952  2800     R  	jmp _L141
 762  0953              _L104:
 766  0953              #line 766 "f:\work\血糖仪\a_bh45f67-旧版\4g\美国客户\make_lib\v1.0.01（5000套出货)-02\g-777g-usa-bg95eseye-2022-2-20\lcd.c"
 766  0953  0FDC        	mov a,low (offset _test_buff+1)
 766  0954  0083        	mov mp,a
 766  0955  0F03        	mov a,high (offset _test_buff+1)
 766  0956  0081        	mov sbp,a
 766  0957              _L141:
 766  0957  0701        	mov a,sbp
 766  0958  0D00     R  	or a,bank _Show_Big_number
 766  0959  0084        	mov bp,a
 766  095A  0702        	mov a,ir
 766  095B  0080     E  	mov rb,a
 766  095C  1F00     E  	clr _builtin_holtek_udivmodqi4_2[3]
 766  095D  0700     E  	mov a,rb
 766  095E  0080     E  	mov _builtin_holtek_udivmodqi4_2[0],a
 766  095F  0F0A        	mov a,10
 766  0960  0080     E  	mov _builtin_holtek_udivmodqi4_2[1],a
 766  0961              	fcall _builtin_holtek_udivmodqi4
 766  0968  0700     E  	mov a,_builtin_holtek_udivmodqi4_2[2]
 766  0969  0080     E  	mov rb,a
 768  096A              #line 768 "f:\work\血糖仪\a_bh45f67-旧版\4g\美国客户\make_lib\v1.0.01（5000套出货)-02\g-777g-usa-bg95eseye-2022-2-20\lcd.c"
 768  096A  1F00     E  	clr rc
 768  096B  340A        	clr c
 768  096C  1A80     E  	rlc rb
文件：lcd.c        编译器版本 HGASM 0202 页次76

 768  096D  1A80     E  	rlc rc
 768  096E  0F00     R  	mov a,low offset _small_number_tab
 768  096F  0300     E  	add a,rb
 768  0970  0083        	mov mp,a
 768  0971  0F00     R  	mov a,high offset _small_number_tab
 768  0972  1300     E  	adc a,rc
 768  0973  0081        	mov sbp,a
 768  0974              	fcall _Crom2Prom
 768  097B  0080     E  	mov ra,a
 768  097C  0FA4        	mov a,low (offset _disp_buff+6)
 768  097D  0083        	mov mp,a
 768  097E  0F03        	mov a,high (offset _disp_buff+6)
 768  097F  0081        	mov sbp,a
 768  0980  0701        	mov a,sbp
 768  0981  0D00     R  	or a,bank _Show_Big_number
 768  0982  0084        	mov bp,a
 768  0983  0700     E  	mov a,ra
 768  0984  0082        	mov ir,a
 769  0985              #line 769 "f:\work\血糖仪\a_bh45f67-旧版\4g\美国客户\make_lib\v1.0.01（5000套出货)-02\g-777g-usa-bg95eseye-2022-2-20\lcd.c"
 769  0985  0700     R  	mov a,_Show_Big_number_2[4]
 769  0986  0A04        	sub a,4
 769  0987  3D0A        	sz z
 769  0988  2800     R  	jmp _L106
 771  0989              #line 771 "f:\work\血糖仪\a_bh45f67-旧版\4g\美国客户\make_lib\v1.0.01（5000套出货)-02\g-777g-usa-bg95eseye-2022-2-20\lcd.c"
 771  0989  0FB3        	mov a,low offset _sys_Day
 771  098A  0083        	mov mp,a
 771  098B  0F03        	mov a,high offset _sys_Day
 771  098C  0081        	mov sbp,a
 771  098D  2800     R  	jmp _L142
 771  098E              _L106:
 775  098E              #line 775 "f:\work\血糖仪\a_bh45f67-旧版\4g\美国客户\make_lib\v1.0.01（5000套出货)-02\g-777g-usa-bg95eseye-2022-2-20\lcd.c"
 775  098E  0FDD        	mov a,low (offset _test_buff+2)
 775  098F  0083        	mov mp,a
 775  0990  0F03        	mov a,high (offset _test_buff+2)
 775  0991  0081        	mov sbp,a
 775  0992              _L142:
 775  0992  0701        	mov a,sbp
 775  0993  0D00     R  	or a,bank _Show_Big_number
 775  0994  0084        	mov bp,a
 775  0995  0702        	mov a,ir
 775  0996  0080     E  	mov rb,a
 775  0997  1F00     E  	clr _builtin_holtek_udivmodqi4_2[3]
 775  0998  0700     E  	mov a,rb
 775  0999  0080     E  	mov _builtin_holtek_udivmodqi4_2[0],a
 775  099A  0F0A        	mov a,10
 775  099B  0080     E  	mov _builtin_holtek_udivmodqi4_2[1],a
 775  099C              	fcall _builtin_holtek_udivmodqi4
 775  09A3  0700     E  	mov a,_builtin_holtek_udivmodqi4_2[0]
 775  09A4  0080     E  	mov rb,a
 777  09A5              #line 777 "f:\work\血糖仪\a_bh45f67-旧版\4g\美国客户\make_lib\v1.0.01（5000套出货)-02\g-777g-usa-bg95eseye-2022-2-20\lcd.c"
 777  09A5  1F00     E  	clr rc
 777  09A6  340A        	clr c
 777  09A7  1A80     E  	rlc rb
 777  09A8  1A80     E  	rlc rc
 777  09A9  0F00     R  	mov a,low offset _small_number_tab
 777  09AA  0300     E  	add a,rb
 777  09AB  0083        	mov mp,a
 777  09AC  0F00     R  	mov a,high offset _small_number_tab
 777  09AD  1300     E  	adc a,rc
 777  09AE  0081        	mov sbp,a
文件：lcd.c        编译器版本 HGASM 0202 页次77

 777  09AF              	fcall _Crom2Prom
 777  09B6  0080     E  	mov rb,a
 777  09B7              	fcall _Crom2PromNext
 777  09BE  0080     E  	mov rc,a
 777  09BF  0700     E  	mov a,rb
 777  09C0  0080     E  	mov ra,a
 777  09C1  1100     E  	swapa ra
 777  09C2  0EF0        	and a,0f0h 
 777  09C3  0080     E  	mov ra,a
 777  09C4  0FA8        	mov a,low (offset _disp_buff+10)
 777  09C5  0083        	mov mp,a
 777  09C6  0F03        	mov a,high (offset _disp_buff+10)
 777  09C7  0081        	mov sbp,a
 778  09C8              #line 778 "f:\work\血糖仪\a_bh45f67-旧版\4g\美国客户\make_lib\v1.0.01（5000套出货)-02\g-777g-usa-bg95eseye-2022-2-20\lcd.c"
 778  09C8  3000     E  	set ra.4
 778  09C9  0701        	mov a,sbp
 778  09CA  0D00     R  	or a,bank _Show_Big_number
 778  09CB  0084        	mov bp,a
 778  09CC  0700     E  	mov a,ra
 778  09CD  0082        	mov ir,a
 779  09CE              #line 779 "f:\work\血糖仪\a_bh45f67-旧版\4g\美国客户\make_lib\v1.0.01（5000套出货)-02\g-777g-usa-bg95eseye-2022-2-20\lcd.c"
 779  09CE  0F04        	mov a,4
 779  09CF              _LI14:
 779  09CF  340A        	clr c
 779  09D0  3C00     E  	sz rc.7
 779  09D1  300A        	set c
 779  09D2  1B80     E  	rrc rc
 779  09D3  1B80     E  	rrc rb
 779  09D4  1785        	sdz acc
 779  09D5  2800     R  	jmp _LI14
 779  09D6  1483        	inc mp
 779  09D7  3D0A        	sz z
 779  09D8  1481        	inc sbp
 779  09D9  0701        	mov a,sbp
 779  09DA  0D00     R  	or a,bank _Show_Big_number
 779  09DB  0084        	mov bp,a
 779  09DC  0700     E  	mov a,rb
 779  09DD  0082        	mov ir,a
 780  09DE              #line 780 "f:\work\血糖仪\a_bh45f67-旧版\4g\美国客户\make_lib\v1.0.01（5000套出货)-02\g-777g-usa-bg95eseye-2022-2-20\lcd.c"
 780  09DE  0700     R  	mov a,_Show_Big_number_2[4]
 780  09DF  0A04        	sub a,4
 780  09E0  3D0A        	sz z
 780  09E1  2800     R  	jmp _L108
 782  09E2              #line 782 "f:\work\血糖仪\a_bh45f67-旧版\4g\美国客户\make_lib\v1.0.01（5000套出货)-02\g-777g-usa-bg95eseye-2022-2-20\lcd.c"
 782  09E2  0FB3        	mov a,low offset _sys_Day
 782  09E3  0083        	mov mp,a
 782  09E4  0F03        	mov a,high offset _sys_Day
 782  09E5  0081        	mov sbp,a
 782  09E6  2800     R  	jmp _L143
 782  09E7              _L108:
 786  09E7              #line 786 "f:\work\血糖仪\a_bh45f67-旧版\4g\美国客户\make_lib\v1.0.01（5000套出货)-02\g-777g-usa-bg95eseye-2022-2-20\lcd.c"
 786  09E7  0FDD        	mov a,low (offset _test_buff+2)
 786  09E8  0083        	mov mp,a
 786  09E9  0F03        	mov a,high (offset _test_buff+2)
 786  09EA  0081        	mov sbp,a
 786  09EB              _L143:
 786  09EB  0701        	mov a,sbp
 786  09EC  0D00     R  	or a,bank _Show_Big_number
 786  09ED  0084        	mov bp,a
 786  09EE  0702        	mov a,ir
文件：lcd.c        编译器版本 HGASM 0202 页次78

 786  09EF  0080     E  	mov rb,a
 786  09F0  1F00     E  	clr _builtin_holtek_udivmodqi4_2[3]
 786  09F1  0700     E  	mov a,rb
 786  09F2  0080     E  	mov _builtin_holtek_udivmodqi4_2[0],a
 786  09F3  0F0A        	mov a,10
 786  09F4  0080     E  	mov _builtin_holtek_udivmodqi4_2[1],a
 786  09F5              	fcall _builtin_holtek_udivmodqi4
 786  09FC  0700     E  	mov a,_builtin_holtek_udivmodqi4_2[2]
 786  09FD  0080     E  	mov rb,a
 788  09FE              #line 788 "f:\work\血糖仪\a_bh45f67-旧版\4g\美国客户\make_lib\v1.0.01（5000套出货)-02\g-777g-usa-bg95eseye-2022-2-20\lcd.c"
 788  09FE  0FA9        	mov a,low (offset _disp_buff+11)
 788  09FF  0083        	mov mp,a
 788  0A00  0F03        	mov a,high (offset _disp_buff+11)
 788  0A01  0081        	mov sbp,a
 788  0A02  0701        	mov a,sbp
 788  0A03  0D00     R  	or a,bank _Show_Big_number
 788  0A04  0084        	mov bp,a
 788  0A05  0702        	mov a,ir
 788  0A06  0080     E  	mov ra,a
 789  0A07              #line 789 "f:\work\血糖仪\a_bh45f67-旧版\4g\美国客户\make_lib\v1.0.01（5000套出货)-02\g-777g-usa-bg95eseye-2022-2-20\lcd.c"
 789  0A07  1F00     E  	clr rc
 789  0A08  340A        	clr c
 789  0A09  1A80     E  	rlc rb
 789  0A0A  1A80     E  	rlc rc
 789  0A0B  0F00     R  	mov a,low offset _small_number_tab
 789  0A0C  0300     E  	add a,rb
 789  0A0D  0083        	mov mp,a
 789  0A0E  0F00     R  	mov a,high offset _small_number_tab
 789  0A0F  1300     E  	adc a,rc
 789  0A10  0081        	mov sbp,a
 789  0A11              	fcall _Crom2Prom
 789  0A18  0080     E  	mov rb,a
 789  0A19              	fcall _Crom2PromNext
 789  0A20  0080     E  	mov rc,a
 789  0A21  0700     E  	mov a,rb
 789  0A22  0080     E  	mov rd,a
 789  0A23  1100     E  	swapa rd
 789  0A24  0EF0        	and a,0f0h 
 789  0A25  0080     E  	mov rd,a
 789  0A26  0FA9        	mov a,low (offset _disp_buff+11)
 789  0A27  0083        	mov mp,a
 789  0A28  0F03        	mov a,high (offset _disp_buff+11)
 789  0A29  0081        	mov sbp,a
 790  0A2A              #line 790 "f:\work\血糖仪\a_bh45f67-旧版\4g\美国客户\make_lib\v1.0.01（5000套出货)-02\g-777g-usa-bg95eseye-2022-2-20\lcd.c"
 790  0A2A  0700     E  	mov a,rd
 790  0A2B  0580     E  	orm a,ra
 790  0A2C  0701        	mov a,sbp
 790  0A2D  0D00     R  	or a,bank _Show_Big_number
 790  0A2E  0084        	mov bp,a
 790  0A2F  0700     E  	mov a,ra
 790  0A30  0082        	mov ir,a
 792  0A31              #line 792 "f:\work\血糖仪\a_bh45f67-旧版\4g\美国客户\make_lib\v1.0.01（5000套出货)-02\g-777g-usa-bg95eseye-2022-2-20\lcd.c"
 792  0A31  0F04        	mov a,4
 792  0A32              _LI15:
 792  0A32  340A        	clr c
 792  0A33  3C00     E  	sz rc.7
 792  0A34  300A        	set c
 792  0A35  1B80     E  	rrc rc
 792  0A36  1B80     E  	rrc rb
 792  0A37  1785        	sdz acc
文件：lcd.c        编译器版本 HGASM 0202 页次79

 792  0A38  2800     R  	jmp _LI15
 792  0A39  1483        	inc mp
 792  0A3A  3D0A        	sz z
 792  0A3B  1481        	inc sbp
 792  0A3C  0701        	mov a,sbp
 792  0A3D  0D00     R  	or a,bank _Show_Big_number
 792  0A3E  0084        	mov bp,a
 792  0A3F  0700     E  	mov a,rb
 792  0A40  0082        	mov ir,a
 793  0A41              #line 793 "f:\work\血糖仪\a_bh45f67-旧版\4g\美国客户\make_lib\v1.0.01（5000套出货)-02\g-777g-usa-bg95eseye-2022-2-20\lcd.c"
 793  0A41  0700     R  	mov a,_Show_Big_number_2[4]
 793  0A42  0A04        	sub a,4
 793  0A43  3D0A        	sz z
 793  0A44  2800     R  	jmp _L110
 795  0A45              #line 795 "f:\work\血糖仪\a_bh45f67-旧版\4g\美国客户\make_lib\v1.0.01（5000套出货)-02\g-777g-usa-bg95eseye-2022-2-20\lcd.c"
 795  0A45  0FB4        	mov a,low offset _sys_Hour
 795  0A46  0083        	mov mp,a
 795  0A47  0F03        	mov a,high offset _sys_Hour
 795  0A48  0081        	mov sbp,a
 795  0A49  2800     R  	jmp _L144
 795  0A4A              _L110:
 799  0A4A              #line 799 "f:\work\血糖仪\a_bh45f67-旧版\4g\美国客户\make_lib\v1.0.01（5000套出货)-02\g-777g-usa-bg95eseye-2022-2-20\lcd.c"
 799  0A4A  0FDE        	mov a,low (offset _test_buff+3)
 799  0A4B  0083        	mov mp,a
 799  0A4C  0F03        	mov a,high (offset _test_buff+3)
 799  0A4D  0081        	mov sbp,a
 799  0A4E              _L144:
 799  0A4E  0701        	mov a,sbp
 799  0A4F  0D00     R  	or a,bank _Show_Big_number
 799  0A50  0084        	mov bp,a
 799  0A51  0702        	mov a,ir
 799  0A52  0080     E  	mov ra,a
 799  0A53  1F00     E  	clr _builtin_holtek_udivmodqi4_2[3]
 799  0A54  0700     E  	mov a,ra
 799  0A55  0080     E  	mov _builtin_holtek_udivmodqi4_2[0],a
 799  0A56  0F0A        	mov a,10
 799  0A57  0080     E  	mov _builtin_holtek_udivmodqi4_2[1],a
 799  0A58              	fcall _builtin_holtek_udivmodqi4
 799  0A5F  0700     E  	mov a,_builtin_holtek_udivmodqi4_2[0]
 799  0A60  0080     R  	mov _Show_Big_number_2[5],a
 801  0A61              #line 801 "f:\work\血糖仪\a_bh45f67-旧版\4g\美国客户\make_lib\v1.0.01（5000套出货)-02\g-777g-usa-bg95eseye-2022-2-20\lcd.c"
 801  0A61  1080     R  	sz _Show_Big_number_2[5]
 801  0A62  2800     R  	jmp _LI16
 801  0A63  2800     R  	jmp _L112
 801  0A64              _LI16:
 803  0A64              #line 803 "f:\work\血糖仪\a_bh45f67-旧版\4g\美国客户\make_lib\v1.0.01（5000套出货)-02\g-777g-usa-bg95eseye-2022-2-20\lcd.c"
 803  0A64  1700     R  	sdza _Show_Big_number_2[5]
 803  0A65  2800     R  	jmp _L113
 805  0A66              #line 805 "f:\work\血糖仪\a_bh45f67-旧版\4g\美国客户\make_lib\v1.0.01（5000套出货)-02\g-777g-usa-bg95eseye-2022-2-20\lcd.c"
 805  0A66  0FAA        	mov a,low (offset _disp_buff+12)
 805  0A67  0083        	mov mp,a
 805  0A68  0F03        	mov a,high (offset _disp_buff+12)
 805  0A69  0081        	mov sbp,a
 805  0A6A  0701        	mov a,sbp
 805  0A6B  0D00     R  	or a,bank _Show_Big_number
 805  0A6C  0084        	mov bp,a
 805  0A6D  0F60        	mov a,96
 805  0A6E  0582        	orm a,ir
 805  0A6F  2800     R  	jmp _L114
 805  0A70              _L113:
文件：lcd.c        编译器版本 HGASM 0202 页次80

 807  0A70              #line 807 "f:\work\血糖仪\a_bh45f67-旧版\4g\美国客户\make_lib\v1.0.01（5000套出货)-02\g-777g-usa-bg95eseye-2022-2-20\lcd.c"
 807  0A70  0700     R  	mov a,_Show_Big_number_2[5]
 807  0A71  0A02        	sub a,2
 807  0A72  390A        	snz z
 807  0A73  2800     R  	jmp _L114
 809  0A74              #line 809 "f:\work\血糖仪\a_bh45f67-旧版\4g\美国客户\make_lib\v1.0.01（5000套出货)-02\g-777g-usa-bg95eseye-2022-2-20\lcd.c"
 809  0A74  0FAA        	mov a,low (offset _disp_buff+12)
 809  0A75  0083        	mov mp,a
 809  0A76  0F03        	mov a,high (offset _disp_buff+12)
 809  0A77  0081        	mov sbp,a
 809  0A78  0701        	mov a,sbp
 809  0A79  0D00     R  	or a,bank _Show_Big_number
 809  0A7A  0084        	mov bp,a
 809  0A7B  0FC0        	mov a,-64
 809  0A7C  0582        	orm a,ir
 809  0A7D  2800     R  	jmp _L114
 809  0A7E              _L112:
 814  0A7E              #line 814 "f:\work\血糖仪\a_bh45f67-旧版\4g\美国客户\make_lib\v1.0.01（5000套出货)-02\g-777g-usa-bg95eseye-2022-2-20\lcd.c"
 814  0A7E  0FAA        	mov a,low (offset _disp_buff+12)
 814  0A7F  0083        	mov mp,a
 814  0A80  0F03        	mov a,high (offset _disp_buff+12)
 814  0A81  0081        	mov sbp,a
 814  0A82  0701        	mov a,sbp
 814  0A83  0D00     R  	or a,bank _Show_Big_number
 814  0A84  0084        	mov bp,a
 814  0A85  0F0F        	mov a,15
 814  0A86  0682        	andm a,ir
 814  0A87              _L114:
 816  0A87              #line 816 "f:\work\血糖仪\a_bh45f67-旧版\4g\美国客户\make_lib\v1.0.01（5000套出货)-02\g-777g-usa-bg95eseye-2022-2-20\lcd.c"
 816  0A87  0700     R  	mov a,_Show_Big_number_2[4]
 816  0A88  0A04        	sub a,4
 816  0A89  3D0A        	sz z
 816  0A8A  2800     R  	jmp _L115
 818  0A8B              #line 818 "f:\work\血糖仪\a_bh45f67-旧版\4g\美国客户\make_lib\v1.0.01（5000套出货)-02\g-777g-usa-bg95eseye-2022-2-20\lcd.c"
 818  0A8B  0FB4        	mov a,low offset _sys_Hour
 818  0A8C  0083        	mov mp,a
 818  0A8D  0F03        	mov a,high offset _sys_Hour
 818  0A8E  0081        	mov sbp,a
 818  0A8F  2800     R  	jmp _L145
 818  0A90              _L115:
 822  0A90              #line 822 "f:\work\血糖仪\a_bh45f67-旧版\4g\美国客户\make_lib\v1.0.01（5000套出货)-02\g-777g-usa-bg95eseye-2022-2-20\lcd.c"
 822  0A90  0FDE        	mov a,low (offset _test_buff+3)
 822  0A91  0083        	mov mp,a
 822  0A92  0F03        	mov a,high (offset _test_buff+3)
 822  0A93  0081        	mov sbp,a
 822  0A94              _L145:
 822  0A94  0701        	mov a,sbp
 822  0A95  0D00     R  	or a,bank _Show_Big_number
 822  0A96  0084        	mov bp,a
 822  0A97  0702        	mov a,ir
 822  0A98  0080     E  	mov rb,a
 822  0A99  1F00     E  	clr _builtin_holtek_udivmodqi4_2[3]
 822  0A9A  0700     E  	mov a,rb
 822  0A9B  0080     E  	mov _builtin_holtek_udivmodqi4_2[0],a
 822  0A9C  0F0A        	mov a,10
 822  0A9D  0080     E  	mov _builtin_holtek_udivmodqi4_2[1],a
 822  0A9E              	fcall _builtin_holtek_udivmodqi4
 822  0AA5  0700     E  	mov a,_builtin_holtek_udivmodqi4_2[2]
 822  0AA6  0080     E  	mov rb,a
 824  0AA7              #line 824 "f:\work\血糖仪\a_bh45f67-旧版\4g\美国客户\make_lib\v1.0.01（5000套出货)-02\g-777g-usa-bg95eseye-2022-2-20\lcd.c"
文件：lcd.c        编译器版本 HGASM 0202 页次81

 824  0AA7  1F00     E  	clr rc
 824  0AA8  340A        	clr c
 824  0AA9  1A80     E  	rlc rb
 824  0AAA  1A80     E  	rlc rc
 824  0AAB  0F00     R  	mov a,low offset _small_number_tab
 824  0AAC  0300     E  	add a,rb
 824  0AAD  0083        	mov mp,a
 824  0AAE  0F00     R  	mov a,high offset _small_number_tab
 824  0AAF  1300     E  	adc a,rc
 824  0AB0  0081        	mov sbp,a
 824  0AB1              	fcall _Crom2Prom
 824  0AB8  0080     E  	mov ra,a
 824  0AB9  0FAB        	mov a,low (offset _disp_buff+13)
 824  0ABA  0083        	mov mp,a
 824  0ABB  0F03        	mov a,high (offset _disp_buff+13)
 824  0ABC  0081        	mov sbp,a
 824  0ABD  0701        	mov a,sbp
 824  0ABE  0D00     R  	or a,bank _Show_Big_number
 824  0ABF  0084        	mov bp,a
 824  0AC0  0700     E  	mov a,ra
 824  0AC1  0082        	mov ir,a
 825  0AC2              #line 825 "f:\work\血糖仪\a_bh45f67-旧版\4g\美国客户\make_lib\v1.0.01（5000套出货)-02\g-777g-usa-bg95eseye-2022-2-20\lcd.c"
 825  0AC2  0700     R  	mov a,_Show_Big_number_2[4]
 825  0AC3  0A04        	sub a,4
 825  0AC4  3D0A        	sz z
 825  0AC5  2800     R  	jmp _L117
 827  0AC6              #line 827 "f:\work\血糖仪\a_bh45f67-旧版\4g\美国客户\make_lib\v1.0.01（5000套出货)-02\g-777g-usa-bg95eseye-2022-2-20\lcd.c"
 827  0AC6  0FB5        	mov a,low offset _sys_Minute
 827  0AC7  0083        	mov mp,a
 827  0AC8  0F03        	mov a,high offset _sys_Minute
 827  0AC9  0081        	mov sbp,a
 827  0ACA  2800     R  	jmp _L146
 827  0ACB              _L117:
 831  0ACB              #line 831 "f:\work\血糖仪\a_bh45f67-旧版\4g\美国客户\make_lib\v1.0.01（5000套出货)-02\g-777g-usa-bg95eseye-2022-2-20\lcd.c"
 831  0ACB  0FDF        	mov a,low (offset _test_buff+4)
 831  0ACC  0083        	mov mp,a
 831  0ACD  0F03        	mov a,high (offset _test_buff+4)
 831  0ACE  0081        	mov sbp,a
 831  0ACF              _L146:
 831  0ACF  0701        	mov a,sbp
 831  0AD0  0D00     R  	or a,bank _Show_Big_number
 831  0AD1  0084        	mov bp,a
 831  0AD2  0702        	mov a,ir
 831  0AD3  0080     E  	mov rb,a
 831  0AD4  1F00     E  	clr _builtin_holtek_udivmodqi4_2[3]
 831  0AD5  0700     E  	mov a,rb
 831  0AD6  0080     E  	mov _builtin_holtek_udivmodqi4_2[0],a
 831  0AD7  0F0A        	mov a,10
 831  0AD8  0080     E  	mov _builtin_holtek_udivmodqi4_2[1],a
 831  0AD9              	fcall _builtin_holtek_udivmodqi4
 831  0AE0  0700     E  	mov a,_builtin_holtek_udivmodqi4_2[0]
 831  0AE1  0080     E  	mov rb,a
 833  0AE2              #line 833 "f:\work\血糖仪\a_bh45f67-旧版\4g\美国客户\make_lib\v1.0.01（5000套出货)-02\g-777g-usa-bg95eseye-2022-2-20\lcd.c"
 833  0AE2  1F00     E  	clr rc
 833  0AE3  340A        	clr c
 833  0AE4  1A80     E  	rlc rb
 833  0AE5  1A80     E  	rlc rc
 833  0AE6  0F00     R  	mov a,low offset _small_number_tab
 833  0AE7  0300     E  	add a,rb
 833  0AE8  0083        	mov mp,a
文件：lcd.c        编译器版本 HGASM 0202 页次82

 833  0AE9  0F00     R  	mov a,high offset _small_number_tab
 833  0AEA  1300     E  	adc a,rc
 833  0AEB  0081        	mov sbp,a
 833  0AEC              	fcall _Crom2Prom
 833  0AF3  0080     E  	mov ra,a
 833  0AF4  0FAC        	mov a,low (offset _disp_buff+14)
 833  0AF5  0083        	mov mp,a
 833  0AF6  0F03        	mov a,high (offset _disp_buff+14)
 833  0AF7  0081        	mov sbp,a
 834  0AF8              #line 834 "f:\work\血糖仪\a_bh45f67-旧版\4g\美国客户\make_lib\v1.0.01（5000套出货)-02\g-777g-usa-bg95eseye-2022-2-20\lcd.c"
 834  0AF8  3000     E  	set ra.0
 834  0AF9  0701        	mov a,sbp
 834  0AFA  0D00     R  	or a,bank _Show_Big_number
 834  0AFB  0084        	mov bp,a
 834  0AFC  0700     E  	mov a,ra
 834  0AFD  0082        	mov ir,a
 835  0AFE              #line 835 "f:\work\血糖仪\a_bh45f67-旧版\4g\美国客户\make_lib\v1.0.01（5000套出货)-02\g-777g-usa-bg95eseye-2022-2-20\lcd.c"
 835  0AFE  0700     R  	mov a,_Show_Big_number_2[4]
 835  0AFF  0A04        	sub a,4
 835  0B00  3D0A        	sz z
 835  0B01  2800     R  	jmp _L119
 837  0B02              #line 837 "f:\work\血糖仪\a_bh45f67-旧版\4g\美国客户\make_lib\v1.0.01（5000套出货)-02\g-777g-usa-bg95eseye-2022-2-20\lcd.c"
 837  0B02  0FB5        	mov a,low offset _sys_Minute
 837  0B03  0083        	mov mp,a
 837  0B04  0F03        	mov a,high offset _sys_Minute
 837  0B05  0081        	mov sbp,a
 837  0B06  2800     R  	jmp _L147
 837  0B07              _L119:
 841  0B07              #line 841 "f:\work\血糖仪\a_bh45f67-旧版\4g\美国客户\make_lib\v1.0.01（5000套出货)-02\g-777g-usa-bg95eseye-2022-2-20\lcd.c"
 841  0B07  0FDF        	mov a,low (offset _test_buff+4)
 841  0B08  0083        	mov mp,a
 841  0B09  0F03        	mov a,high (offset _test_buff+4)
 841  0B0A  0081        	mov sbp,a
 841  0B0B              _L147:
 841  0B0B  0701        	mov a,sbp
 841  0B0C  0D00     R  	or a,bank _Show_Big_number
 841  0B0D  0084        	mov bp,a
 841  0B0E  0702        	mov a,ir
 841  0B0F  0080     E  	mov rb,a
 841  0B10  1F00     E  	clr _builtin_holtek_udivmodqi4_2[3]
 841  0B11  0700     E  	mov a,rb
 841  0B12  0080     E  	mov _builtin_holtek_udivmodqi4_2[0],a
 841  0B13  0F0A        	mov a,10
 841  0B14  0080     E  	mov _builtin_holtek_udivmodqi4_2[1],a
 841  0B15              	fcall _builtin_holtek_udivmodqi4
 841  0B1C  0700     E  	mov a,_builtin_holtek_udivmodqi4_2[2]
 841  0B1D  0080     E  	mov rb,a
 843  0B1E              #line 843 "f:\work\血糖仪\a_bh45f67-旧版\4g\美国客户\make_lib\v1.0.01（5000套出货)-02\g-777g-usa-bg95eseye-2022-2-20\lcd.c"
 843  0B1E  1F00     E  	clr rc
 843  0B1F  340A        	clr c
 843  0B20  1A80     E  	rlc rb
 843  0B21  1A80     E  	rlc rc
 843  0B22  0F00     R  	mov a,low offset _small_number_tab
 843  0B23  0300     E  	add a,rb
 843  0B24  0083        	mov mp,a
 843  0B25  0F00     R  	mov a,high offset _small_number_tab
 843  0B26  1300     E  	adc a,rc
 843  0B27  0081        	mov sbp,a
 843  0B28              	fcall _Crom2Prom
 843  0B2F  0080     E  	mov ra,a
文件：lcd.c        编译器版本 HGASM 0202 页次83

 843  0B30  0FAD        	mov a,low (offset _disp_buff+15)
 843  0B31  0083        	mov mp,a
 843  0B32  0F03        	mov a,high (offset _disp_buff+15)
 843  0B33  0081        	mov sbp,a
 843  0B34  0701        	mov a,sbp
 843  0B35  0D00     R  	or a,bank _Show_Big_number
 843  0B36  0084        	mov bp,a
 843  0B37  0700     E  	mov a,ra
 843  0B38  0082        	mov ir,a
 843  0B39              _L77:
 848  0B39              #line 848 "f:\work\血糖仪\a_bh45f67-旧版\4g\美国客户\make_lib\v1.0.01（5000套出货)-02\g-777g-usa-bg95eseye-2022-2-20\lcd.c"
 848  0B39  0700     R  	mov a,_Show_Big_number_2[2]
 848  0B3A  0C01        	xor a,1
 848  0B3B  0500     R  	or a,_Show_Big_number_2[3]
 848  0B3C  3D0A        	sz z
 848  0B3D  2800     R  	jmp _L121
 850  0B3E              #line 850 "f:\work\血糖仪\a_bh45f67-旧版\4g\美国客户\make_lib\v1.0.01（5000套出货)-02\g-777g-usa-bg95eseye-2022-2-20\lcd.c"
 850  0B3E  0F81        	mov a,low (offset _SystemFlags+1)
 850  0B3F  0083        	mov mp,a
 850  0B40  0F03        	mov a,high (offset _SystemFlags+1)
 850  0B41  0081        	mov sbp,a
 850  0B42  0701        	mov a,sbp
 850  0B43  0D00     R  	or a,bank _Show_Big_number
 850  0B44  0084        	mov bp,a
 850  0B45  0702        	mov a,ir
 850  0B46  0080     E  	mov ra,a
 852  0B47              #line 852 "f:\work\血糖仪\a_bh45f67-旧版\4g\美国客户\make_lib\v1.0.01（5000套出货)-02\g-777g-usa-bg95eseye-2022-2-20\lcd.c"
 852  0B47  0FA2        	mov a,low (offset _disp_buff+4)
 852  0B48  0083        	mov mp,a
 852  0B49  0F03        	mov a,high (offset _disp_buff+4)
 852  0B4A  0081        	mov sbp,a
 850  0B4B              #line 850 "f:\work\血糖仪\a_bh45f67-旧版\4g\美国客户\make_lib\v1.0.01（5000套出货)-02\g-777g-usa-bg95eseye-2022-2-20\lcd.c"
 850  0B4B  3800     E  	snz ra.1
 850  0B4C  2800     R  	jmp _L122
 852  0B4D              #line 852 "f:\work\血糖仪\a_bh45f67-旧版\4g\美国客户\make_lib\v1.0.01（5000套出货)-02\g-777g-usa-bg95eseye-2022-2-20\lcd.c"
 852  0B4D  0701        	mov a,sbp
 852  0B4E  0D00     R  	or a,bank _Show_Big_number
 852  0B4F  0084        	mov bp,a
 852  0B50  3002        	set ir.0
 852  0B51  2800     R  	jmp _L148
 852  0B52              _L122:
 857  0B52              #line 857 "f:\work\血糖仪\a_bh45f67-旧版\4g\美国客户\make_lib\v1.0.01（5000套出货)-02\g-777g-usa-bg95eseye-2022-2-20\lcd.c"
 857  0B52  0701        	mov a,sbp
 857  0B53  0D00     R  	or a,bank _Show_Big_number
 857  0B54  0084        	mov bp,a
 857  0B55  3402        	clr ir.0
 858  0B56              #line 858 "f:\work\血糖仪\a_bh45f67-旧版\4g\美国客户\make_lib\v1.0.01（5000套出货)-02\g-777g-usa-bg95eseye-2022-2-20\lcd.c"
 858  0B56  1483        	inc mp
 858  0B57  3D0A        	sz z
 858  0B58  1481        	inc sbp
 858  0B59  0701        	mov a,sbp
 858  0B5A  0D00     R  	or a,bank _Show_Big_number
 858  0B5B  0084        	mov bp,a
 858  0B5C  3202        	set ir.4
 858  0B5D  2800     R  	jmp _L80
 858  0B5E              _L121:
 863  0B5E              #line 863 "f:\work\血糖仪\a_bh45f67-旧版\4g\美国客户\make_lib\v1.0.01（5000套出货)-02\g-777g-usa-bg95eseye-2022-2-20\lcd.c"
 863  0B5E  0FA2        	mov a,low (offset _disp_buff+4)
 863  0B5F  0083        	mov mp,a
 863  0B60  0F03        	mov a,high (offset _disp_buff+4)
文件：lcd.c        编译器版本 HGASM 0202 页次84

 863  0B61  0081        	mov sbp,a
 863  0B62  0701        	mov a,sbp
 863  0B63  0D00     R  	or a,bank _Show_Big_number
 863  0B64  0084        	mov bp,a
 863  0B65  3402        	clr ir.0
 863  0B66              _L148:
 864  0B66              #line 864 "f:\work\血糖仪\a_bh45f67-旧版\4g\美国客户\make_lib\v1.0.01（5000套出货)-02\g-777g-usa-bg95eseye-2022-2-20\lcd.c"
 864  0B66  1483        	inc mp
 864  0B67  3D0A        	sz z
 864  0B68  1481        	inc sbp
 864  0B69  0701        	mov a,sbp
 864  0B6A  0D00     R  	or a,bank _Show_Big_number
 864  0B6B  0084        	mov bp,a
 864  0B6C  3602        	clr ir.4
 864  0B6D              _L80:
 868  0B6D              #line 868 "f:\work\血糖仪\a_bh45f67-旧版\4g\美国客户\make_lib\v1.0.01（5000套出货)-02\g-777g-usa-bg95eseye-2022-2-20\lcd.c"
 868  0B6D              	fcall _show_battery
 868  0B74  0003        	ret
 868  0B75              _Show_Big_number endp
 868  0B75              #line 868 "f:\work\血糖仪\a_bh45f67-旧版\4g\美国客户\make_lib\v1.0.01（5000套出货)-02\g-777g-usa-bg95eseye-2022-2-20\lcd.c"
 868  0B75              #pragma debug scope 1 1
 868  0B75              public _small_number_tab
 868  0000              @crom	.section 'crom'
  78  0000              #line 78 "f:\work\血糖仪\a_bh45f67-旧版\4g\美国客户\make_lib\v1.0.01（5000套出货)-02\g-777g-usa-bg95eseye-2022-2-20\lcd.c"
  78  0000              @crom	.section	'crom'
  78  0000              _small_number_tab:
  78  0000              #pragma debug array 43 11 10 1
  78  0000              #pragma debug array 43 11 10 1
  78  0000              #pragma debug variable 43 1 _small_number_tab "small_number_tab"
  78  0000  00FA        	dc 250
  78  0001  0060        	dc 96
  78  0002  00D6        	dc 214
  78  0003  00F4        	dc 244
  78  0004  006C        	dc 108
  78  0005  00BC        	dc 188
  78  0006  00BE        	dc 190
  78  0007  00E0        	dc 224
  78  0008  00FE        	dc 254
  78  0009  00FC        	dc 252
  78  000A              public _number_tabL2
  63  000A              #line 63 "f:\work\血糖仪\a_bh45f67-旧版\4g\美国客户\make_lib\v1.0.01（5000套出货)-02\g-777g-usa-bg95eseye-2022-2-20\lcd.c"
  63  000A              @crom	.section	'crom'
  63  000A              _number_tabL2:
  63  000A              #pragma debug array 44 8 11 1
  63  000A              #pragma debug array 44 8 11 1
  63  000A              #pragma debug variable 44 1 _number_tabL2 "number_tabL2"
  63  000A              	db 7
  63  000B              	db 6
  63  000B              	db 5
  63  000C              	db 7
  63  000C              	db 6
  63  000D              	db 3
  63  000D              	db 3
  63  000E              	db 6
  63  000E              	db 7
  63  000F              	db 7
  63  000F              	db 0
  63  0010              public _number_tabM
  49  0010              #line 49 "f:\work\血糖仪\a_bh45f67-旧版\4g\美国客户\make_lib\v1.0.01（5000套出货)-02\g-777g-usa-bg95eseye-2022-2-20\lcd.c"
  49  0010              @crom	.section	'crom'
文件：lcd.c        编译器版本 HGASM 0202 页次85

  49  0010              _number_tabM:
  49  0010              #pragma debug variable 44 1 _number_tabM "number_tabM"
  49  0010              	db 8
  49  0010              	db 0
  49  0011              	db 10
  49  0011              	db 10
  49  0012              	db 2
  49  0012              	db 10
  49  0013              	db 10
  49  0013              	db 8
  49  0014              	db 10
  49  0014              	db 14
  49  0015              	db 0
  49  0015              public _number_tabR2
  35  0015              #line 35 "f:\work\血糖仪\a_bh45f67-旧版\4g\美国客户\make_lib\v1.0.01（5000套出货)-02\g-777g-usa-bg95eseye-2022-2-20\lcd.c"
  35  0015              @crom	.section	'crom'
  35  0015              _number_tabR2:
  35  0015              #pragma debug variable 44 1 _number_tabR2 "number_tabR2"
  35  0015              	db 6
  35  0016              	db 0
  35  0016              	db 2
  35  0017              	db 0
  35  0017              	db 4
  35  0018              	db 4
  35  0018              	db 6
  35  0019              	db 0
  35  0019              	db 6
  35  001A              	db 4
  35  001A              	db 0
  35  001B              public _number_tabL
  21  001B              #line 21 "f:\work\血糖仪\a_bh45f67-旧版\4g\美国客户\make_lib\v1.0.01（5000套出货)-02\g-777g-usa-bg95eseye-2022-2-20\lcd.c"
  21  001B              @crom	.section	'crom'
  21  001B              _number_tabL:
  21  001B              #pragma debug variable 44 1 _number_tabL "number_tabL"
  21  001B              	db 15
  21  001B              	db 6
  21  001C              	db 13
  21  001C              	db 15
  21  001D              	db 6
  21  001D              	db 11
  21  001E              	db 11
  21  001E              	db 14
  21  001F              	db 15
  21  001F              	db 15
  21  0020              	db 0
  21  0020              public _number_tabR
   7  0020              #line 7 "f:\work\血糖仪\a_bh45f67-旧版\4g\美国客户\make_lib\v1.0.01（5000套出货)-02\g-777g-usa-bg95eseye-2022-2-20\lcd.c"
   7  0020              @crom	.section	'crom'
   7  0020              _number_tabR:
   7  0020              #pragma debug variable 44 1 _number_tabR "number_tabR"
   7  0020              	db 5
   7  0021              	db 0
   7  0021              	db 3
   7  0022              	db 2
   7  0022              	db 6
   7  0023              	db 6
   7  0023              	db 7
   7  0024              	db 0
   7  0024              	db 7
   7  0025              	db 6
文件：lcd.c        编译器版本 HGASM 0202 页次86

   7  0025              	db 0
   7  0026              #pragma debug array 45 8 32 1
   7  0026              #pragma debug array 45 8 32 1
   7  0026              #pragma debug variable 45 1 _LcdRam "LcdRam" 32
   7  0026              #pragma debug struct_end
   7  0026              #pragma debug struct_end
   7  0026              #pragma debug union_end
   7  0026              #pragma debug union_end
   7  0026              #pragma debug struct_end
   7  0026              #pragma debug struct_end
   7  0026              #pragma debug union_end
   7  0026              #pragma debug union_end
   7  0026              #pragma debug variable 49 1 _SystemFlags "SystemFlags" 14
   7  0026              #pragma debug array 50 8 16 1
   7  0026              #pragma debug array 50 8 16 1
   7  0026              #pragma debug variable 50 1 _flash "flash" 16
   7  0026              #pragma debug variable 50 1 _disp_buff "disp_buff" 16
   7  0026              #pragma debug variable 8 1 _sys_time "sys_time" 1
   7  0026              #pragma debug variable 8 1 _sys_Month "sys_Month" 1
   7  0026              #pragma debug variable 8 1 _sys_Day "sys_Day" 1
   7  0026              #pragma debug variable 8 1 _sys_Hour "sys_Hour" 1
   7  0026              #pragma debug variable 8 1 _sys_Minute "sys_Minute" 1
   7  0026              #pragma debug variable 8 1 _sys_Second "sys_Second" 1
   7  0026              #pragma debug variable 14 1 _Blood_glucose "Blood_glucose" 4
   7  0026              #pragma debug array 51 8 22 1
   7  0026              #pragma debug array 51 8 22 1
   7  0026              #pragma debug variable 51 1 _test_buff "test_buff" 22
   7  0026              #pragma debug variable 8 1 _Temperature_coefficient "Temperature_coefficient" 1
   7  0026              #pragma debug variable 8 1 _Temperature_CTL_coefficient "Temperature_CTL_coefficient" 1
   7  0026              #pragma debug variable 10 1 _Second "Second" 2
   7  0026              #pragma debug variable 10 1 _uart_time "uart_time" 2
   7  0026              #pragma debug variable 10 1 _Gsm_timer "Gsm_timer" 2
   7  0026              extern r1:byte
   7  0026              extern r2:byte
   7  0026              extern r3:byte
   7  0026              extern r4:byte
   7  0026              extern r5:byte
   7  0026              extern _memset_2:byte
   7  0026              extern _memset:near
   7  0026              extern _builtin_holtek_mulsi3_2:byte
   7  0026              extern _builtin_holtek_mulsi3:near
   7  0026              extern _builtin_holtek_udivmodsi4_2:byte
   7  0026              extern _builtin_holtek_udivmodsi4:near
   7  0026              extern _builtin_holtek_udivmodqi4_2:byte
   7  0026              extern _builtin_holtek_udivmodqi4:near
   7  0026              extern _builtin_holtek_udivmodhi4_2:byte
   7  0026              extern _builtin_holtek_udivmodhi4:near
   7  0026              extern _builtin_holtek_mulhi3_2:byte
   7  0026              extern _builtin_holtek_mulhi3:near
   7  0026              
   7  0026              ; 
   7  0026              ; Generated by holtek-gcc v3.19, Thu Jul 21 09:11:08 2022
   7  0026              ; Rebuild 718
   7  0026              ; end of file


        0 Errors, 0