文件：runTask.c    编译器版本 HGASM 0202 页次1


   1  0000              ; Generated by holtek-gcc v3.19, Thu Jul 21 09:11:08 2022
   2  0000              ; 
   3  0000              ; Configuration:
   4  0000              ;       without long instruction
   5  0000              ;       Multi-ROM, Multi-RAM
   6  0000              ;       bits_per_rom_unit:16
   7  0000              ;       with mp1
   8  0000              ;       with tbhp, address(0x9)
   9  0000              ;          Use tabrd-const
  10  0000              ;       
  11  0000              ;       
  12  0000              ;       
  13  0000              ; use 'tabrdc' instead of 'tabrd'
  14  0000              ;       
  15  0000              
  16  0000              #pragma translator "holtek-gcc 4.6.4" "3.19" "build 20130711"
  17  0000              ; Rebuild 718
  18  0000              
  19  0000              ir equ [2]
  20  0000              mp equ [3]
  21  0000              sbp equ [1]
  22  0000              acc equ [5]
  23  0000              bp equ [4]
  24  0000              tblp equ [7]
  25  0000              tbhp equ [9]
  26  0000              status equ [10]
  27  0000              c equ [10].0
  28  0000              ac equ [10].1
  29  0000              z equ [10].2
  30  0000              ov equ [10].3
  31  0000              intc equ [11]
  32  0000              
  33  0000              extern ra:byte
  34  0000              extern rb:byte
  35  0000              extern rc:byte
  36  0000              extern rd:byte
  37  0000              extern re:byte
  38  0000              extern rf:byte
  39  0000              extern rg:byte
  40  0000              extern rh:byte
  41  0000              extern _Crom2Prom:near
  42  0000              extern _Crom2PromNext:near
  43  0000              
  44  0000              RAMBANK 0 @HCCINIT, @HCCINIT0
  45  0000              
  46  0000              RAMBANK 0 @BITDATASEC, @BITDATASEC1
  47  0000              @HCCINIT	.section 'data'
  48  0000              @HCCINIT0	.section 'data'
  49  0000              @BITDATASEC	 .section 'data'
  50  0000              @BITDATASEC1	 .section 'data'
  51  0000              
  52  0000              #pragma debug scope 1 1
  53  0000              	extern __DELAY3:near
  54  0000              	extern __DELAYX3:near
  55  0000              	extern __DELAYX6:near
  56  0000              	extern __DELAYY5:near
  57  0000              	extern __DELAYY3:near
  58  0000              	extern _builtin_holtek_delay_2:byte
  59  0000              _AD_value equ [1010]
文件：runTask.ASM  编译器版本 HGASM 0202 页次2

  60  0000              _Temperature_coefficient equ [1014]
  61  0000              _Temperature_CTL_coefficient equ [1015]
  62  0000              public _Get_Temperature
  63  0000              #pragma debug scope 2 1

 112  0000              #line 112 "f:\work\血糖仪\a_bh45f67-旧版\4g\美国客户\make_lib\v1.0.01（5000套出货)-02\g-777g-usa-bg95eseye-2022-2-20\runTask.c"
 112  0000              _Get_Temperature .section 'code'
 112  0000              _Get_Temperature proc
 112  0000  0004[           local _Get_Temperature_2 db 4 dup(?)	; 0,4
            00
            ]
 114  0004              #line 114 "f:\work\血糖仪\a_bh45f67-旧版\4g\美国客户\make_lib\v1.0.01（5000套出货)-02\g-777g-usa-bg95eseye-2022-2-20\runTask.c"
 114  0000  1F00     E  	clr _get_lowPwd_2[0]
 114  0001  0F01        	mov a,1
 114  0002              	fcall _get_lowPwd
 114  0009  0F2B        	mov a,43
 114  000A  0080     E  	mov rf,a
 116  000B              #line 116 "f:\work\血糖仪\a_bh45f67-旧版\4g\美国客户\make_lib\v1.0.01（5000套出货)-02\g-777g-usa-bg95eseye-2022-2-20\runTask.c"
 116  000B  1F00     E  	clr ra
 116  000C              _L4:
 118  000C              #line 118 "f:\work\血糖仪\a_bh45f67-旧版\4g\美国客户\make_lib\v1.0.01（5000套出货)-02\g-777g-usa-bg95eseye-2022-2-20\runTask.c"
 118  000C  0FF2        	mov a,low offset _AD_value
 118  000D  0083        	mov mp,a
 118  000E  0F03        	mov a,high offset _AD_value
 118  000F  0081        	mov sbp,a
 118  0010  0701        	mov a,sbp
 118  0011  0D00     R  	or a,bank _Get_Temperature
 118  0012  0084        	mov bp,a
 118  0013  0702        	mov a,ir
 118  0014  0080     R  	mov _Get_Temperature_2[0],a
 118  0015  1483        	inc mp
 118  0016  0702        	mov a,ir
 118  0017  0080     R  	mov _Get_Temperature_2[1],a
 118  0018  1483        	inc mp
 118  0019  0702        	mov a,ir
 118  001A  0080     R  	mov _Get_Temperature_2[2],a
 118  001B  1483        	inc mp
 118  001C  0702        	mov a,ir
 118  001D  0080     R  	mov _Get_Temperature_2[3],a
 118  001E  0700     E  	mov a,ra
 118  001F  0080     E  	mov rb,a
 118  0020  1F00     E  	clr rc
 118  0021  340A        	clr c
 118  0022  1A00     E  	rlca rb
 118  0023  0080     E  	mov rd,a
 118  0024  1A00     E  	rlca rc
 118  0025  0080     E  	mov re,a
 118  0026  340A        	clr c
 118  0027  1A80     E  	rlc rd
 118  0028  1A80     E  	rlc re
 118  0029  0700     E  	mov a,rd
 118  002A  0380     E  	addm a,rb
 118  002B  0700     E  	mov a,re
 118  002C  1380     E  	adcm a,rc
 118  002D  0F00     R  	mov a,low offset _SoundGroups
 118  002E  0300     E  	add a,rb
 118  002F  0083        	mov mp,a
 118  0030  0F00     R  	mov a,high offset _SoundGroups
 118  0031  1300     E  	adc a,rc
 118  0032  0081        	mov sbp,a
文件：runTask.c    编译器版本 HGASM 0202 页次3

 118  0033              	fcall _Crom2Prom
 118  003A  0080     E  	mov rd,a
 118  003B              	fcall _Crom2PromNext
 118  0042  0080     E  	mov re,a
 118  0043  0700     E  	mov a,rd
 118  0044  0200     R  	sub a,_Get_Temperature_2[0]
 118  0045  0700     E  	mov a,re
 118  0046  1200     R  	sbc a,_Get_Temperature_2[1]
 118  0047  1F05        	clr acc
 118  0048  1200     R  	sbc a,_Get_Temperature_2[2]
 118  0049  1F05        	clr acc
 118  004A  1200     R  	sbc a,_Get_Temperature_2[3]
 118  004B  3C0A        	sz c
 118  004C  2800     R  	jmp _L2
 120  004D              #line 120 "f:\work\血糖仪\a_bh45f67-旧版\4g\美国客户\make_lib\v1.0.01（5000套出货)-02\g-777g-usa-bg95eseye-2022-2-20\runTask.c"
 120  004D  0F00     R  	mov a,low (offset _SoundGroups+3)
 120  004E  0300     E  	add a,rb
 120  004F  0083        	mov mp,a
 120  0050  0F00     R  	mov a,high (offset _SoundGroups+3)
 120  0051  1300     E  	adc a,rc
 120  0052  0081        	mov sbp,a
 120  0053              	fcall _Crom2Prom
 120  005A  0080     E  	mov ra,a
 120  005B  0FF6        	mov a,low offset _Temperature_coefficient
 120  005C  0083        	mov mp,a
 120  005D  0F03        	mov a,high offset _Temperature_coefficient
 120  005E  0081        	mov sbp,a
 120  005F  0701        	mov a,sbp
 120  0060  0D00     R  	or a,bank _Get_Temperature
 120  0061  0084        	mov bp,a
 120  0062  0700     E  	mov a,ra
 120  0063  0082        	mov ir,a
 121  0064              #line 121 "f:\work\血糖仪\a_bh45f67-旧版\4g\美国客户\make_lib\v1.0.01（5000套出货)-02\g-777g-usa-bg95eseye-2022-2-20\runTask.c"
 121  0064  0F00     R  	mov a,low (offset _SoundGroups+4)
 121  0065  0300     E  	add a,rb
 121  0066  0083        	mov mp,a
 121  0067  0F00     R  	mov a,high (offset _SoundGroups+4)
 121  0068  1300     E  	adc a,rc
 121  0069  0081        	mov sbp,a
 121  006A              	fcall _Crom2Prom
 121  0071  0080     E  	mov ra,a
 121  0072  0FF7        	mov a,low offset _Temperature_CTL_coefficient
 121  0073  0083        	mov mp,a
 121  0074  0F03        	mov a,high offset _Temperature_CTL_coefficient
 121  0075  0081        	mov sbp,a
 121  0076  0701        	mov a,sbp
 121  0077  0D00     R  	or a,bank _Get_Temperature
 121  0078  0084        	mov bp,a
 121  0079  0700     E  	mov a,ra
 121  007A  0082        	mov ir,a
 122  007B              #line 122 "f:\work\血糖仪\a_bh45f67-旧版\4g\美国客户\make_lib\v1.0.01（5000套出货)-02\g-777g-usa-bg95eseye-2022-2-20\runTask.c"
 122  007B  0F00     R  	mov a,low (offset _SoundGroups+2)
 122  007C  0300     E  	add a,rb
 122  007D  0083        	mov mp,a
 122  007E  0F00     R  	mov a,high (offset _SoundGroups+2)
 122  007F  1300     E  	adc a,rc
 122  0080  0081        	mov sbp,a
 122  0081              	fcall _Crom2Prom
 122  0088  0080     E  	mov ra,a
 122  0089  2800     R  	jmp _L3
文件：runTask.c    编译器版本 HGASM 0202 页次4

 122  008A              _L2:
 116  008A              #line 116 "f:\work\血糖仪\a_bh45f67-旧版\4g\美国客户\make_lib\v1.0.01（5000套出货)-02\g-777g-usa-bg95eseye-2022-2-20\runTask.c"
 116  008A  1480     E  	inc ra
 116  008B  1780     E  	sdz rf
 116  008C  2800     R  	jmp _L4
 125  008D              #line 125 "f:\work\血糖仪\a_bh45f67-旧版\4g\美国客户\make_lib\v1.0.01（5000套出货)-02\g-777g-usa-bg95eseye-2022-2-20\runTask.c"
 125  008D  1F80     E  	set ra
 125  008E              _L3:
 126  008E              #line 126 "f:\work\血糖仪\a_bh45f67-旧版\4g\美国客户\make_lib\v1.0.01（5000套出货)-02\g-777g-usa-bg95eseye-2022-2-20\runTask.c"
 126  008E  0700     E  	mov a,ra
 126  008F  0003        	ret
 126  0090              _Get_Temperature endp
 126  0090              #line 126 "f:\work\血糖仪\a_bh45f67-旧版\4g\美国客户\make_lib\v1.0.01（5000套出货)-02\g-777g-usa-bg95eseye-2022-2-20\runTask.c"
 126  0090              #pragma debug scope 1 1
 126  0090              _SystemFlags equ [896]
 126  0090              public _Get_Battery
 126  0090              #pragma debug scope 3 1
 129  0090              #line 129 "f:\work\血糖仪\a_bh45f67-旧版\4g\美国客户\make_lib\v1.0.01（5000套出货)-02\g-777g-usa-bg95eseye-2022-2-20\runTask.c"
 129  0000              _Get_Battery .section 'code'
 129  0000              _Get_Battery proc
 130  0000              #line 130 "f:\work\血糖仪\a_bh45f67-旧版\4g\美国客户\make_lib\v1.0.01（5000套出货)-02\g-777g-usa-bg95eseye-2022-2-20\runTask.c"
 130  0000  1F00     E  	clr _get_lowPwd_2[0]
 130  0001  0F02        	mov a,2
 130  0002              	fcall _get_lowPwd
 131  0009              #line 131 "f:\work\血糖仪\a_bh45f67-旧版\4g\美国客户\make_lib\v1.0.01（5000套出货)-02\g-777g-usa-bg95eseye-2022-2-20\runTask.c"
 131  0009  0FF2        	mov a,low offset _AD_value
 131  000A  0083        	mov mp,a
 131  000B  0F03        	mov a,high offset _AD_value
 131  000C  0081        	mov sbp,a
 131  000D  0701        	mov a,sbp
 131  000E  0D00     R  	or a,bank _Get_Battery
 131  000F  0084        	mov bp,a
 131  0010  0702        	mov a,ir
 131  0011  0080     E  	mov rd,a
 131  0012  1483        	inc mp
 131  0013  0702        	mov a,ir
 131  0014  0080     E  	mov re,a
 131  0015  1483        	inc mp
 131  0016  0702        	mov a,ir
 131  0017  0080     E  	mov rf,a
 131  0018  1483        	inc mp
 131  0019  0702        	mov a,ir
 131  001A  0080     E  	mov rg,a
 131  001B  0FA5        	mov a,165
 131  001C  0200     E  	sub a,rd
 131  001D  0F0E        	mov a,14
 131  001E  1200     E  	sbc a,re
 131  001F  0F00        	mov a,0
 131  0020  1200     E  	sbc a,rf
 131  0021  0F00        	mov a,0
 131  0022  1200     E  	sbc a,rg
 131  0023  380A        	snz c
 131  0024  2800     R  	jmp _L8
 133  0025              #line 133 "f:\work\血糖仪\a_bh45f67-旧版\4g\美国客户\make_lib\v1.0.01（5000套出货)-02\g-777g-usa-bg95eseye-2022-2-20\runTask.c"
 133  0025  0F86        	mov a,low (offset _SystemFlags+6)
 133  0026  0083        	mov mp,a
 133  0027  0F03        	mov a,high (offset _SystemFlags+6)
 133  0028  0081        	mov sbp,a
 133  0029  0701        	mov a,sbp
 133  002A  0D00     R  	or a,bank _Get_Battery
文件：runTask.c    编译器版本 HGASM 0202 页次5

 133  002B  0084        	mov bp,a
 133  002C  0F00        	mov a,0
 133  002D  0082        	mov ir,a
 134  002E              #line 134 "f:\work\血糖仪\a_bh45f67-旧版\4g\美国客户\make_lib\v1.0.01（5000套出货)-02\g-777g-usa-bg95eseye-2022-2-20\runTask.c"
 134  002E  0FFC        	mov a,252
 134  002F  0383        	addm a,mp
 134  0030  0FFF        	mov a,255
 134  0031  1381        	adcm a,sbp
 134  0032  0701        	mov a,sbp
 134  0033  0D00     R  	or a,bank _Get_Battery
 134  0034  0084        	mov bp,a
 134  0035  3502        	clr ir.2
 134  0036              _L8:
 136  0036              #line 136 "f:\work\血糖仪\a_bh45f67-旧版\4g\美国客户\make_lib\v1.0.01（5000套出货)-02\g-777g-usa-bg95eseye-2022-2-20\runTask.c"
 136  0036  0FF2        	mov a,low offset _AD_value
 136  0037  0083        	mov mp,a
 136  0038  0F03        	mov a,high offset _AD_value
 136  0039  0081        	mov sbp,a
 136  003A  0701        	mov a,sbp
 136  003B  0D00     R  	or a,bank _Get_Battery
 136  003C  0084        	mov bp,a
 136  003D  0702        	mov a,ir
 136  003E  0080     E  	mov rd,a
 136  003F  1483        	inc mp
 136  0040  0702        	mov a,ir
 136  0041  0080     E  	mov re,a
 136  0042  1483        	inc mp
 136  0043  0702        	mov a,ir
 136  0044  0080     E  	mov rf,a
 136  0045  1483        	inc mp
 136  0046  0702        	mov a,ir
 136  0047  0080     E  	mov rg,a
 136  0048  0FA7        	mov a,167
 136  0049  0200     E  	sub a,rd
 136  004A  0F0E        	mov a,14
 136  004B  1200     E  	sbc a,re
 136  004C  0F00        	mov a,0
 136  004D  1200     E  	sbc a,rf
 136  004E  0F00        	mov a,0
 136  004F  1200     E  	sbc a,rg
 136  0050  3C0A        	sz c
 136  0051  2800     R  	jmp _L9
 138  0052              #line 138 "f:\work\血糖仪\a_bh45f67-旧版\4g\美国客户\make_lib\v1.0.01（5000套出货)-02\g-777g-usa-bg95eseye-2022-2-20\runTask.c"
 138  0052  0F86        	mov a,low (offset _SystemFlags+6)
 138  0053  0083        	mov mp,a
 138  0054  0F03        	mov a,high (offset _SystemFlags+6)
 138  0055  0081        	mov sbp,a
 138  0056  0701        	mov a,sbp
 138  0057  0D00     R  	or a,bank _Get_Battery
 138  0058  0084        	mov bp,a
 138  0059  0F01        	mov a,1
 138  005A  0082        	mov ir,a
 139  005B              #line 139 "f:\work\血糖仪\a_bh45f67-旧版\4g\美国客户\make_lib\v1.0.01（5000套出货)-02\g-777g-usa-bg95eseye-2022-2-20\runTask.c"
 139  005B  0FFC        	mov a,252
 139  005C  0383        	addm a,mp
 139  005D  0FFF        	mov a,255
 139  005E  1381        	adcm a,sbp
 139  005F  0701        	mov a,sbp
 139  0060  0D00     R  	or a,bank _Get_Battery
 139  0061  0084        	mov bp,a
文件：runTask.c    编译器版本 HGASM 0202 页次6

 139  0062  3102        	set ir.2
 139  0063              _L9:
 141  0063              #line 141 "f:\work\血糖仪\a_bh45f67-旧版\4g\美国客户\make_lib\v1.0.01（5000套出货)-02\g-777g-usa-bg95eseye-2022-2-20\runTask.c"
 141  0063  0FF2        	mov a,low offset _AD_value
 141  0064  0083        	mov mp,a
 141  0065  0F03        	mov a,high offset _AD_value
 141  0066  0081        	mov sbp,a
 141  0067  0701        	mov a,sbp
 141  0068  0D00     R  	or a,bank _Get_Battery
 141  0069  0084        	mov bp,a
 141  006A  0702        	mov a,ir
 141  006B  0080     E  	mov rd,a
 141  006C  1483        	inc mp
 141  006D  0702        	mov a,ir
 141  006E  0080     E  	mov re,a
 141  006F  1483        	inc mp
 141  0070  0702        	mov a,ir
 141  0071  0080     E  	mov rf,a
 141  0072  1483        	inc mp
 141  0073  0702        	mov a,ir
 141  0074  0080     E  	mov rg,a
 141  0075  0F0A        	mov a,10
 141  0076  0200     E  	sub a,rd
 141  0077  0F0F        	mov a,15
 141  0078  1200     E  	sbc a,re
 141  0079  0F00        	mov a,0
 141  007A  1200     E  	sbc a,rf
 141  007B  0F00        	mov a,0
 141  007C  1200     E  	sbc a,rg
 141  007D  3C0A        	sz c
 141  007E  2800     R  	jmp _L10
 143  007F              #line 143 "f:\work\血糖仪\a_bh45f67-旧版\4g\美国客户\make_lib\v1.0.01（5000套出货)-02\g-777g-usa-bg95eseye-2022-2-20\runTask.c"
 143  007F  0F86        	mov a,low (offset _SystemFlags+6)
 143  0080  0083        	mov mp,a
 143  0081  0F03        	mov a,high (offset _SystemFlags+6)
 143  0082  0081        	mov sbp,a
 143  0083  0701        	mov a,sbp
 143  0084  0D00     R  	or a,bank _Get_Battery
 143  0085  0084        	mov bp,a
 143  0086  0F02        	mov a,2
 143  0087  0082        	mov ir,a
 143  0088              _L10:
 145  0088              #line 145 "f:\work\血糖仪\a_bh45f67-旧版\4g\美国客户\make_lib\v1.0.01（5000套出货)-02\g-777g-usa-bg95eseye-2022-2-20\runTask.c"
 145  0088  0FF2        	mov a,low offset _AD_value
 145  0089  0083        	mov mp,a
 145  008A  0F03        	mov a,high offset _AD_value
 145  008B  0081        	mov sbp,a
 145  008C  0701        	mov a,sbp
 145  008D  0D00     R  	or a,bank _Get_Battery
 145  008E  0084        	mov bp,a
 145  008F  0702        	mov a,ir
 145  0090  0080     E  	mov rd,a
 145  0091  1483        	inc mp
 145  0092  0702        	mov a,ir
 145  0093  0080     E  	mov re,a
 145  0094  1483        	inc mp
 145  0095  0702        	mov a,ir
 145  0096  0080     E  	mov rf,a
 145  0097  1483        	inc mp
 145  0098  0702        	mov a,ir
文件：runTask.c    编译器版本 HGASM 0202 页次7

 145  0099  0080     E  	mov rg,a
 145  009A  0FD2        	mov a,210
 145  009B  0200     E  	sub a,rd
 145  009C  0F0F        	mov a,15
 145  009D  1200     E  	sbc a,re
 145  009E  0F00        	mov a,0
 145  009F  1200     E  	sbc a,rf
 145  00A0  0F00        	mov a,0
 145  00A1  1200     E  	sbc a,rg
 145  00A2  3C0A        	sz c
 145  00A3  2800     R  	jmp _L7
 147  00A4              #line 147 "f:\work\血糖仪\a_bh45f67-旧版\4g\美国客户\make_lib\v1.0.01（5000套出货)-02\g-777g-usa-bg95eseye-2022-2-20\runTask.c"
 147  00A4  0F86        	mov a,low (offset _SystemFlags+6)
 147  00A5  0083        	mov mp,a
 147  00A6  0F03        	mov a,high (offset _SystemFlags+6)
 147  00A7  0081        	mov sbp,a
 147  00A8  0701        	mov a,sbp
 147  00A9  0D00     R  	or a,bank _Get_Battery
 147  00AA  0084        	mov bp,a
 147  00AB  0F03        	mov a,3
 147  00AC  0082        	mov ir,a
 147  00AD              _L7:
 147  00AD  0003        	ret
 147  00AE              _Get_Battery endp
 147  00AE              #line 147 "f:\work\血糖仪\a_bh45f67-旧版\4g\美国客户\make_lib\v1.0.01（5000套出货)-02\g-777g-usa-bg95eseye-2022-2-20\runTask.c"
 147  00AE              #pragma debug scope 1 1
 147  00AE              ___ph equ [47]
 147  00AE              public _Get_Charge
 147  00AE              #pragma debug scope 4 1
 151  00AE              #line 151 "f:\work\血糖仪\a_bh45f67-旧版\4g\美国客户\make_lib\v1.0.01（5000套出货)-02\g-777g-usa-bg95eseye-2022-2-20\runTask.c"
 151  0000              _Get_Charge .section 'code'
 151  0000              _Get_Charge proc
 151  0000  00              local _Get_Charge_2 db 1 dup(?)	; 0,1
 152  0001              #line 152 "f:\work\血糖仪\a_bh45f67-旧版\4g\美国客户\make_lib\v1.0.01（5000套出货)-02\g-777g-usa-bg95eseye-2022-2-20\runTask.c"
 152  0000  38AF        	snz [47].1
 152  0001  2800     R  	jmp _L13
 152  0002              #line 152 "f:\work\血糖仪\a_bh45f67-旧版\4g\美国客户\make_lib\v1.0.01（5000套出货)-02\g-777g-usa-bg95eseye-2022-2-20\runTask.c"
 152  0002  3F2F        	sz [47].6
 152  0003  2800     R  	jmp _L14
 152  0004              _L13:
 154  0004              #line 154 "f:\work\血糖仪\a_bh45f67-旧版\4g\美国客户\make_lib\v1.0.01（5000套出货)-02\g-777g-usa-bg95eseye-2022-2-20\runTask.c"
 154  0004  3CAF        	sz [47].1
 154  0005  2800     R  	jmp _L16
 156  0006              #line 156 "f:\work\血糖仪\a_bh45f67-旧版\4g\美国客户\make_lib\v1.0.01（5000套出货)-02\g-777g-usa-bg95eseye-2022-2-20\runTask.c"
 156  0006  0F80        	mov a,low offset _SystemFlags
 156  0007  0083        	mov mp,a
 156  0008  0F03        	mov a,high offset _SystemFlags
 156  0009  0081        	mov sbp,a
 156  000A  0701        	mov a,sbp
 156  000B  0D00     R  	or a,bank _Get_Charge
 156  000C  0084        	mov bp,a
 156  000D  3282        	set ir.5
 157  000E              #line 157 "f:\work\血糖仪\a_bh45f67-旧版\4g\美国客户\make_lib\v1.0.01（5000套出货)-02\g-777g-usa-bg95eseye-2022-2-20\runTask.c"
 157  000E  0F02        	mov a,2
 157  000F  0383        	addm a,mp
 157  0010  0F00        	mov a,0
 157  0011  1381        	adcm a,sbp
 157  0012  0701        	mov a,sbp
 157  0013  0D00     R  	or a,bank _Get_Charge
 157  0014  0084        	mov bp,a
文件：runTask.c    编译器版本 HGASM 0202 页次8

 157  0015  3502        	clr ir.2
 158  0016              #line 158 "f:\work\血糖仪\a_bh45f67-旧版\4g\美国客户\make_lib\v1.0.01（5000套出货)-02\g-777g-usa-bg95eseye-2022-2-20\runTask.c"
 158  0016  0F02        	mov a,2
 158  0017  0383        	addm a,mp
 158  0018  0F00        	mov a,0
 158  0019  1381        	adcm a,sbp
 158  001A  0701        	mov a,sbp
 158  001B  0D00     R  	or a,bank _Get_Charge
 158  001C  0084        	mov bp,a
 158  001D  0702        	mov a,ir
 158  001E  0080     R  	mov _Get_Charge_2[0],a
 158  001F  1080     R  	sz _Get_Charge_2[0]
 158  0020  2800     R  	jmp _L16
 160  0021              #line 160 "f:\work\血糖仪\a_bh45f67-旧版\4g\美国客户\make_lib\v1.0.01（5000套出货)-02\g-777g-usa-bg95eseye-2022-2-20\runTask.c"
 160  0021  0FFD        	mov a,253
 160  0022  0383        	addm a,mp
 160  0023  0FFF        	mov a,255
 160  0024  1381        	adcm a,sbp
 160  0025  0701        	mov a,sbp
 160  0026  0D00     R  	or a,bank _Get_Charge
 160  0027  0084        	mov bp,a
 160  0028  3382        	set ir.7
 161  0029              #line 161 "f:\work\血糖仪\a_bh45f67-旧版\4g\美国客户\make_lib\v1.0.01（5000套出货)-02\g-777g-usa-bg95eseye-2022-2-20\runTask.c"
 161  0029  0F03        	mov a,3
 161  002A  0383        	addm a,mp
 161  002B  0F00        	mov a,0
 161  002C  1381        	adcm a,sbp
 161  002D  0701        	mov a,sbp
 161  002E  0D00     R  	or a,bank _Get_Charge
 161  002F  0084        	mov bp,a
 161  0030  0F0A        	mov a,10
 161  0031  0082        	mov ir,a
 161  0032              _L16:
 164  0032              #line 164 "f:\work\血糖仪\a_bh45f67-旧版\4g\美国客户\make_lib\v1.0.01（5000套出货)-02\g-777g-usa-bg95eseye-2022-2-20\runTask.c"
 164  0032  3F2F        	sz [47].6
 164  0033  2800     R  	jmp _L12
 166  0034              #line 166 "f:\work\血糖仪\a_bh45f67-旧版\4g\美国客户\make_lib\v1.0.01（5000套出货)-02\g-777g-usa-bg95eseye-2022-2-20\runTask.c"
 166  0034  0F80        	mov a,low offset _SystemFlags
 166  0035  0083        	mov mp,a
 166  0036  0F03        	mov a,high offset _SystemFlags
 166  0037  0081        	mov sbp,a
 166  0038  0701        	mov a,sbp
 166  0039  0D00     R  	or a,bank _Get_Charge
 166  003A  0084        	mov bp,a
 166  003B  3682        	clr ir.5
 167  003C              #line 167 "f:\work\血糖仪\a_bh45f67-旧版\4g\美国客户\make_lib\v1.0.01（5000套出货)-02\g-777g-usa-bg95eseye-2022-2-20\runTask.c"
 167  003C  0F02        	mov a,2
 167  003D  0383        	addm a,mp
 167  003E  0F00        	mov a,0
 167  003F  1381        	adcm a,sbp
 167  0040  0701        	mov a,sbp
 167  0041  0D00     R  	or a,bank _Get_Charge
 167  0042  0084        	mov bp,a
 167  0043  3502        	clr ir.2
 167  0044  2800     R  	jmp _L12
 167  0045              _L14:
 172  0045              #line 172 "f:\work\血糖仪\a_bh45f67-旧版\4g\美国客户\make_lib\v1.0.01（5000套出货)-02\g-777g-usa-bg95eseye-2022-2-20\runTask.c"
 172  0045  0F80        	mov a,low offset _SystemFlags
 172  0046  0083        	mov mp,a
 172  0047  0F03        	mov a,high offset _SystemFlags
文件：runTask.c    编译器版本 HGASM 0202 页次9

 172  0048  0081        	mov sbp,a
 172  0049  0701        	mov a,sbp
 172  004A  0D00     R  	or a,bank _Get_Charge
 172  004B  0084        	mov bp,a
 172  004C  3682        	clr ir.5
 172  004D              _L12:
 172  004D  0003        	ret
 172  004E              _Get_Charge endp
 172  004E              #line 172 "f:\work\血糖仪\a_bh45f67-旧版\4g\美国客户\make_lib\v1.0.01（5000套出货)-02\g-777g-usa-bg95eseye-2022-2-20\runTask.c"
 172  004E              #pragma debug scope 1 1
 172  004E              ___pb equ [29]
 172  004E              public _Buzzer
 172  004E              #pragma debug scope 5 1
 176  004E              #line 176 "f:\work\血糖仪\a_bh45f67-旧版\4g\美国客户\make_lib\v1.0.01（5000套出货)-02\g-777g-usa-bg95eseye-2022-2-20\runTask.c"
 176  0000              _Buzzer .section 'code'
 176  0000              _Buzzer proc
 176  0000  00              local _Buzzer_2 db 1 dup(?)	; 0,1
 176  0000  1F00     R  	clr _Buzzer_2[0]
 176  0001              _L24:
 180  0001              #line 180 "f:\work\血糖仪\a_bh45f67-旧版\4g\美国客户\make_lib\v1.0.01（5000套出货)-02\g-777g-usa-bg95eseye-2022-2-20\runTask.c"
 180  0001  1F00     E  	clr ra
 180  0002  3B1D        	snz [29].6
 180  0003  3000     E  	set ra.6
 180  0004  371D        	clr [29].6
 180  0005  0700     E  	mov a,ra
 180  0006  059D        	orm a,[29]
 181  0007              #line 181 "f:\work\血糖仪\a_bh45f67-旧版\4g\美国客户\make_lib\v1.0.01（5000套出货)-02\g-777g-usa-bg95eseye-2022-2-20\runTask.c"
 181  0007              	fcall _me_delay_100us
 182  000E              #line 182 "f:\work\血糖仪\a_bh45f67-旧版\4g\美国客户\make_lib\v1.0.01（5000套出货)-02\g-777g-usa-bg95eseye-2022-2-20\runTask.c"
 182  000E              	fcall _me_delay_100us
 182  0015  1480     R  	inc _Buzzer_2[0]
 178  0016              #line 178 "f:\work\血糖仪\a_bh45f67-旧版\4g\美国客户\make_lib\v1.0.01（5000套出货)-02\g-777g-usa-bg95eseye-2022-2-20\runTask.c"
 178  0016  0700     R  	mov a,_Buzzer_2[0]
 178  0017  0AC8        	sub a,200
 178  0018  390A        	snz z
 178  0019  2800     R  	jmp _L24
 184  001A              #line 184 "f:\work\血糖仪\a_bh45f67-旧版\4g\美国客户\make_lib\v1.0.01（5000套出货)-02\g-777g-usa-bg95eseye-2022-2-20\runTask.c"
 184  001A  331D        	set [29].6
 184  001B  0003        	ret
 184  001C              _Buzzer endp
 184  001C              #line 184 "f:\work\血糖仪\a_bh45f67-旧版\4g\美国客户\make_lib\v1.0.01（5000套出货)-02\g-777g-usa-bg95eseye-2022-2-20\runTask.c"
 184  001C              #pragma debug scope 1 1
 184  001C              ___pa equ [26]
 184  001C              public _GSM_turn_ON
 184  001C              #pragma debug scope 6 1
 187  001C              #line 187 "f:\work\血糖仪\a_bh45f67-旧版\4g\美国客户\make_lib\v1.0.01（5000套出货)-02\g-777g-usa-bg95eseye-2022-2-20\runTask.c"
 187  0000              _GSM_turn_ON .section 'code'
 187  0000              _GSM_turn_ON proc
 197  0000              #line 197 "f:\work\血糖仪\a_bh45f67-旧版\4g\美国客户\make_lib\v1.0.01（5000套出货)-02\g-777g-usa-bg95eseye-2022-2-20\runTask.c"
 197  0000  339A        	set [26].7
 198  0001              #line 198 "f:\work\血糖仪\a_bh45f67-旧版\4g\美国客户\make_lib\v1.0.01（5000套出货)-02\g-777g-usa-bg95eseye-2022-2-20\runTask.c"
 198  0001  0F96        	mov a,-106
 198  0002  0080     E  	mov _me_delay_ms_2[0],a
 198  0003  1F00     E  	clr _me_delay_ms_2[1]
 198  0004              	fcall _me_delay_ms
 200  000B              #line 200 "f:\work\血糖仪\a_bh45f67-旧版\4g\美国客户\make_lib\v1.0.01（5000套出货)-02\g-777g-usa-bg95eseye-2022-2-20\runTask.c"
 200  000B  371A        	clr [26].6
 201  000C              #line 201 "f:\work\血糖仪\a_bh45f67-旧版\4g\美国客户\make_lib\v1.0.01（5000套出货)-02\g-777g-usa-bg95eseye-2022-2-20\runTask.c"
 201  000C  0F0A        	mov a,10
 201  000D  0080     E  	mov _me_delay_ms_2[0],a
文件：runTask.c    编译器版本 HGASM 0202 页次10

 201  000E  1F00     E  	clr _me_delay_ms_2[1]
 201  000F              	fcall _me_delay_ms
 202  0016              #line 202 "f:\work\血糖仪\a_bh45f67-旧版\4g\美国客户\make_lib\v1.0.01（5000套出货)-02\g-777g-usa-bg95eseye-2022-2-20\runTask.c"
 202  0016  331A        	set [26].6
 203  0017              #line 203 "f:\work\血糖仪\a_bh45f67-旧版\4g\美国客户\make_lib\v1.0.01（5000套出货)-02\g-777g-usa-bg95eseye-2022-2-20\runTask.c"
 203  0017  0F58        	mov a,88
 203  0018  0080     E  	mov _me_delay_ms_2[0],a
 203  0019  0F02        	mov a,2
 203  001A  0080     E  	mov _me_delay_ms_2[1],a
 203  001B              	fcall _me_delay_ms
 204  0022              #line 204 "f:\work\血糖仪\a_bh45f67-旧版\4g\美国客户\make_lib\v1.0.01（5000套出货)-02\g-777g-usa-bg95eseye-2022-2-20\runTask.c"
 204  0022  371A        	clr [26].6
 205  0023              #line 205 "f:\work\血糖仪\a_bh45f67-旧版\4g\美国客户\make_lib\v1.0.01（5000套出货)-02\g-777g-usa-bg95eseye-2022-2-20\runTask.c"
 205  0023  0F0A        	mov a,10
 205  0024  0080     E  	mov _me_delay_ms_2[0],a
 205  0025  1F00     E  	clr _me_delay_ms_2[1]
 205  0026              	fcall _me_delay_ms
 207  002D              #line 207 "f:\work\血糖仪\a_bh45f67-旧版\4g\美国客户\make_lib\v1.0.01（5000套出货)-02\g-777g-usa-bg95eseye-2022-2-20\runTask.c"
 207  002D  0F01        	mov a,1
 207  002E  0080     E  	mov _uart_init_2[0],a
 207  002F  1F00     E  	clr _uart_init_2[1]
 207  0030              	fcall _uart_init
 209  0037              #line 209 "f:\work\血糖仪\a_bh45f67-旧版\4g\美国客户\make_lib\v1.0.01（5000套出货)-02\g-777g-usa-bg95eseye-2022-2-20\runTask.c"
 209  0037              ;# 209 "f:\work\血糖仪\a_bh45f67-旧版\4g\美国客户\make_lib\v1.0.01（5000套出货)-02\g-777g-usa-bg95eseye-2022-2-20\runTask.c" 1
 209  0037  0001        	clr wdt
 210  0038              #line 210 "f:\work\血糖仪\a_bh45f67-旧版\4g\美国客户\make_lib\v1.0.01（5000套出货)-02\g-777g-usa-bg95eseye-2022-2-20\runTask.c"
 210  0038  0F64        	mov a,100
 210  0039  0080     E  	mov _me_delay_ms_2[0],a
 210  003A  1F00     E  	clr _me_delay_ms_2[1]
 210  003B              	fcall _me_delay_ms
 210  0042  0003        	ret
 210  0043              _GSM_turn_ON endp
 210  0043              #line 210 "f:\work\血糖仪\a_bh45f67-旧版\4g\美国客户\make_lib\v1.0.01（5000套出货)-02\g-777g-usa-bg95eseye-2022-2-20\runTask.c"
 210  0043              #pragma debug scope 1 1
 210  0043              _BLOOD_Package equ [640]
 210  0043              _sys_Year equ [944]
 210  0043              _sys_Month equ [946]
 210  0043              _sys_Day equ [947]
 210  0043              _sys_Hour equ [948]
 210  0043              _sys_Minute equ [949]
 210  0043              _sys_Second equ [950]
 210  0043              _Blood_glucose equ [963]
 210  0043              public _Put_Memroy
 210  0043              #pragma debug scope 7 1
 214  0043              #line 214 "f:\work\血糖仪\a_bh45f67-旧版\4g\美国客户\make_lib\v1.0.01（5000套出货)-02\g-777g-usa-bg95eseye-2022-2-20\runTask.c"
 214  0000              _Put_Memroy .section 'code'
 214  0000              _Put_Memroy proc
 214  0000              public _Put_Memroy_2
 214  0000  000F[           local _Put_Memroy_2 db 15 dup(?)	; 2,13
            00
            ]
 214  000F              #pragma debug variable 10 7 _Put_Memroy_2+0 "adr"
 214  000F              #pragma debug variable 8 7 _Put_Memroy_2+2 "iPosNum"
 214  000F              #pragma debug variable 8 7 _Put_Memroy_2+8 "iPosition"
 235  000F              #line 235 "f:\work\血糖仪\a_bh45f67-旧版\4g\美国客户\make_lib\v1.0.01（5000套出货)-02\g-777g-usa-bg95eseye-2022-2-20\runTask.c"
 235  0000  1F00     E  	clr _builtin_holtek_udivmodhi4_2[6]
 235  0001  0700     R  	mov a,_Put_Memroy_2[0]  
 235  0002  0080     E  	mov _builtin_holtek_udivmodhi4_2[0],a  
 235  0003  0700     R  	mov a,_Put_Memroy_2[1]  
 235  0004  0080     E  	mov _builtin_holtek_udivmodhi4_2[1],a
文件：runTask.c    编译器版本 HGASM 0202 页次11

 235  0005  0FF4        	mov a,244  
 235  0006  0080     E  	mov _builtin_holtek_udivmodhi4_2[2],a  
 235  0007  0F01        	mov a,1  
 235  0008  0080     E  	mov _builtin_holtek_udivmodhi4_2[3],a
 235  0009              	fcall _builtin_holtek_udivmodhi4
 235  0010  0700     E  	mov a,_builtin_holtek_udivmodhi4_2[4]  
 235  0011  0080     E  	mov rd,a  
 235  0012  0700     E  	mov a,_builtin_holtek_udivmodhi4_2[5]  
 235  0013  0080     E  	mov re,a
 238  0014              #line 238 "f:\work\血糖仪\a_bh45f67-旧版\4g\美国客户\make_lib\v1.0.01（5000套出货)-02\g-777g-usa-bg95eseye-2022-2-20\runTask.c"
 238  0014  1F00     E  	clr _builtin_holtek_udivmodhi4_2[6]
 238  0015  0700     E  	mov a,rd  
 238  0016  0080     E  	mov _builtin_holtek_udivmodhi4_2[0],a  
 238  0017  0700     E  	mov a,re  
 238  0018  0080     E  	mov _builtin_holtek_udivmodhi4_2[1],a
 238  0019  0F18        	mov a,24  
 238  001A  0080     E  	mov _builtin_holtek_udivmodhi4_2[2],a  
 238  001B  1F00     E  	clr _builtin_holtek_udivmodhi4_2[3]
 238  001C              	fcall _builtin_holtek_udivmodhi4
 238  0023  0700     E  	mov a,_builtin_holtek_udivmodhi4_2[4]  
 238  0024  0080     E  	mov rb,a  
 238  0025  0700     E  	mov a,_builtin_holtek_udivmodhi4_2[5]  
 238  0026  0080     E  	mov rc,a
 239  0027              #line 239 "f:\work\血糖仪\a_bh45f67-旧版\4g\美国客户\make_lib\v1.0.01（5000套出货)-02\g-777g-usa-bg95eseye-2022-2-20\runTask.c"
 239  0027  1100     E  	swapa rb
 239  0028  1885        	rl acc
 239  0029  0E1F        	and a,1fh
 239  002A  0080     R  	mov _Put_Memroy_2[2],a
 240  002B              #line 240 "f:\work\血糖仪\a_bh45f67-旧版\4g\美国客户\make_lib\v1.0.01（5000套出货)-02\g-777g-usa-bg95eseye-2022-2-20\runTask.c"
 240  002B  0700     E  	mov a,rb
 240  002C  0E07        	and a,7
 240  002D  0080     R  	mov _Put_Memroy_2[8],a
 241  002E              #line 241 "f:\work\血糖仪\a_bh45f67-旧版\4g\美国客户\make_lib\v1.0.01（5000套出货)-02\g-777g-usa-bg95eseye-2022-2-20\runTask.c"
 241  002E  340A        	clr c
 241  002F  1A00     E  	rlca rb
 241  0030  0080     E  	mov rf,a
 241  0031  1A00     E  	rlca rc
 241  0032  0080     E  	mov rg,a
 241  0033  340A        	clr c
 241  0034  1A80     E  	rlc rf
 241  0035  1A80     E  	rlc rg
 241  0036  0700     E  	mov a,rb
 241  0037  0300     E  	add a,rf
 241  0038  0080     R  	mov _Put_Memroy_2[6],a
 241  0039  0700     E  	mov a,rc
 241  003A  1300     E  	adc a,rg
 241  003B  0080     R  	mov _Put_Memroy_2[7],a
 237  003C              #line 237 "f:\work\血糖仪\a_bh45f67-旧版\4g\美国客户\make_lib\v1.0.01（5000套出货)-02\g-777g-usa-bg95eseye-2022-2-20\runTask.c"
 237  003C  1F00     E  	clr _builtin_holtek_udivmodhi4_2[6]
 237  003D  0700     E  	mov a,rd  
 237  003E  0080     E  	mov _builtin_holtek_udivmodhi4_2[0],a  
 237  003F  0700     E  	mov a,re  
 237  0040  0080     E  	mov _builtin_holtek_udivmodhi4_2[1],a
 237  0041  0F18        	mov a,24  
 237  0042  0080     E  	mov _builtin_holtek_udivmodhi4_2[2],a  
 237  0043  1F00     E  	clr _builtin_holtek_udivmodhi4_2[3]
 237  0044              	fcall _builtin_holtek_udivmodhi4
 237  004B  0700     E  	mov a,_builtin_holtek_udivmodhi4_2[0]  
 237  004C  0080     E  	mov rd,a  
 237  004D  0700     E  	mov a,_builtin_holtek_udivmodhi4_2[1]  
文件：runTask.c    编译器版本 HGASM 0202 页次12

 237  004E  0080     E  	mov re,a
 243  004F              #line 243 "f:\work\血糖仪\a_bh45f67-旧版\4g\美国客户\make_lib\v1.0.01（5000套出货)-02\g-777g-usa-bg95eseye-2022-2-20\runTask.c"
 243  004F  0FDF        	mov a,223
 243  0050  0380     E  	addm a,rd
 243  0051  0F01        	mov a,1
 243  0052  1380     E  	adcm a,re
 243  0053  0700     E  	mov a,rd
 243  0054  0080     R  	mov _Put_Memroy_2[9],a
 243  0055  0700     E  	mov a,re
 243  0056  0080     R  	mov _Put_Memroy_2[10],a
 243  0057  0F06        	mov a,6
 243  0058              _LI1:
 243  0058  340A        	clr c
 243  0059  1A80     R  	rlc _Put_Memroy_2[9]
 243  005A  1A80     R  	rlc _Put_Memroy_2[10]
 243  005B  1785        	sdz acc
 243  005C  2800     R  	jmp _LI1
 243  005D  0700     R  	mov a,_Put_Memroy_2[9]
 243  005E  0080     R  	mov _Put_Memroy_2[11],a
 243  005F  0700     R  	mov a,_Put_Memroy_2[10]
 243  0060  0080     R  	mov _Put_Memroy_2[12],a
 243  0061  1F00     R  	clr _Put_Memroy_2[13]
 243  0062  1F00     R  	clr _Put_Memroy_2[14]
 243  0063  0700     R  	mov a,_Put_Memroy_2[11]
 243  0064  0080     E  	mov _fun_read_page_2[0],a
 243  0065  0700     R  	mov a,_Put_Memroy_2[12]
 243  0066  0080     E  	mov _fun_read_page_2[1],a
 243  0067  0700     R  	mov a,_Put_Memroy_2[13]
 243  0068  0080     E  	mov _fun_read_page_2[2],a
 243  0069  0700     R  	mov a,_Put_Memroy_2[14]
 243  006A  0080     E  	mov _fun_read_page_2[3],a
 243  006B              	fcall _fun_read_page
 244  0072              #line 244 "f:\work\血糖仪\a_bh45f67-旧版\4g\美国客户\make_lib\v1.0.01（5000套出货)-02\g-777g-usa-bg95eseye-2022-2-20\runTask.c"
 244  0072  0F01        	mov a,1
 244  0073  0080     E  	mov _me_delay_ms_2[0],a
 244  0074  1F00     E  	clr _me_delay_ms_2[1]
 244  0075              	fcall _me_delay_ms
 246  007C              #line 246 "f:\work\血糖仪\a_bh45f67-旧版\4g\美国客户\make_lib\v1.0.01（5000套出货)-02\g-777g-usa-bg95eseye-2022-2-20\runTask.c"
 246  007C  0F81        	mov a,low (offset _SystemFlags+1)
 246  007D  0083        	mov mp,a
 246  007E  0F03        	mov a,high (offset _SystemFlags+1)
 246  007F  0081        	mov sbp,a
 246  0080  0701        	mov a,sbp
 246  0081  0D00     R  	or a,bank _Put_Memroy
 246  0082  0084        	mov bp,a
 246  0083  0702        	mov a,ir
 246  0084  0080     E  	mov ra,a
 248  0085              #line 248 "f:\work\血糖仪\a_bh45f67-旧版\4g\美国客户\make_lib\v1.0.01（5000套出货)-02\g-777g-usa-bg95eseye-2022-2-20\runTask.c"
 248  0085  0FFD        	mov a,low (offset _BLOOD_Package+125)
 248  0086  0300     R  	add a,_Put_Memroy_2[2]
 248  0087  0083        	mov mp,a
 248  0088  0F02        	mov a,high (offset _BLOOD_Package+125)
 248  0089  1F01        	clr sbp
 248  008A  1381        	adcm a,sbp
 246  008B              #line 246 "f:\work\血糖仪\a_bh45f67-旧版\4g\美国客户\make_lib\v1.0.01（5000套出货)-02\g-777g-usa-bg95eseye-2022-2-20\runTask.c"
 246  008B  3800     E  	snz ra.1
 246  008C  2800     R  	jmp _L27
 248  008D              #line 248 "f:\work\血糖仪\a_bh45f67-旧版\4g\美国客户\make_lib\v1.0.01（5000套出货)-02\g-777g-usa-bg95eseye-2022-2-20\runTask.c"
 248  008D              	fcall _Crom2Prom
 248  0094  0080     R  	mov _Put_Memroy_2[2],a
文件：runTask.c    编译器版本 HGASM 0202 页次13

 248  0095  0F07        	mov a,7
 248  0096  0200     R  	sub a,_Put_Memroy_2[8]
 248  0097  0080     E  	mov ra,a
 248  0098  0F01        	mov a,1
 248  0099  0080     E  	mov rb,a
 248  009A  1F00     E  	clr rc
 248  009B  1400     E  	inca ra
 248  009C  2800     R  	jmp _LI2
 248  009D              _LI3:
 248  009D  340A        	clr c
 248  009E  1A80     E  	rlc rb
 248  009F  1A80     E  	rlc rc
 248  00A0              _LI2:
 248  00A0  1785        	sdz acc
 248  00A1  2800     R  	jmp _LI3
 248  00A2  0700     R  	mov a,_Put_Memroy_2[2]
 248  00A3  0580     E  	orm a,rb
 248  00A4  2800     R  	jmp _L49
 248  00A5              _L27:
 252  00A5              #line 252 "f:\work\血糖仪\a_bh45f67-旧版\4g\美国客户\make_lib\v1.0.01（5000套出货)-02\g-777g-usa-bg95eseye-2022-2-20\runTask.c"
 252  00A5  1080     R  	sz _Put_Memroy_2[8]
 252  00A6  2800     R  	jmp _L29
 253  00A7              #line 253 "f:\work\血糖仪\a_bh45f67-旧版\4g\美国客户\make_lib\v1.0.01（5000套出货)-02\g-777g-usa-bg95eseye-2022-2-20\runTask.c"
 253  00A7              	fcall _Crom2Prom
 253  00AE  0080     E  	mov ra,a
 253  00AF  3400     E  	clr ra.7
 253  00B0  0701        	mov a,sbp
 253  00B1  0D00     R  	or a,bank _Put_Memroy
 253  00B2  0084        	mov bp,a
 253  00B3  0700     E  	mov a,ra
 253  00B4  0082        	mov ir,a
 253  00B5  2800     R  	jmp _L28
 253  00B6              _L29:
 255  00B6              #line 255 "f:\work\血糖仪\a_bh45f67-旧版\4g\美国客户\make_lib\v1.0.01（5000套出货)-02\g-777g-usa-bg95eseye-2022-2-20\runTask.c"
 255  00B6              	fcall _Crom2Prom
 255  00BD  0080     R  	mov _Put_Memroy_2[2],a
 255  00BE  0FFF        	mov a,255
 255  00BF  0300     R  	add a,_Put_Memroy_2[8]
 255  00C0  0080     E  	mov rd,a
 255  00C1  0FFF        	mov a,255
 255  00C2  1F00     E  	clr re
 255  00C3  1380     E  	adcm a,re
 255  00C4  0FBF        	mov a,-65
 255  00C5  0080     E  	mov rb,a
 255  00C6  1F80     E  	set rc
 255  00C7  1400     E  	inca rd
 255  00C8  2800     R  	jmp _LI4
 255  00C9              _LI5:
 255  00C9  340A        	clr c
 255  00CA  3C00     E  	sz rc.7
 255  00CB  300A        	set c
 255  00CC  1B80     E  	rrc rc
 255  00CD  1B80     E  	rrc rb
 255  00CE              _LI4:
 255  00CE  1785        	sdz acc
 255  00CF  2800     R  	jmp _LI5
 255  00D0  0700     R  	mov a,_Put_Memroy_2[2]
 255  00D1  0680     E  	andm a,rb
 255  00D2              _L49:
 255  00D2  0701        	mov a,sbp
文件：runTask.c    编译器版本 HGASM 0202 页次14

 255  00D3  0D00     R  	or a,bank _Put_Memroy
 255  00D4  0084        	mov bp,a
 255  00D5  0700     E  	mov a,rb
 255  00D6  0082        	mov ir,a
 255  00D7              _L28:
 258  00D7              #line 258 "f:\work\血糖仪\a_bh45f67-旧版\4g\美国客户\make_lib\v1.0.01（5000套出货)-02\g-777g-usa-bg95eseye-2022-2-20\runTask.c"
 258  00D7  0FB0        	mov a,low offset _sys_Year
 258  00D8  0083        	mov mp,a
 258  00D9  0F03        	mov a,high offset _sys_Year
 258  00DA  0081        	mov sbp,a
 258  00DB  0701        	mov a,sbp
 258  00DC  0D00     R  	or a,bank _Put_Memroy
 258  00DD  0084        	mov bp,a
 258  00DE  0702        	mov a,ir
 258  00DF  0080     E  	mov rb,a
 258  00E0  1483        	inc mp
 258  00E1  0702        	mov a,ir
 258  00E2  0080     E  	mov rc,a
 258  00E3  0FDF        	mov a,223
 258  00E4  0200     E  	sub a,rb
 258  00E5  0F07        	mov a,7
 258  00E6  1200     E  	sbc a,rc
 258  00E7  3C0A        	sz c
 258  00E8  2800     R  	jmp _L37
 260  00E9              #line 260 "f:\work\血糖仪\a_bh45f67-旧版\4g\美国客户\make_lib\v1.0.01（5000套出货)-02\g-777g-usa-bg95eseye-2022-2-20\runTask.c"
 260  00E9  0FB0        	mov a,low offset _sys_Year
 260  00EA  0083        	mov mp,a
 260  00EB  0F03        	mov a,high offset _sys_Year
 260  00EC  0081        	mov sbp,a
 260  00ED  0701        	mov a,sbp
 260  00EE  0D00     R  	or a,bank _Put_Memroy
 260  00EF  0084        	mov bp,a
 260  00F0  0702        	mov a,ir
 260  00F1  0080     E  	mov rb,a
 260  00F2  1483        	inc mp
 260  00F3  0702        	mov a,ir
 260  00F4  0080     E  	mov rc,a
 260  00F5  0FEF        	mov a,239
 260  00F6  0200     E  	sub a,rb
 260  00F7  0F07        	mov a,7
 260  00F8  1200     E  	sbc a,rc
 260  00F9  380A        	snz c
 260  00FA  2800     R  	jmp _L38
 263  00FB              #line 263 "f:\work\血糖仪\a_bh45f67-旧版\4g\美国客户\make_lib\v1.0.01（5000套出货)-02\g-777g-usa-bg95eseye-2022-2-20\runTask.c"
 263  00FB  0FB0        	mov a,low offset _sys_Year
 263  00FC  0083        	mov mp,a
 263  00FD  0F03        	mov a,high offset _sys_Year
 263  00FE  0081        	mov sbp,a
 263  00FF  0701        	mov a,sbp
 263  0100  0D00     R  	or a,bank _Put_Memroy
 263  0101  0084        	mov bp,a
 263  0102  0702        	mov a,ir
 263  0103  0080     E  	mov rb,a
 263  0104  1483        	inc mp
 263  0105  0702        	mov a,ir
 263  0106  0080     E  	mov rc,a
 263  0107  0F20        	mov a,32
 263  0108  0380     E  	addm a,rb
 263  0109  2800     R  	jmp _L30
 263  010A              _L37:
文件：runTask.c    编译器版本 HGASM 0202 页次15

 259  010A              #line 259 "f:\work\血糖仪\a_bh45f67-旧版\4g\美国客户\make_lib\v1.0.01（5000套出货)-02\g-777g-usa-bg95eseye-2022-2-20\runTask.c"
 259  010A  1F00     E  	clr rb
 259  010B  2800     R  	jmp _L30
 259  010C              _L38:
 261  010C              #line 261 "f:\work\血糖仪\a_bh45f67-旧版\4g\美国客户\make_lib\v1.0.01（5000套出货)-02\g-777g-usa-bg95eseye-2022-2-20\runTask.c"
 261  010C  0F0F        	mov a,15
 261  010D  0080     E  	mov rb,a
 261  010E              _L30:
 264  010E              #line 264 "f:\work\血糖仪\a_bh45f67-旧版\4g\美国客户\make_lib\v1.0.01（5000套出货)-02\g-777g-usa-bg95eseye-2022-2-20\runTask.c"
 264  010E  1100     E  	swapa rb
 264  010F  0EF0        	and a,0f0h 
 264  0110  0080     E  	mov rb,a
 264  0111  0F80        	mov a,low offset _BLOOD_Package
 264  0112  0300     R  	add a,_Put_Memroy_2[6]
 264  0113  0083        	mov mp,a
 264  0114  0F02        	mov a,high offset _BLOOD_Package
 264  0115  1300     R  	adc a,_Put_Memroy_2[7]
 264  0116  0081        	mov sbp,a
 264  0117  0701        	mov a,sbp
 264  0118  0D00     R  	or a,bank _Put_Memroy
 264  0119  0084        	mov bp,a
 264  011A  0700     E  	mov a,rb
 264  011B  0082        	mov ir,a
 266  011C              #line 266 "f:\work\血糖仪\a_bh45f67-旧版\4g\美国客户\make_lib\v1.0.01（5000套出货)-02\g-777g-usa-bg95eseye-2022-2-20\runTask.c"
 266  011C  0FB2        	mov a,low offset _sys_Month
 266  011D  0083        	mov mp,a
 266  011E  0F03        	mov a,high offset _sys_Month
 266  011F  0081        	mov sbp,a
 266  0120  0701        	mov a,sbp
 266  0121  0D00     R  	or a,bank _Put_Memroy
 266  0122  0084        	mov bp,a
 266  0123  0702        	mov a,ir
 266  0124  0080     R  	mov _Put_Memroy_2[2],a
 266  0125  0F0C        	mov a,12
 266  0126  0200     R  	sub a,_Put_Memroy_2[2]
 266  0127  380A        	snz c
 266  0128  2800     R  	jmp _L39
 268  0129              #line 268 "f:\work\血糖仪\a_bh45f67-旧版\4g\美国客户\make_lib\v1.0.01（5000套出货)-02\g-777g-usa-bg95eseye-2022-2-20\runTask.c"
 268  0129  1080     R  	sz _Put_Memroy_2[2]
 268  012A  2800     R  	jmp _LI6
 268  012B  2800     R  	jmp _L40
 268  012C              _LI6:
 271  012C              #line 271 "f:\work\血糖仪\a_bh45f67-旧版\4g\美国客户\make_lib\v1.0.01（5000套出货)-02\g-777g-usa-bg95eseye-2022-2-20\runTask.c"
 271  012C  0700     R  	mov a,_Put_Memroy_2[2]
 271  012D  0080     E  	mov ra,a
 271  012E  2800     R  	jmp _L31
 271  012F              _L39:
 267  012F              #line 267 "f:\work\血糖仪\a_bh45f67-旧版\4g\美国客户\make_lib\v1.0.01（5000套出货)-02\g-777g-usa-bg95eseye-2022-2-20\runTask.c"
 267  012F  0F0C        	mov a,12
 267  0130  0080     E  	mov ra,a
 267  0131  2800     R  	jmp _L31
 267  0132              _L40:
 269  0132              #line 269 "f:\work\血糖仪\a_bh45f67-旧版\4g\美国客户\make_lib\v1.0.01（5000套出货)-02\g-777g-usa-bg95eseye-2022-2-20\runTask.c"
 269  0132  0F01        	mov a,1
 269  0133  0080     E  	mov ra,a
 269  0134              _L31:
 272  0134              #line 272 "f:\work\血糖仪\a_bh45f67-旧版\4g\美国客户\make_lib\v1.0.01（5000套出货)-02\g-777g-usa-bg95eseye-2022-2-20\runTask.c"
 272  0134  0F80        	mov a,low offset _BLOOD_Package
 272  0135  0300     R  	add a,_Put_Memroy_2[6]
 272  0136  0083        	mov mp,a
文件：runTask.c    编译器版本 HGASM 0202 页次16

 272  0137  0F02        	mov a,high offset _BLOOD_Package
 272  0138  1300     R  	adc a,_Put_Memroy_2[7]
 272  0139  0081        	mov sbp,a
 272  013A              	fcall _Crom2Prom
 272  0141  0080     R  	mov _Put_Memroy_2[2],a
 272  0142  0700     R  	mov a,_Put_Memroy_2[2]
 272  0143  0380     E  	addm a,ra
 272  0144  0701        	mov a,sbp
 272  0145  0D00     R  	or a,bank _Put_Memroy
 272  0146  0084        	mov bp,a
 272  0147  0700     E  	mov a,ra
 272  0148  0082        	mov ir,a
 274  0149              #line 274 "f:\work\血糖仪\a_bh45f67-旧版\4g\美国客户\make_lib\v1.0.01（5000套出货)-02\g-777g-usa-bg95eseye-2022-2-20\runTask.c"
 274  0149  0FB3        	mov a,low offset _sys_Day
 274  014A  0083        	mov mp,a
 274  014B  0F03        	mov a,high offset _sys_Day
 274  014C  0081        	mov sbp,a
 274  014D  0701        	mov a,sbp
 274  014E  0D00     R  	or a,bank _Put_Memroy
 274  014F  0084        	mov bp,a
 274  0150  0702        	mov a,ir
 274  0151  0080     R  	mov _Put_Memroy_2[2],a
 274  0152  1080     R  	sz _Put_Memroy_2[2]
 274  0153  2800     R  	jmp _LI7
 274  0154  2800     R  	jmp _L41
 274  0155              _LI7:
 276  0155              #line 276 "f:\work\血糖仪\a_bh45f67-旧版\4g\美国客户\make_lib\v1.0.01（5000套出货)-02\g-777g-usa-bg95eseye-2022-2-20\runTask.c"
 276  0155  0F1F        	mov a,31
 276  0156  0200     R  	sub a,_Put_Memroy_2[2]
 276  0157  380A        	snz c
 276  0158  2800     R  	jmp _L42
 279  0159              #line 279 "f:\work\血糖仪\a_bh45f67-旧版\4g\美国客户\make_lib\v1.0.01（5000套出货)-02\g-777g-usa-bg95eseye-2022-2-20\runTask.c"
 279  0159  0700     R  	mov a,_Put_Memroy_2[2]
 279  015A  0080     E  	mov ra,a
 279  015B  2800     R  	jmp _L32
 279  015C              _L41:
 275  015C              #line 275 "f:\work\血糖仪\a_bh45f67-旧版\4g\美国客户\make_lib\v1.0.01（5000套出货)-02\g-777g-usa-bg95eseye-2022-2-20\runTask.c"
 275  015C  0F01        	mov a,1
 275  015D  0080     E  	mov ra,a
 275  015E  2800     R  	jmp _L32
 275  015F              _L42:
 277  015F              #line 277 "f:\work\血糖仪\a_bh45f67-旧版\4g\美国客户\make_lib\v1.0.01（5000套出货)-02\g-777g-usa-bg95eseye-2022-2-20\runTask.c"
 277  015F  0F1F        	mov a,31
 277  0160  0080     E  	mov ra,a
 277  0161              _L32:
 280  0161              #line 280 "f:\work\血糖仪\a_bh45f67-旧版\4g\美国客户\make_lib\v1.0.01（5000套出货)-02\g-777g-usa-bg95eseye-2022-2-20\runTask.c"
 280  0161  0F01        	mov a,1
 280  0162  0300     R  	add a,_Put_Memroy_2[6]
 280  0163  0080     E  	mov rb,a
 280  0164  0F00        	mov a,0
 280  0165  1300     R  	adc a,_Put_Memroy_2[7]
 280  0166  0080     E  	mov rc,a
 280  0167  1100     E  	swapa ra
 280  0168  1985        	rr acc
 280  0169  0EF8        	and a,0f8h
 280  016A  0080     E  	mov ra,a
 280  016B  0F80        	mov a,low offset _BLOOD_Package
 280  016C  0300     E  	add a,rb
 280  016D  0083        	mov mp,a
 280  016E  0F02        	mov a,high offset _BLOOD_Package
文件：runTask.c    编译器版本 HGASM 0202 页次17

 280  016F  1300     E  	adc a,rc
 280  0170  0081        	mov sbp,a
 280  0171  0701        	mov a,sbp
 280  0172  0D00     R  	or a,bank _Put_Memroy
 280  0173  0084        	mov bp,a
 280  0174  0700     E  	mov a,ra
 280  0175  0082        	mov ir,a
 282  0176              #line 282 "f:\work\血糖仪\a_bh45f67-旧版\4g\美国客户\make_lib\v1.0.01（5000套出货)-02\g-777g-usa-bg95eseye-2022-2-20\runTask.c"
 282  0176  0FB4        	mov a,low offset _sys_Hour
 282  0177  0083        	mov mp,a
 282  0178  0F03        	mov a,high offset _sys_Hour
 282  0179  0081        	mov sbp,a
 282  017A  0701        	mov a,sbp
 282  017B  0D00     R  	or a,bank _Put_Memroy
 282  017C  0084        	mov bp,a
 282  017D  0702        	mov a,ir
 282  017E  0080     E  	mov ra,a
 282  017F  0F17        	mov a,23
 282  0180  0200     E  	sub a,ra
 282  0181  3C0A        	sz c
 282  0182  2800     R  	jmp _L33
 283  0183              #line 283 "f:\work\血糖仪\a_bh45f67-旧版\4g\美国客户\make_lib\v1.0.01（5000套出货)-02\g-777g-usa-bg95eseye-2022-2-20\runTask.c"
 283  0183  0F17        	mov a,23
 283  0184  0080     E  	mov ra,a
 283  0185              _L33:
 288  0185              #line 288 "f:\work\血糖仪\a_bh45f67-旧版\4g\美国客户\make_lib\v1.0.01（5000套出货)-02\g-777g-usa-bg95eseye-2022-2-20\runTask.c"
 288  0185  0700     E  	mov a,ra
 288  0186  0080     E  	mov rd,a
 288  0187  1100     E  	swapa rd
 288  0188  1985        	rr acc
 288  0189  0EF8        	and a,0f8h
 288  018A  0080     E  	mov rd,a
 290  018B              #line 290 "f:\work\血糖仪\a_bh45f67-旧版\4g\美国客户\make_lib\v1.0.01（5000套出货)-02\g-777g-usa-bg95eseye-2022-2-20\runTask.c"
 290  018B  0F80        	mov a,low offset _BLOOD_Package
 290  018C  0300     E  	add a,rb
 290  018D  0083        	mov mp,a
 290  018E  0F02        	mov a,high offset _BLOOD_Package
 290  018F  1300     E  	adc a,rc
 290  0190  0081        	mov sbp,a
 290  0191              	fcall _Crom2Prom
 290  0198  0080     R  	mov _Put_Memroy_2[2],a
 289  0199              #line 289 "f:\work\血糖仪\a_bh45f67-旧版\4g\美国客户\make_lib\v1.0.01（5000套出货)-02\g-777g-usa-bg95eseye-2022-2-20\runTask.c"
 289  0199  1100     E  	swapa rd
 289  019A  1985        	rr acc
 289  019B  0E07        	and a,07h
 289  019C  0080     E  	mov rb,a
 290  019D              #line 290 "f:\work\血糖仪\a_bh45f67-旧版\4g\美国客户\make_lib\v1.0.01（5000套出货)-02\g-777g-usa-bg95eseye-2022-2-20\runTask.c"
 290  019D  0700     R  	mov a,_Put_Memroy_2[2]
 290  019E  0380     E  	addm a,rb
 290  019F  0701        	mov a,sbp
 290  01A0  0D00     R  	or a,bank _Put_Memroy
 290  01A1  0084        	mov bp,a
 290  01A2  0700     E  	mov a,rb
 290  01A3  0082        	mov ir,a
 292  01A4              #line 292 "f:\work\血糖仪\a_bh45f67-旧版\4g\美国客户\make_lib\v1.0.01（5000套出货)-02\g-777g-usa-bg95eseye-2022-2-20\runTask.c"
 292  01A4  1900     E  	rra ra
 292  01A5  1985        	rr acc
 292  01A6  0EC0        	and a,0c0h
 292  01A7  0080     E  	mov ra,a
 293  01A8              #line 293 "f:\work\血糖仪\a_bh45f67-旧版\4g\美国客户\make_lib\v1.0.01（5000套出货)-02\g-777g-usa-bg95eseye-2022-2-20\runTask.c"
文件：runTask.c    编译器版本 HGASM 0202 页次18

 293  01A8  0F02        	mov a,2
 293  01A9  0300     R  	add a,_Put_Memroy_2[6]
 293  01AA  0080     E  	mov rb,a
 293  01AB  0F00        	mov a,0
 293  01AC  1300     R  	adc a,_Put_Memroy_2[7]
 293  01AD  0080     E  	mov rc,a
 293  01AE  0F80        	mov a,low offset _BLOOD_Package
 293  01AF  0300     E  	add a,rb
 293  01B0  0083        	mov mp,a
 293  01B1  0F02        	mov a,high offset _BLOOD_Package
 293  01B2  1300     E  	adc a,rc
 293  01B3  0081        	mov sbp,a
 293  01B4  0701        	mov a,sbp
 293  01B5  0D00     R  	or a,bank _Put_Memroy
 293  01B6  0084        	mov bp,a
 293  01B7  0700     E  	mov a,ra
 293  01B8  0082        	mov ir,a
 296  01B9              #line 296 "f:\work\血糖仪\a_bh45f67-旧版\4g\美国客户\make_lib\v1.0.01（5000套出货)-02\g-777g-usa-bg95eseye-2022-2-20\runTask.c"
 296  01B9  0FB5        	mov a,low offset _sys_Minute
 296  01BA  0083        	mov mp,a
 296  01BB  0F03        	mov a,high offset _sys_Minute
 296  01BC  0081        	mov sbp,a
 296  01BD  0701        	mov a,sbp
 296  01BE  0D00     R  	or a,bank _Put_Memroy
 296  01BF  0084        	mov bp,a
 296  01C0  0702        	mov a,ir
 296  01C1  0080     E  	mov ra,a
 296  01C2  0F3B        	mov a,59
 296  01C3  0200     E  	sub a,ra
 296  01C4  3C0A        	sz c
 296  01C5  2800     R  	jmp _L34
 297  01C6              #line 297 "f:\work\血糖仪\a_bh45f67-旧版\4g\美国客户\make_lib\v1.0.01（5000套出货)-02\g-777g-usa-bg95eseye-2022-2-20\runTask.c"
 297  01C6  0F3B        	mov a,59
 297  01C7  0080     E  	mov ra,a
 297  01C8              _L34:
 300  01C8              #line 300 "f:\work\血糖仪\a_bh45f67-旧版\4g\美国客户\make_lib\v1.0.01（5000套出货)-02\g-777g-usa-bg95eseye-2022-2-20\runTask.c"
 300  01C8  0F80        	mov a,low offset _BLOOD_Package
 300  01C9  0300     E  	add a,rb
 300  01CA  0083        	mov mp,a
 300  01CB  0F02        	mov a,high offset _BLOOD_Package
 300  01CC  1300     E  	adc a,rc
 300  01CD  0081        	mov sbp,a
 300  01CE              	fcall _Crom2Prom
 300  01D5  0080     R  	mov _Put_Memroy_2[2],a
 300  01D6  0700     R  	mov a,_Put_Memroy_2[2]
 300  01D7  0380     E  	addm a,ra
 300  01D8  0701        	mov a,sbp
 300  01D9  0D00     R  	or a,bank _Put_Memroy
 300  01DA  0084        	mov bp,a
 300  01DB  0700     E  	mov a,ra
 300  01DC  0082        	mov ir,a
 304  01DD              #line 304 "f:\work\血糖仪\a_bh45f67-旧版\4g\美国客户\make_lib\v1.0.01（5000套出货)-02\g-777g-usa-bg95eseye-2022-2-20\runTask.c"
 304  01DD  0FB6        	mov a,low offset _sys_Second
 304  01DE  0083        	mov mp,a
 304  01DF  0F03        	mov a,high offset _sys_Second
 304  01E0  0081        	mov sbp,a
 304  01E1  0701        	mov a,sbp
 304  01E2  0D00     R  	or a,bank _Put_Memroy
 304  01E3  0084        	mov bp,a
 304  01E4  0702        	mov a,ir
文件：runTask.c    编译器版本 HGASM 0202 页次19

 304  01E5  0080     E  	mov ra,a
 304  01E6  0F3B        	mov a,59
 304  01E7  0200     E  	sub a,ra
 304  01E8  3C0A        	sz c
 304  01E9  2800     R  	jmp _L35
 305  01EA              #line 305 "f:\work\血糖仪\a_bh45f67-旧版\4g\美国客户\make_lib\v1.0.01（5000套出货)-02\g-777g-usa-bg95eseye-2022-2-20\runTask.c"
 305  01EA  0F3B        	mov a,59
 305  01EB  0080     E  	mov ra,a
 305  01EC              _L35:
 308  01EC              #line 308 "f:\work\血糖仪\a_bh45f67-旧版\4g\美国客户\make_lib\v1.0.01（5000套出货)-02\g-777g-usa-bg95eseye-2022-2-20\runTask.c"
 308  01EC  0700     E  	mov a,ra
 308  01ED  0380     E  	addm a,ra
 308  01EE  0700     E  	mov a,ra
 308  01EF  0380     E  	addm a,ra
 309  01F0              #line 309 "f:\work\血糖仪\a_bh45f67-旧版\4g\美国客户\make_lib\v1.0.01（5000套出货)-02\g-777g-usa-bg95eseye-2022-2-20\runTask.c"
 309  01F0  0F83        	mov a,low (offset _BLOOD_Package+3)
 309  01F1  0300     R  	add a,_Put_Memroy_2[6]
 309  01F2  0080     E  	mov rb,a
 309  01F3  0F02        	mov a,high (offset _BLOOD_Package+3)
 309  01F4  1300     R  	adc a,_Put_Memroy_2[7]
 309  01F5  0080     E  	mov rc,a
 309  01F6  0700     E  	mov a,rb
 309  01F7  0083        	mov mp,a
 309  01F8  0700     E  	mov a,rc
 309  01F9  0081        	mov sbp,a
 309  01FA  0701        	mov a,sbp
 309  01FB  0D00     R  	or a,bank _Put_Memroy
 309  01FC  0084        	mov bp,a
 309  01FD  0700     E  	mov a,ra
 309  01FE  0082        	mov ir,a
 311  01FF              #line 311 "f:\work\血糖仪\a_bh45f67-旧版\4g\美国客户\make_lib\v1.0.01（5000套出货)-02\g-777g-usa-bg95eseye-2022-2-20\runTask.c"
 311  01FF  0FC3        	mov a,low offset _Blood_glucose
 311  0200  0083        	mov mp,a
 311  0201  0F03        	mov a,high offset _Blood_glucose
 311  0202  0081        	mov sbp,a
 311  0203  0701        	mov a,sbp
 311  0204  0D00     R  	or a,bank _Put_Memroy
 311  0205  0084        	mov bp,a
 311  0206  0702        	mov a,ir
 311  0207  0080     E  	mov rd,a
 311  0208  1483        	inc mp
 311  0209  0702        	mov a,ir
 311  020A  0080     E  	mov re,a
 311  020B  1483        	inc mp
 311  020C  0702        	mov a,ir
 311  020D  0080     E  	mov rf,a
 311  020E  1483        	inc mp
 311  020F  0702        	mov a,ir
 311  0210  0080     E  	mov rg,a
 312  0211              #line 312 "f:\work\血糖仪\a_bh45f67-旧版\4g\美国客户\make_lib\v1.0.01（5000套出货)-02\g-777g-usa-bg95eseye-2022-2-20\runTask.c"
 312  0211  0FC3        	mov a,low offset _Blood_glucose
 312  0212  0083        	mov mp,a
 312  0213  0F03        	mov a,high offset _Blood_glucose
 312  0214  0081        	mov sbp,a
 312  0215  0701        	mov a,sbp
 312  0216  0D00     R  	or a,bank _Put_Memroy
 312  0217  0084        	mov bp,a
 312  0218  0702        	mov a,ir
 312  0219  0080     R  	mov _Put_Memroy_2[2],a
 312  021A  1483        	inc mp
文件：runTask.c    编译器版本 HGASM 0202 页次20

 312  021B  0702        	mov a,ir
 312  021C  0080     R  	mov _Put_Memroy_2[3],a
 312  021D  1483        	inc mp
 312  021E  0702        	mov a,ir
 312  021F  0080     R  	mov _Put_Memroy_2[4],a
 312  0220  1483        	inc mp
 312  0221  0702        	mov a,ir
 312  0222  0080     R  	mov _Put_Memroy_2[5],a
 315  0223              #line 315 "f:\work\血糖仪\a_bh45f67-旧版\4g\美国客户\make_lib\v1.0.01（5000套出货)-02\g-777g-usa-bg95eseye-2022-2-20\runTask.c"
 315  0223  0700     E  	mov a,rb
 315  0224  0083        	mov mp,a
 315  0225  0700     E  	mov a,rc
 315  0226  0081        	mov sbp,a
 315  0227              	fcall _Crom2Prom
 315  022E  0080     R  	mov _Put_Memroy_2[8],a
 314  022F              #line 314 "f:\work\血糖仪\a_bh45f67-旧版\4g\美国客户\make_lib\v1.0.01（5000套出货)-02\g-777g-usa-bg95eseye-2022-2-20\runTask.c"
 314  022F  0700     E  	mov a,re
 314  0230  0E03        	and a,3
 314  0231  0080     E  	mov ra,a
 315  0232              #line 315 "f:\work\血糖仪\a_bh45f67-旧版\4g\美国客户\make_lib\v1.0.01（5000套出货)-02\g-777g-usa-bg95eseye-2022-2-20\runTask.c"
 315  0232  0700     R  	mov a,_Put_Memroy_2[8]
 315  0233  0380     E  	addm a,ra
 315  0234  0701        	mov a,sbp
 315  0235  0D00     R  	or a,bank _Put_Memroy
 315  0236  0084        	mov bp,a
 315  0237  0700     E  	mov a,ra
 315  0238  0082        	mov ir,a
 316  0239              #line 316 "f:\work\血糖仪\a_bh45f67-旧版\4g\美国客户\make_lib\v1.0.01（5000套出货)-02\g-777g-usa-bg95eseye-2022-2-20\runTask.c"
 316  0239  0F84        	mov a,low (offset _BLOOD_Package+4)
 316  023A  0300     R  	add a,_Put_Memroy_2[6]
 316  023B  0083        	mov mp,a
 316  023C  0F02        	mov a,high (offset _BLOOD_Package+4)
 316  023D  1300     R  	adc a,_Put_Memroy_2[7]
 316  023E  0081        	mov sbp,a
 316  023F  0701        	mov a,sbp
 316  0240  0D00     R  	or a,bank _Put_Memroy
 316  0241  0084        	mov bp,a
 316  0242  0700     R  	mov a,_Put_Memroy_2[2]
 316  0243  0082        	mov ir,a
 320  0244              #line 320 "f:\work\血糖仪\a_bh45f67-旧版\4g\美国客户\make_lib\v1.0.01（5000套出货)-02\g-777g-usa-bg95eseye-2022-2-20\runTask.c"
 320  0244              	fcall _fun_enable_fwen
 320  024B  0080     E  	mov ra,a
 320  024C  1080     E  	sz ra
 320  024D  2800     R  	jmp _LI8
 320  024E  2800     R  	jmp _L26
 320  024F              _LI8:
 322  024F              #line 322 "f:\work\血糖仪\a_bh45f67-旧版\4g\美国客户\make_lib\v1.0.01（5000套出货)-02\g-777g-usa-bg95eseye-2022-2-20\runTask.c"
 322  024F              	fcall _me_delay_100us
 323  0256              #line 323 "f:\work\血糖仪\a_bh45f67-旧版\4g\美国客户\make_lib\v1.0.01（5000套出货)-02\g-777g-usa-bg95eseye-2022-2-20\runTask.c"
 323  0256  0700     R  	mov a,_Put_Memroy_2[11]
 323  0257  0080     E  	mov _fun_erase_page_2[0],a
 323  0258  0700     R  	mov a,_Put_Memroy_2[12]
 323  0259  0080     E  	mov _fun_erase_page_2[1],a
 323  025A  0700     R  	mov a,_Put_Memroy_2[13]
 323  025B  0080     E  	mov _fun_erase_page_2[2],a
 323  025C  0700     R  	mov a,_Put_Memroy_2[14]
 323  025D  0080     E  	mov _fun_erase_page_2[3],a
 323  025E              	fcall _fun_erase_page
 324  0265              #line 324 "f:\work\血糖仪\a_bh45f67-旧版\4g\美国客户\make_lib\v1.0.01（5000套出货)-02\g-777g-usa-bg95eseye-2022-2-20\runTask.c"
 324  0265              	fcall _me_delay_100us
文件：runTask.c    编译器版本 HGASM 0202 页次21

 325  026C              #line 325 "f:\work\血糖仪\a_bh45f67-旧版\4g\美国客户\make_lib\v1.0.01（5000套出货)-02\g-777g-usa-bg95eseye-2022-2-20\runTask.c"
 325  026C  1F00     E  	clr _fun_write_cpage_2[3]
 325  026D  0F80        	mov a,128
 325  026E  0080     E  	mov _fun_write_cpage_2[2],a
 325  026F  0700     R  	mov a,_Put_Memroy_2[9]
 325  0270  0080     E  	mov _fun_write_cpage_2[0],a
 325  0271  0700     R  	mov a,_Put_Memroy_2[10]
 325  0272  0080     E  	mov _fun_write_cpage_2[1],a
 325  0273              	fcall _fun_write_cpage
 326  027A              #line 326 "f:\work\血糖仪\a_bh45f67-旧版\4g\美国客户\make_lib\v1.0.01（5000套出货)-02\g-777g-usa-bg95eseye-2022-2-20\runTask.c"
 326  027A              	fcall _me_delay_100us
 326  0281              _L26:
 326  0281  0003        	ret
 326  0282              _Put_Memroy endp
 326  0282              #line 326 "f:\work\血糖仪\a_bh45f67-旧版\4g\美国客户\make_lib\v1.0.01（5000套出货)-02\g-777g-usa-bg95eseye-2022-2-20\runTask.c"
 326  0282              #pragma debug scope 1 1
 326  0282              _test_buff equ [987]
 326  0282              public _Get_Memroy
 326  0282              #pragma debug scope 8 1
 330  0282              #line 330 "f:\work\血糖仪\a_bh45f67-旧版\4g\美国客户\make_lib\v1.0.01（5000套出货)-02\g-777g-usa-bg95eseye-2022-2-20\runTask.c"
 330  0000              _Get_Memroy .section 'code'
 330  0000              _Get_Memroy proc
 330  0000              public _Get_Memroy_2
 330  0000  0008[           local _Get_Memroy_2 db 8 dup(?)	; 2,6
            00
            ]
 330  0008              #pragma debug variable 10 8 _Get_Memroy_2+0 "adr"
 330  0008              #pragma debug variable 8 8 _Get_Memroy_2+6 "iPosNum"
 330  0008              #pragma debug variable 8 8 _Get_Memroy_2+7 "iPosition"
 330  0008              #pragma debug variable 10 8 _Get_Memroy_2+4 "ipos"
 353  0008              #line 353 "f:\work\血糖仪\a_bh45f67-旧版\4g\美国客户\make_lib\v1.0.01（5000套出货)-02\g-777g-usa-bg95eseye-2022-2-20\runTask.c"
 353  0000  1F00     E  	clr _builtin_holtek_udivmodhi4_2[6]
 353  0001  0700     R  	mov a,_Get_Memroy_2[0]  
 353  0002  0080     E  	mov _builtin_holtek_udivmodhi4_2[0],a  
 353  0003  0700     R  	mov a,_Get_Memroy_2[1]  
 353  0004  0080     E  	mov _builtin_holtek_udivmodhi4_2[1],a
 353  0005  0FF4        	mov a,244  
 353  0006  0080     E  	mov _builtin_holtek_udivmodhi4_2[2],a  
 353  0007  0F01        	mov a,1  
 353  0008  0080     E  	mov _builtin_holtek_udivmodhi4_2[3],a
 353  0009              	fcall _builtin_holtek_udivmodhi4
 353  0010  0700     E  	mov a,_builtin_holtek_udivmodhi4_2[4]  
 353  0011  0080     R  	mov _Get_Memroy_2[4],a  
 353  0012  0700     E  	mov a,_builtin_holtek_udivmodhi4_2[5]  
 353  0013  0080     R  	mov _Get_Memroy_2[5],a
 356  0014              #line 356 "f:\work\血糖仪\a_bh45f67-旧版\4g\美国客户\make_lib\v1.0.01（5000套出货)-02\g-777g-usa-bg95eseye-2022-2-20\runTask.c"
 356  0014  1F00     E  	clr _builtin_holtek_udivmodhi4_2[6]
 356  0015  0700     R  	mov a,_Get_Memroy_2[4]  
 356  0016  0080     E  	mov _builtin_holtek_udivmodhi4_2[0],a  
 356  0017  0700     R  	mov a,_Get_Memroy_2[5]  
 356  0018  0080     E  	mov _builtin_holtek_udivmodhi4_2[1],a
 356  0019  0F18        	mov a,24  
 356  001A  0080     E  	mov _builtin_holtek_udivmodhi4_2[2],a  
 356  001B  1F00     E  	clr _builtin_holtek_udivmodhi4_2[3]
 356  001C              	fcall _builtin_holtek_udivmodhi4
 356  0023  0700     E  	mov a,_builtin_holtek_udivmodhi4_2[4]  
 356  0024  0080     E  	mov rb,a  
 356  0025  0700     E  	mov a,_builtin_holtek_udivmodhi4_2[5]  
 356  0026  0080     E  	mov rc,a
 357  0027              #line 357 "f:\work\血糖仪\a_bh45f67-旧版\4g\美国客户\make_lib\v1.0.01（5000套出货)-02\g-777g-usa-bg95eseye-2022-2-20\runTask.c"
文件：runTask.c    编译器版本 HGASM 0202 页次22

 357  0027  340A        	clr c
 357  0028  1A00     E  	rlca rb
 357  0029  0080     E  	mov rd,a
 357  002A  1A00     E  	rlca rc
 357  002B  0080     E  	mov re,a
 357  002C  340A        	clr c
 357  002D  1A80     E  	rlc rd
 357  002E  1A80     E  	rlc re
 357  002F  0700     E  	mov a,rb
 357  0030  0300     E  	add a,rd
 357  0031  0080     R  	mov _Get_Memroy_2[2],a
 357  0032  0700     E  	mov a,rc
 357  0033  1300     E  	adc a,re
 357  0034  0080     R  	mov _Get_Memroy_2[3],a
 359  0035              #line 359 "f:\work\血糖仪\a_bh45f67-旧版\4g\美国客户\make_lib\v1.0.01（5000套出货)-02\g-777g-usa-bg95eseye-2022-2-20\runTask.c"
 359  0035  1100     E  	swapa rb
 359  0036  1885        	rl acc
 359  0037  0E1F        	and a,1fh
 359  0038  0080     R  	mov _Get_Memroy_2[6],a
 360  0039              #line 360 "f:\work\血糖仪\a_bh45f67-旧版\4g\美国客户\make_lib\v1.0.01（5000套出货)-02\g-777g-usa-bg95eseye-2022-2-20\runTask.c"
 360  0039  0700     E  	mov a,rb
 360  003A  0E07        	and a,7
 360  003B  0080     R  	mov _Get_Memroy_2[7],a
 362  003C              #line 362 "f:\work\血糖仪\a_bh45f67-旧版\4g\美国客户\make_lib\v1.0.01（5000套出货)-02\g-777g-usa-bg95eseye-2022-2-20\runTask.c"
 362  003C  0F80        	mov a,-128
 362  003D  0080     E  	mov _memset_2[4],a
 362  003E  1F00     E  	clr _memset_2[5]
 362  003F  1F00     E  	clr _memset_2[2]
 362  0040  1F00     E  	clr _memset_2[3]
 362  0041  0F80        	mov a,low offset _BLOOD_Package
 362  0042  0080     E  	mov _memset_2[0],a
 362  0043  0F02        	mov a,high offset _BLOOD_Package
 362  0044  0080     E  	mov _memset_2[1],a
 362  0045              	fcall _memset
 355  004C              #line 355 "f:\work\血糖仪\a_bh45f67-旧版\4g\美国客户\make_lib\v1.0.01（5000套出货)-02\g-777g-usa-bg95eseye-2022-2-20\runTask.c"
 355  004C  1F00     E  	clr _builtin_holtek_udivmodhi4_2[6]
 355  004D  0700     R  	mov a,_Get_Memroy_2[4]  
 355  004E  0080     E  	mov _builtin_holtek_udivmodhi4_2[0],a  
 355  004F  0700     R  	mov a,_Get_Memroy_2[5]  
 355  0050  0080     E  	mov _builtin_holtek_udivmodhi4_2[1],a
 355  0051  0F18        	mov a,24  
 355  0052  0080     E  	mov _builtin_holtek_udivmodhi4_2[2],a  
 355  0053  1F00     E  	clr _builtin_holtek_udivmodhi4_2[3]
 355  0054              	fcall _builtin_holtek_udivmodhi4
 355  005B  0700     E  	mov a,_builtin_holtek_udivmodhi4_2[0]  
 355  005C  0080     E  	mov rb,a  
 355  005D  0700     E  	mov a,_builtin_holtek_udivmodhi4_2[1]  
 355  005E  0080     E  	mov rc,a
 363  005F              #line 363 "f:\work\血糖仪\a_bh45f67-旧版\4g\美国客户\make_lib\v1.0.01（5000套出货)-02\g-777g-usa-bg95eseye-2022-2-20\runTask.c"
 363  005F  0FDF        	mov a,223
 363  0060  0380     E  	addm a,rb
 363  0061  0F01        	mov a,1
 363  0062  1380     E  	adcm a,rc
 363  0063  0F06        	mov a,6
 363  0064              _LI9:
 363  0064  340A        	clr c
 363  0065  1A80     E  	rlc rb
 363  0066  1A80     E  	rlc rc
 363  0067  1785        	sdz acc
 363  0068  2800     R  	jmp _LI9
文件：runTask.c    编译器版本 HGASM 0202 页次23

 363  0069  0700     E  	mov a,rb
 363  006A  0080     E  	mov _fun_read_page_2[0],a
 363  006B  0700     E  	mov a,rc
 363  006C  0080     E  	mov _fun_read_page_2[1],a
 363  006D  1F00     E  	clr _fun_read_page_2[2]
 363  006E  1F00     E  	clr _fun_read_page_2[3]
 363  006F              	fcall _fun_read_page
 365  0076              #line 365 "f:\work\血糖仪\a_bh45f67-旧版\4g\美国客户\make_lib\v1.0.01（5000套出货)-02\g-777g-usa-bg95eseye-2022-2-20\runTask.c"
 365  0076  0FFD        	mov a,low (offset _BLOOD_Package+125)
 365  0077  0300     R  	add a,_Get_Memroy_2[6]
 365  0078  0083        	mov mp,a
 365  0079  0F02        	mov a,high (offset _BLOOD_Package+125)
 365  007A  1F01        	clr sbp
 365  007B  1381        	adcm a,sbp
 364  007C              #line 364 "f:\work\血糖仪\a_bh45f67-旧版\4g\美国客户\make_lib\v1.0.01（5000套出货)-02\g-777g-usa-bg95eseye-2022-2-20\runTask.c"
 364  007C  1080     R  	sz _Get_Memroy_2[7]
 364  007D  2800     R  	jmp _L51
 365  007E              #line 365 "f:\work\血糖仪\a_bh45f67-旧版\4g\美国客户\make_lib\v1.0.01（5000套出货)-02\g-777g-usa-bg95eseye-2022-2-20\runTask.c"
 365  007E              	fcall _Crom2Prom
 365  0085  0080     E  	mov rb,a
 365  0086  0F80        	mov a,128
 365  0087  0680     E  	andm a,rb
 365  0088  2800     R  	jmp _L52
 365  0089              _L51:
 367  0089              #line 367 "f:\work\血糖仪\a_bh45f67-旧版\4g\美国客户\make_lib\v1.0.01（5000套出货)-02\g-777g-usa-bg95eseye-2022-2-20\runTask.c"
 367  0089              	fcall _Crom2Prom
 367  0090  0080     E  	mov ra,a
 367  0091  0FFF        	mov a,255
 367  0092  0300     R  	add a,_Get_Memroy_2[7]
 367  0093  0080     E  	mov rd,a
 367  0094  0FFF        	mov a,255
 367  0095  1F00     E  	clr re
 367  0096  1380     E  	adcm a,re
 367  0097  0F40        	mov a,64
 367  0098  0080     E  	mov rb,a
 367  0099  1F00     E  	clr rc
 367  009A  1400     E  	inca rd
 367  009B  2800     R  	jmp _LI10
 367  009C              _LI11:
 367  009C  340A        	clr c
 367  009D  3C00     E  	sz rc.7
 367  009E  300A        	set c
 367  009F  1B80     E  	rrc rc
 367  00A0  1B80     E  	rrc rb
 367  00A1              _LI10:
 367  00A1  1785        	sdz acc
 367  00A2  2800     R  	jmp _LI11
 367  00A3  0700     E  	mov a,ra
 367  00A4  0680     E  	andm a,rb
 367  00A5              _L52:
 370  00A5              #line 370 "f:\work\血糖仪\a_bh45f67-旧版\4g\美国客户\make_lib\v1.0.01（5000套出货)-02\g-777g-usa-bg95eseye-2022-2-20\runTask.c"
 370  00A5  0F81        	mov a,low (offset _SystemFlags+1)
 370  00A6  0083        	mov mp,a
 370  00A7  0F03        	mov a,high (offset _SystemFlags+1)
 370  00A8  0081        	mov sbp,a
 369  00A9              #line 369 "f:\work\血糖仪\a_bh45f67-旧版\4g\美国客户\make_lib\v1.0.01（5000套出货)-02\g-777g-usa-bg95eseye-2022-2-20\runTask.c"
 369  00A9  1080     E  	sz rb
 369  00AA  2800     R  	jmp _LI12
 369  00AB  2800     R  	jmp _L53
 369  00AC              _LI12:
文件：runTask.c    编译器版本 HGASM 0202 页次24

 370  00AC              #line 370 "f:\work\血糖仪\a_bh45f67-旧版\4g\美国客户\make_lib\v1.0.01（5000套出货)-02\g-777g-usa-bg95eseye-2022-2-20\runTask.c"
 370  00AC  0701        	mov a,sbp
 370  00AD  0D00     R  	or a,bank _Get_Memroy
 370  00AE  0084        	mov bp,a
 370  00AF  3082        	set ir.1
 370  00B0  2800     R  	jmp _L54
 370  00B1              _L53:
 372  00B1              #line 372 "f:\work\血糖仪\a_bh45f67-旧版\4g\美国客户\make_lib\v1.0.01（5000套出货)-02\g-777g-usa-bg95eseye-2022-2-20\runTask.c"
 372  00B1  0701        	mov a,sbp
 372  00B2  0D00     R  	or a,bank _Get_Memroy
 372  00B3  0084        	mov bp,a
 372  00B4  3482        	clr ir.1
 372  00B5              _L54:
 374  00B5              #line 374 "f:\work\血糖仪\a_bh45f67-旧版\4g\美国客户\make_lib\v1.0.01（5000套出货)-02\g-777g-usa-bg95eseye-2022-2-20\runTask.c"
 374  00B5  0F80        	mov a,low offset _BLOOD_Package
 374  00B6  0300     R  	add a,_Get_Memroy_2[2]
 374  00B7  0083        	mov mp,a
 374  00B8  0F02        	mov a,high offset _BLOOD_Package
 374  00B9  1300     R  	adc a,_Get_Memroy_2[3]
 374  00BA  0081        	mov sbp,a
 374  00BB              	fcall _Crom2Prom
 374  00C2  0080     E  	mov ra,a
 375  00C3              #line 375 "f:\work\血糖仪\a_bh45f67-旧版\4g\美国客户\make_lib\v1.0.01（5000套出货)-02\g-777g-usa-bg95eseye-2022-2-20\runTask.c"
 375  00C3  1100     E  	swapa ra
 375  00C4  0E0F        	and a,0fh
 375  00C5  0080     E  	mov rb,a
 376  00C6              #line 376 "f:\work\血糖仪\a_bh45f67-旧版\4g\美国客户\make_lib\v1.0.01（5000套出货)-02\g-777g-usa-bg95eseye-2022-2-20\runTask.c"
 376  00C6  0FDB        	mov a,low offset _test_buff
 376  00C7  0083        	mov mp,a
 376  00C8  0F03        	mov a,high offset _test_buff
 376  00C9  0081        	mov sbp,a
 376  00CA  0701        	mov a,sbp
 376  00CB  0D00     R  	or a,bank _Get_Memroy
 376  00CC  0084        	mov bp,a
 376  00CD  0700     E  	mov a,rb
 376  00CE  0082        	mov ir,a
 378  00CF              #line 378 "f:\work\血糖仪\a_bh45f67-旧版\4g\美国客户\make_lib\v1.0.01（5000套出货)-02\g-777g-usa-bg95eseye-2022-2-20\runTask.c"
 378  00CF  0F0F        	mov a,15
 378  00D0  0680     E  	andm a,ra
 379  00D1              #line 379 "f:\work\血糖仪\a_bh45f67-旧版\4g\美国客户\make_lib\v1.0.01（5000套出货)-02\g-777g-usa-bg95eseye-2022-2-20\runTask.c"
 379  00D1  1483        	inc mp
 379  00D2  3D0A        	sz z
 379  00D3  1481        	inc sbp
 379  00D4  0701        	mov a,sbp
 379  00D5  0D00     R  	or a,bank _Get_Memroy
 379  00D6  0084        	mov bp,a
 379  00D7  0700     E  	mov a,ra
 379  00D8  0082        	mov ir,a
 381  00D9              #line 381 "f:\work\血糖仪\a_bh45f67-旧版\4g\美国客户\make_lib\v1.0.01（5000套出货)-02\g-777g-usa-bg95eseye-2022-2-20\runTask.c"
 381  00D9  0F81        	mov a,low (offset _BLOOD_Package+1)
 381  00DA  0300     R  	add a,_Get_Memroy_2[2]
 381  00DB  0083        	mov mp,a
 381  00DC  0F02        	mov a,high (offset _BLOOD_Package+1)
 381  00DD  1300     R  	adc a,_Get_Memroy_2[3]
 381  00DE  0081        	mov sbp,a
 381  00DF              	fcall _Crom2Prom
 381  00E6  0080     E  	mov rb,a
 382  00E7              #line 382 "f:\work\血糖仪\a_bh45f67-旧版\4g\美国客户\make_lib\v1.0.01（5000套出货)-02\g-777g-usa-bg95eseye-2022-2-20\runTask.c"
 382  00E7  0F82        	mov a,low (offset _BLOOD_Package+2)
 382  00E8  0300     R  	add a,_Get_Memroy_2[2]
文件：runTask.c    编译器版本 HGASM 0202 页次25

 382  00E9  0083        	mov mp,a
 382  00EA  0F02        	mov a,high (offset _BLOOD_Package+2)
 382  00EB  1300     R  	adc a,_Get_Memroy_2[3]
 382  00EC  0081        	mov sbp,a
 382  00ED              	fcall _Crom2Prom
 382  00F4  0080     E  	mov ra,a
 383  00F5              #line 383 "f:\work\血糖仪\a_bh45f67-旧版\4g\美国客户\make_lib\v1.0.01（5000套出货)-02\g-777g-usa-bg95eseye-2022-2-20\runTask.c"
 383  00F5  1100     E  	swapa rb
 383  00F6  1885        	rl acc
 383  00F7  0E1F        	and a,1fh
 383  00F8  0080     E  	mov rc,a
 384  00F9              #line 384 "f:\work\血糖仪\a_bh45f67-旧版\4g\美国客户\make_lib\v1.0.01（5000套出货)-02\g-777g-usa-bg95eseye-2022-2-20\runTask.c"
 384  00F9  0FDD        	mov a,low (offset _test_buff+2)
 384  00FA  0083        	mov mp,a
 384  00FB  0F03        	mov a,high (offset _test_buff+2)
 384  00FC  0081        	mov sbp,a
 384  00FD  0701        	mov a,sbp
 384  00FE  0D00     R  	or a,bank _Get_Memroy
 384  00FF  0084        	mov bp,a
 384  0100  0700     E  	mov a,rc
 384  0101  0082        	mov ir,a
 386  0102              #line 386 "f:\work\血糖仪\a_bh45f67-旧版\4g\美国客户\make_lib\v1.0.01（5000套出货)-02\g-777g-usa-bg95eseye-2022-2-20\runTask.c"
 386  0102  1100     E  	swapa rb
 386  0103  1885        	rl acc
 386  0104  0EE0        	and a,0e0h
 386  0105  0080     E  	mov rb,a
 387  0106              #line 387 "f:\work\血糖仪\a_bh45f67-旧版\4g\美国客户\make_lib\v1.0.01（5000套出货)-02\g-777g-usa-bg95eseye-2022-2-20\runTask.c"
 387  0106  1100     E  	swapa rb
 387  0107  1885        	rl acc
 387  0108  0E1F        	and a,1fh
 387  0109  0080     E  	mov rb,a
 388  010A              #line 388 "f:\work\血糖仪\a_bh45f67-旧版\4g\美国客户\make_lib\v1.0.01（5000套出货)-02\g-777g-usa-bg95eseye-2022-2-20\runTask.c"
 388  010A  1483        	inc mp
 388  010B  3D0A        	sz z
 388  010C  1481        	inc sbp
 389  010D              #line 389 "f:\work\血糖仪\a_bh45f67-旧版\4g\美国客户\make_lib\v1.0.01（5000套出货)-02\g-777g-usa-bg95eseye-2022-2-20\runTask.c"
 389  010D  1800     E  	rla ra
 389  010E  1885        	rl acc
 389  010F  0E03        	and a,3
 389  0110  0080     E  	mov rc,a
 390  0111              #line 390 "f:\work\血糖仪\a_bh45f67-旧版\4g\美国客户\make_lib\v1.0.01（5000套出货)-02\g-777g-usa-bg95eseye-2022-2-20\runTask.c"
 390  0111  0700     E  	mov a,rc
 390  0112  0380     E  	addm a,rb
 390  0113  0701        	mov a,sbp
 390  0114  0D00     R  	or a,bank _Get_Memroy
 390  0115  0084        	mov bp,a
 390  0116  0700     E  	mov a,rb
 390  0117  0082        	mov ir,a
 392  0118              #line 392 "f:\work\血糖仪\a_bh45f67-旧版\4g\美国客户\make_lib\v1.0.01（5000套出货)-02\g-777g-usa-bg95eseye-2022-2-20\runTask.c"
 392  0118  0700     E  	mov a,ra
 392  0119  0380     E  	addm a,ra
 392  011A  0700     E  	mov a,ra
 392  011B  0380     E  	addm a,ra
 393  011C              #line 393 "f:\work\血糖仪\a_bh45f67-旧版\4g\美国客户\make_lib\v1.0.01（5000套出货)-02\g-777g-usa-bg95eseye-2022-2-20\runTask.c"
 393  011C  340A        	clr c
 393  011D  1B80     E  	rrc ra
 393  011E  340A        	clr c
 393  011F  1B80     E  	rrc ra
 394  0120              #line 394 "f:\work\血糖仪\a_bh45f67-旧版\4g\美国客户\make_lib\v1.0.01（5000套出货)-02\g-777g-usa-bg95eseye-2022-2-20\runTask.c"
 394  0120  1483        	inc mp
文件：runTask.c    编译器版本 HGASM 0202 页次26

 394  0121  3D0A        	sz z
 394  0122  1481        	inc sbp
 394  0123  0701        	mov a,sbp
 394  0124  0D00     R  	or a,bank _Get_Memroy
 394  0125  0084        	mov bp,a
 394  0126  0700     E  	mov a,ra
 394  0127  0082        	mov ir,a
 396  0128              #line 396 "f:\work\血糖仪\a_bh45f67-旧版\4g\美国客户\make_lib\v1.0.01（5000套出货)-02\g-777g-usa-bg95eseye-2022-2-20\runTask.c"
 396  0128  0F83        	mov a,low (offset _BLOOD_Package+3)
 396  0129  0300     R  	add a,_Get_Memroy_2[2]
 396  012A  0083        	mov mp,a
 396  012B  0F02        	mov a,high (offset _BLOOD_Package+3)
 396  012C  1300     R  	adc a,_Get_Memroy_2[3]
 396  012D  0081        	mov sbp,a
 396  012E              	fcall _Crom2Prom
 396  0135  0080     E  	mov ra,a
 397  0136              #line 397 "f:\work\血糖仪\a_bh45f67-旧版\4g\美国客户\make_lib\v1.0.01（5000套出货)-02\g-777g-usa-bg95eseye-2022-2-20\runTask.c"
 397  0136  0F84        	mov a,low (offset _BLOOD_Package+4)
 397  0137  0300     R  	add a,_Get_Memroy_2[2]
 397  0138  0083        	mov mp,a
 397  0139  0F02        	mov a,high (offset _BLOOD_Package+4)
 397  013A  1300     R  	adc a,_Get_Memroy_2[3]
 397  013B  0081        	mov sbp,a
 397  013C              	fcall _Crom2Prom
 397  0143  0080     E  	mov rb,a
 398  0144              #line 398 "f:\work\血糖仪\a_bh45f67-旧版\4g\美国客户\make_lib\v1.0.01（5000套出货)-02\g-777g-usa-bg95eseye-2022-2-20\runTask.c"
 398  0144  1900     E  	rra ra
 398  0145  1985        	rr acc
 398  0146  0E3F        	and a,03fh
 398  0147  0080     E  	mov rc,a
 399  0148              #line 399 "f:\work\血糖仪\a_bh45f67-旧版\4g\美国客户\make_lib\v1.0.01（5000套出货)-02\g-777g-usa-bg95eseye-2022-2-20\runTask.c"
 399  0148  0FE0        	mov a,low (offset _test_buff+5)
 399  0149  0083        	mov mp,a
 399  014A  0F03        	mov a,high (offset _test_buff+5)
 399  014B  0081        	mov sbp,a
 399  014C  0701        	mov a,sbp
 399  014D  0D00     R  	or a,bank _Get_Memroy
 399  014E  0084        	mov bp,a
 399  014F  0700     E  	mov a,rc
 399  0150  0082        	mov ir,a
 402  0151              #line 402 "f:\work\血糖仪\a_bh45f67-旧版\4g\美国客户\make_lib\v1.0.01（5000套出货)-02\g-777g-usa-bg95eseye-2022-2-20\runTask.c"
 402  0151  0F03        	mov a,3
 402  0152  0680     E  	andm a,ra
 403  0153              #line 403 "f:\work\血糖仪\a_bh45f67-旧版\4g\美国客户\make_lib\v1.0.01（5000套出货)-02\g-777g-usa-bg95eseye-2022-2-20\runTask.c"
 403  0153  1483        	inc mp
 403  0154  3D0A        	sz z
 403  0155  1481        	inc sbp
 403  0156  0701        	mov a,sbp
 403  0157  0D00     R  	or a,bank _Get_Memroy
 403  0158  0084        	mov bp,a
 403  0159  0700     E  	mov a,ra
 403  015A  0082        	mov ir,a
 404  015B              #line 404 "f:\work\血糖仪\a_bh45f67-旧版\4g\美国客户\make_lib\v1.0.01（5000套出货)-02\g-777g-usa-bg95eseye-2022-2-20\runTask.c"
 404  015B  1483        	inc mp
 404  015C  3D0A        	sz z
 404  015D  1481        	inc sbp
 404  015E  0701        	mov a,sbp
 404  015F  0D00     R  	or a,bank _Get_Memroy
 404  0160  0084        	mov bp,a
 404  0161  0700     E  	mov a,rb
文件：runTask.c    编译器版本 HGASM 0202 页次27

 404  0162  0082        	mov ir,a
 407  0163              #line 407 "f:\work\血糖仪\a_bh45f67-旧版\4g\美国客户\make_lib\v1.0.01（5000套出货)-02\g-777g-usa-bg95eseye-2022-2-20\runTask.c"
 407  0163  0FFF        	mov a,255
 407  0164  0383        	addm a,mp
 407  0165  0FFF        	mov a,255
 407  0166  1381        	adcm a,sbp
 408  0167              #line 408 "f:\work\血糖仪\a_bh45f67-旧版\4g\美国客户\make_lib\v1.0.01（5000套出货)-02\g-777g-usa-bg95eseye-2022-2-20\runTask.c"
 408  0167  0701        	mov a,sbp
 408  0168  0D00     R  	or a,bank _Get_Memroy
 408  0169  0084        	mov bp,a
 408  016A  0702        	mov a,ir
 408  016B  0080     E  	mov rc,a
 408  016C  1F00     E  	clr rb
 409  016D              #line 409 "f:\work\血糖仪\a_bh45f67-旧版\4g\美国客户\make_lib\v1.0.01（5000套出货)-02\g-777g-usa-bg95eseye-2022-2-20\runTask.c"
 409  016D  1483        	inc mp
 409  016E  3D0A        	sz z
 409  016F  1481        	inc sbp
 409  0170  0701        	mov a,sbp
 409  0171  0D00     R  	or a,bank _Get_Memroy
 409  0172  0084        	mov bp,a
 409  0173  0702        	mov a,ir
 409  0174  0080     E  	mov ra,a
 413  0175              #line 413 "f:\work\血糖仪\a_bh45f67-旧版\4g\美国客户\make_lib\v1.0.01（5000套出货)-02\g-777g-usa-bg95eseye-2022-2-20\runTask.c"
 413  0175  0700     E  	mov a,rc
 413  0176  0080     E  	mov re,a
 413  0177  0700     E  	mov a,ra
 413  0178  0500     E  	or a,rb
 413  0179  0080     E  	mov rd,a
 413  017A  0700     E  	mov a,rd
 413  017B  0080     E  	mov ra,a
 413  017C  0700     E  	mov a,re
 413  017D  0080     E  	mov rb,a
 413  017E  0003        	ret
 413  017F              _Get_Memroy endp
 413  017F              #line 413 "f:\work\血糖仪\a_bh45f67-旧版\4g\美国客户\make_lib\v1.0.01（5000套出货)-02\g-777g-usa-bg95eseye-2022-2-20\runTask.c"
 413  017F              #pragma debug scope 1 1
 413  017F              public _Gsm_power_off
 413  017F              #pragma debug scope 9 1
 416  017F              #line 416 "f:\work\血糖仪\a_bh45f67-旧版\4g\美国客户\make_lib\v1.0.01（5000套出货)-02\g-777g-usa-bg95eseye-2022-2-20\runTask.c"
 416  0000              _Gsm_power_off .section 'code'
 416  0000              _Gsm_power_off proc
 416  0000  00              local _Gsm_power_off_2 db 1 dup(?)	; 0,1
 416  0000  0080     R  	mov _Gsm_power_off_2[0],a
 416  0001              #pragma debug variable 8 9 _Gsm_power_off_2+0 "type"
 442  0001              #line 442 "f:\work\血糖仪\a_bh45f67-旧版\4g\美国客户\make_lib\v1.0.01（5000套出货)-02\g-777g-usa-bg95eseye-2022-2-20\runTask.c"
 442  0001  371A        	clr [26].6
 443  0002              #line 443 "f:\work\血糖仪\a_bh45f67-旧版\4g\美国客户\make_lib\v1.0.01（5000套出货)-02\g-777g-usa-bg95eseye-2022-2-20\runTask.c"
 443  0002  379A        	clr [26].7
 446  0003              #line 446 "f:\work\血糖仪\a_bh45f67-旧版\4g\美国客户\make_lib\v1.0.01（5000套出货)-02\g-777g-usa-bg95eseye-2022-2-20\runTask.c"
 446  0003  0F00        	mov a,0
 446  0004  0003        	ret
 446  0005              _Gsm_power_off endp
 446  0005              #line 446 "f:\work\血糖仪\a_bh45f67-旧版\4g\美国客户\make_lib\v1.0.01（5000套出货)-02\g-777g-usa-bg95eseye-2022-2-20\runTask.c"
 446  0005              #pragma debug scope 1 1
 446  0005              public _Gsm_power_reset
 446  0005              #pragma debug scope 10 1
 450  0005              #line 450 "f:\work\血糖仪\a_bh45f67-旧版\4g\美国客户\make_lib\v1.0.01（5000套出货)-02\g-777g-usa-bg95eseye-2022-2-20\runTask.c"
 450  0000              _Gsm_power_reset .section 'code'
 450  0000              _Gsm_power_reset proc
 450  0000  00              local _Gsm_power_reset_2 db 1 dup(?)	; 0,1
文件：runTask.c    编译器版本 HGASM 0202 页次28

 452  0001              #line 452 "f:\work\血糖仪\a_bh45f67-旧版\4g\美国客户\make_lib\v1.0.01（5000套出货)-02\g-777g-usa-bg95eseye-2022-2-20\runTask.c"
 452  0001              ;# 452 "f:\work\血糖仪\a_bh45f67-旧版\4g\美国客户\make_lib\v1.0.01（5000套出货)-02\g-777g-usa-bg95eseye-2022-2-20\runTask.c" 1
 452  0000  0001        	clr wdt
 453  0001              #line 453 "f:\work\血糖仪\a_bh45f67-旧版\4g\美国客户\make_lib\v1.0.01（5000套出货)-02\g-777g-usa-bg95eseye-2022-2-20\runTask.c"
 453  0001  0F03        	mov a,3
 453  0002  0080     E  	mov _wait_return_2[0],a
 453  0003  1F00     E  	clr _wait_return_2[1]
 453  0004              	fcall _wait_return
 454  000B              #line 454 "f:\work\血糖仪\a_bh45f67-旧版\4g\美国客户\make_lib\v1.0.01（5000套出货)-02\g-777g-usa-bg95eseye-2022-2-20\runTask.c"
 454  000B              ;# 454 "f:\work\血糖仪\a_bh45f67-旧版\4g\美国客户\make_lib\v1.0.01（5000套出货)-02\g-777g-usa-bg95eseye-2022-2-20\runTask.c" 1
 454  000B  0001        	clr wdt
 456  000C              #line 456 "f:\work\血糖仪\a_bh45f67-旧版\4g\美国客户\make_lib\v1.0.01（5000套出货)-02\g-777g-usa-bg95eseye-2022-2-20\runTask.c"
 456  000C  371A        	clr [26].6
 457  000D              #line 457 "f:\work\血糖仪\a_bh45f67-旧版\4g\美国客户\make_lib\v1.0.01（5000套出货)-02\g-777g-usa-bg95eseye-2022-2-20\runTask.c"
 457  000D  379A        	clr [26].7
 458  000E              #line 458 "f:\work\血糖仪\a_bh45f67-旧版\4g\美国客户\make_lib\v1.0.01（5000套出货)-02\g-777g-usa-bg95eseye-2022-2-20\runTask.c"
 458  000E  0F01        	mov a,1
 458  000F  0080     E  	mov _wait_return_2[0],a
 458  0010  1F00     E  	clr _wait_return_2[1]
 458  0011              	fcall _wait_return
 459  0018              #line 459 "f:\work\血糖仪\a_bh45f67-旧版\4g\美国客户\make_lib\v1.0.01（5000套出货)-02\g-777g-usa-bg95eseye-2022-2-20\runTask.c"
 459  0018              	fcall _GSM_turn_ON
 459  001F  0F0D        	mov a,13
 459  0020  0080     R  	mov _Gsm_power_reset_2[0],a
 459  0021              _L58:
 463  0021              #line 463 "f:\work\血糖仪\a_bh45f67-旧版\4g\美国客户\make_lib\v1.0.01（5000套出货)-02\g-777g-usa-bg95eseye-2022-2-20\runTask.c"
 463  0021  0F02        	mov a,2
 463  0022  0080     E  	mov _wait_return_2[0],a
 463  0023  1F00     E  	clr _wait_return_2[1]
 463  0024              	fcall _wait_return
 464  002B              #line 464 "f:\work\血糖仪\a_bh45f67-旧版\4g\美国客户\make_lib\v1.0.01（5000套出货)-02\g-777g-usa-bg95eseye-2022-2-20\runTask.c"
 464  002B              ;# 464 "f:\work\血糖仪\a_bh45f67-旧版\4g\美国客户\make_lib\v1.0.01（5000套出货)-02\g-777g-usa-bg95eseye-2022-2-20\runTask.c" 1
 464  002B  0001        	clr wdt
 464  002C  1780     R  	sdz _Gsm_power_reset_2[0]
 464  002D  2800     R  	jmp _L58
 466  002E              #line 466 "f:\work\血糖仪\a_bh45f67-旧版\4g\美国客户\make_lib\v1.0.01（5000套出货)-02\g-777g-usa-bg95eseye-2022-2-20\runTask.c"
 466  002E  0F01        	mov a,1
 466  002F  0080     E  	mov _uart_init_2[0],a
 466  0030  1F00     E  	clr _uart_init_2[1]
 466  0031              	fcall _uart_init
 466  0038  0003        	ret
 466  0039              _Gsm_power_reset endp
 466  0039              #line 466 "f:\work\血糖仪\a_bh45f67-旧版\4g\美国客户\make_lib\v1.0.01（5000套出货)-02\g-777g-usa-bg95eseye-2022-2-20\runTask.c"
 466  0039              #pragma debug scope 1 1
 466  0039              _Mem_sequence equ [957]
 466  0039              public _Store_Failure_buff
 466  0039              #pragma debug scope 11 1
 498  0039              #line 498 "f:\work\血糖仪\a_bh45f67-旧版\4g\美国客户\make_lib\v1.0.01（5000套出货)-02\g-777g-usa-bg95eseye-2022-2-20\runTask.c"
 498  0000              _Store_Failure_buff .section 'code'
 498  0000              _Store_Failure_buff proc
 498  0000  0016[           local _Store_Failure_buff_2 db 22 dup(?)	; 0,22
            00
            ]
 498  0016              #pragma debug array 42 12 10 11
 498  0016              #pragma debug array 42 12 10 11
 498  0016              #pragma debug variable 42 11 _Store_Failure_buff_2+0 "Failure_buff"
 503  0016              #line 503 "f:\work\血糖仪\a_bh45f67-旧版\4g\美国客户\make_lib\v1.0.01（5000套出货)-02\g-777g-usa-bg95eseye-2022-2-20\runTask.c"
 503  0000  0F80        	mov a,-128
 503  0001  0080     E  	mov _memset_2[4],a
 503  0002  1F00     E  	clr _memset_2[5]
文件：runTask.c    编译器版本 HGASM 0202 页次29

 503  0003  1F00     E  	clr _memset_2[2]
 503  0004  1F00     E  	clr _memset_2[3]
 503  0005  0F80        	mov a,low offset _BLOOD_Package
 503  0006  0080     E  	mov _memset_2[0],a
 503  0007  0F02        	mov a,high offset _BLOOD_Package
 503  0008  0080     E  	mov _memset_2[1],a
 503  0009              	fcall _memset
 504  0010              #line 504 "f:\work\血糖仪\a_bh45f67-旧版\4g\美国客户\make_lib\v1.0.01（5000套出货)-02\g-777g-usa-bg95eseye-2022-2-20\runTask.c"
 504  0010  0F80        	mov a,-128
 504  0011  0080     E  	mov _fun_read_page_2[0],a
 504  0012  0F7F        	mov a,127
 504  0013  0080     E  	mov _fun_read_page_2[1],a
 504  0014  1F00     E  	clr _fun_read_page_2[2]
 504  0015  1F00     E  	clr _fun_read_page_2[3]
 504  0016              	fcall _fun_read_page
 504  001D  0F0A        	mov a,10
 504  001E  0080     E  	mov rh,a
 506  001F              #line 506 "f:\work\血糖仪\a_bh45f67-旧版\4g\美国客户\make_lib\v1.0.01（5000套出货)-02\g-777g-usa-bg95eseye-2022-2-20\runTask.c"
 506  001F  1F00     E  	clr ra
 506  0020              _L61:
 508  0020              #line 508 "f:\work\血糖仪\a_bh45f67-旧版\4g\美国客户\make_lib\v1.0.01（5000套出货)-02\g-777g-usa-bg95eseye-2022-2-20\runTask.c"
 508  0020  0700     E  	mov a,ra
 508  0021  0080     E  	mov rb,a
 508  0022  1F00     E  	clr rc
 508  0023  0F0B        	mov a,11
 508  0024  0300     E  	add a,rb
 508  0025  0080     E  	mov rd,a
 508  0026  0F00        	mov a,0
 508  0027  1300     E  	adc a,rc
 508  0028  0080     E  	mov re,a
 508  0029  340A        	clr c
 508  002A  1A80     E  	rlc rd
 508  002B  1A80     E  	rlc re
 508  002C  0F80        	mov a,low offset _BLOOD_Package
 508  002D  0300     E  	add a,rd
 508  002E  0083        	mov mp,a
 508  002F  0F02        	mov a,high offset _BLOOD_Package
 508  0030  1300     E  	adc a,re
 508  0031  0081        	mov sbp,a
 508  0032              	fcall _Crom2Prom
 508  0039  0080     E  	mov rf,a
 510  003A              #line 510 "f:\work\血糖仪\a_bh45f67-旧版\4g\美国客户\make_lib\v1.0.01（5000套出货)-02\g-777g-usa-bg95eseye-2022-2-20\runTask.c"
 510  003A  0F7F        	mov a,low (offset _BLOOD_Package-1)
 510  003B  0300     E  	add a,rd
 510  003C  0083        	mov mp,a
 510  003D  0F02        	mov a,high (offset _BLOOD_Package-1)
 510  003E  1300     E  	adc a,re
 510  003F  0081        	mov sbp,a
 510  0040              	fcall _Crom2Prom
 510  0047  0080     E  	mov rg,a
 510  0048  340A        	clr c
 510  0049  1A80     E  	rlc rb
 510  004A  1A80     E  	rlc rc
 509  004B              #line 509 "f:\work\血糖仪\a_bh45f67-旧版\4g\美国客户\make_lib\v1.0.01（5000套出货)-02\g-777g-usa-bg95eseye-2022-2-20\runTask.c"
 509  004B  0700     E  	mov a,rf
 509  004C  0080     R  	mov _Store_Failure_buff_2[21],a
 509  004D  1F00     R  	clr _Store_Failure_buff_2[20]
 510  004E              #line 510 "f:\work\血糖仪\a_bh45f67-旧版\4g\美国客户\make_lib\v1.0.01（5000套出货)-02\g-777g-usa-bg95eseye-2022-2-20\runTask.c"
 510  004E  0700     R  	mov a,_Store_Failure_buff_2[21]
 510  004F  0080     E  	mov re,a
文件：runTask.c    编译器版本 HGASM 0202 页次30

 510  0050  0700     E  	mov a,rg
 510  0051  0500     R  	or a,_Store_Failure_buff_2[20]
 510  0052  0080     E  	mov rd,a
 510  0053  0F00     R  	mov a,low(offset _Store_Failure_buff_2)
 510  0054  0300     E  	add a,rb
 510  0055  0083        	mov mp,a
 510  0056  0F00     R  	mov a,high(offset _Store_Failure_buff_2)
 510  0057  1300     E  	adc a,rc
 510  0058  0081        	mov sbp,a
 510  0059  0701        	mov a,sbp
 510  005A  0D00     R  	or a,bank _Store_Failure_buff
 510  005B  0084        	mov bp,a
 510  005C  0700     E  	mov a,rd
 510  005D  0082        	mov ir,a
 510  005E  1483        	inc mp
 510  005F  0700     E  	mov a,re
 510  0060  0082        	mov ir,a
 506  0061              #line 506 "f:\work\血糖仪\a_bh45f67-旧版\4g\美国客户\make_lib\v1.0.01（5000套出货)-02\g-777g-usa-bg95eseye-2022-2-20\runTask.c"
 506  0061  1480     E  	inc ra
 506  0062  1780     E  	sdz rh
 506  0063  2800     R  	jmp _L61
 506  0064  0F0A        	mov a,10
 506  0065  0080     E  	mov ra,a
 506  0066  1F00     E  	clr rb
 506  0067              _L63:
 514  0067              #line 514 "f:\work\血糖仪\a_bh45f67-旧版\4g\美国客户\make_lib\v1.0.01（5000套出货)-02\g-777g-usa-bg95eseye-2022-2-20\runTask.c"
 514  0067  0700     E  	mov a,rb
 514  0068  0080     E  	mov rd,a
 514  0069  1F00     E  	clr re
 514  006A  340A        	clr c
 514  006B  1A80     E  	rlc rd
 514  006C  1A80     E  	rlc re
 514  006D  0F00     R  	mov a,low(offset _Store_Failure_buff_2)
 514  006E  0300     E  	add a,rd
 514  006F  0083        	mov mp,a
 514  0070  0F00     R  	mov a,high(offset _Store_Failure_buff_2)
 514  0071  1300     E  	adc a,re
 514  0072  0081        	mov sbp,a
 514  0073              	fcall _Crom2Prom
 514  007A  0080     E  	mov rd,a
 514  007B              	fcall _Crom2PromNext
 514  0082  0080     E  	mov re,a
 514  0083  0700     E  	mov a,rd
 514  0084  0500     E  	or a,re
 514  0085  3D0A        	sz z
 514  0086  2800     R  	jmp _L62
 512  0087              #line 512 "f:\work\血糖仪\a_bh45f67-旧版\4g\美国客户\make_lib\v1.0.01（5000套出货)-02\g-777g-usa-bg95eseye-2022-2-20\runTask.c"
 512  0087  1480     E  	inc rb
 512  0088  1780     E  	sdz ra
 512  0089  2800     R  	jmp _L63
 512  008A  0F0A        	mov a,10
 512  008B  0080     E  	mov rb,a
 512  008C              _L62:
 519  008C              #line 519 "f:\work\血糖仪\a_bh45f67-旧版\4g\美国客户\make_lib\v1.0.01（5000套出货)-02\g-777g-usa-bg95eseye-2022-2-20\runTask.c"
 519  008C  1F00     E  	clr rc
 519  008D  340A        	clr c
 519  008E  1A80     E  	rlc rb
 519  008F  1A80     E  	rlc rc
 519  0090  0FBD        	mov a,low offset _Mem_sequence
 519  0091  0083        	mov mp,a
文件：runTask.c    编译器版本 HGASM 0202 页次31

 519  0092  0F03        	mov a,high offset _Mem_sequence
 519  0093  0081        	mov sbp,a
 519  0094  0701        	mov a,sbp
 519  0095  0D00     R  	or a,bank _Store_Failure_buff
 519  0096  0084        	mov bp,a
 519  0097  0702        	mov a,ir
 519  0098  0080     E  	mov rd,a
 519  0099  1483        	inc mp
 519  009A  0702        	mov a,ir
 519  009B  0080     E  	mov re,a
 519  009C  0F95        	mov a,low (offset _BLOOD_Package+21)
 519  009D  0300     E  	add a,rb
 519  009E  0083        	mov mp,a
 519  009F  0F02        	mov a,high (offset _BLOOD_Package+21)
 519  00A0  1300     E  	adc a,rc
 519  00A1  0081        	mov sbp,a
 519  00A2  0701        	mov a,sbp
 519  00A3  0D00     R  	or a,bank _Store_Failure_buff
 519  00A4  0084        	mov bp,a
 519  00A5  0700     E  	mov a,rd
 519  00A6  0082        	mov ir,a
 520  00A7              #line 520 "f:\work\血糖仪\a_bh45f67-旧版\4g\美国客户\make_lib\v1.0.01（5000套出货)-02\g-777g-usa-bg95eseye-2022-2-20\runTask.c"
 520  00A7  0FBD        	mov a,low offset _Mem_sequence
 520  00A8  0083        	mov mp,a
 520  00A9  0F03        	mov a,high offset _Mem_sequence
 520  00AA  0081        	mov sbp,a
 520  00AB  0701        	mov a,sbp
 520  00AC  0D00     R  	or a,bank _Store_Failure_buff
 520  00AD  0084        	mov bp,a
 520  00AE  0702        	mov a,ir
 520  00AF  0080     E  	mov rd,a
 520  00B0  1483        	inc mp
 520  00B1  0702        	mov a,ir
 520  00B2  0080     E  	mov re,a
 520  00B3  0F96        	mov a,low (offset _BLOOD_Package+22)
 520  00B4  0300     E  	add a,rb
 520  00B5  0083        	mov mp,a
 520  00B6  0F02        	mov a,high (offset _BLOOD_Package+22)
 520  00B7  1300     E  	adc a,rc
 520  00B8  0081        	mov sbp,a
 520  00B9  0701        	mov a,sbp
 520  00BA  0D00     R  	or a,bank _Store_Failure_buff
 520  00BB  0084        	mov bp,a
 520  00BC  0700     E  	mov a,re
 520  00BD  0082        	mov ir,a
 522  00BE              #line 522 "f:\work\血糖仪\a_bh45f67-旧版\4g\美国客户\make_lib\v1.0.01（5000套出货)-02\g-777g-usa-bg95eseye-2022-2-20\runTask.c"
 522  00BE              	fcall _fun_enable_fwen
 522  00C5  0080     E  	mov ra,a
 522  00C6  1080     E  	sz ra
 522  00C7  2800     R  	jmp _LI13
 522  00C8  2800     R  	jmp _L59
 522  00C9              _LI13:
 524  00C9              #line 524 "f:\work\血糖仪\a_bh45f67-旧版\4g\美国客户\make_lib\v1.0.01（5000套出货)-02\g-777g-usa-bg95eseye-2022-2-20\runTask.c"
 524  00C9              	fcall _me_delay_100us
 525  00D0              #line 525 "f:\work\血糖仪\a_bh45f67-旧版\4g\美国客户\make_lib\v1.0.01（5000套出货)-02\g-777g-usa-bg95eseye-2022-2-20\runTask.c"
 525  00D0  0F80        	mov a,-128
 525  00D1  0080     E  	mov _fun_erase_page_2[0],a
 525  00D2  0F7F        	mov a,127
 525  00D3  0080     E  	mov _fun_erase_page_2[1],a
 525  00D4  1F00     E  	clr _fun_erase_page_2[2]
文件：runTask.c    编译器版本 HGASM 0202 页次32

 525  00D5  1F00     E  	clr _fun_erase_page_2[3]
 525  00D6              	fcall _fun_erase_page
 526  00DD              #line 526 "f:\work\血糖仪\a_bh45f67-旧版\4g\美国客户\make_lib\v1.0.01（5000套出货)-02\g-777g-usa-bg95eseye-2022-2-20\runTask.c"
 526  00DD              	fcall _me_delay_100us
 527  00E4              #line 527 "f:\work\血糖仪\a_bh45f67-旧版\4g\美国客户\make_lib\v1.0.01（5000套出货)-02\g-777g-usa-bg95eseye-2022-2-20\runTask.c"
 527  00E4  1F00     E  	clr _fun_write_cpage_2[3]
 527  00E5  0F80        	mov a,128
 527  00E6  0080     E  	mov _fun_write_cpage_2[2],a
 527  00E7  0F80        	mov a,-128
 527  00E8  0080     E  	mov _fun_write_cpage_2[0],a
 527  00E9  0F7F        	mov a,127
 527  00EA  0080     E  	mov _fun_write_cpage_2[1],a
 527  00EB              	fcall _fun_write_cpage
 528  00F2              #line 528 "f:\work\血糖仪\a_bh45f67-旧版\4g\美国客户\make_lib\v1.0.01（5000套出货)-02\g-777g-usa-bg95eseye-2022-2-20\runTask.c"
 528  00F2              	fcall _me_delay_100us
 528  00F9              _L59:
 528  00F9  0003        	ret
 528  00FA              _Store_Failure_buff endp
 528  00FA              #line 528 "f:\work\血糖仪\a_bh45f67-旧版\4g\美国客户\make_lib\v1.0.01（5000套出货)-02\g-777g-usa-bg95eseye-2022-2-20\runTask.c"
 528  00FA              #pragma debug scope 1 1
 528  00FA              public _Send_Failure_buff
 528  00FA              #pragma debug scope 12 1
 532  00FA              #line 532 "f:\work\血糖仪\a_bh45f67-旧版\4g\美国客户\make_lib\v1.0.01（5000套出货)-02\g-777g-usa-bg95eseye-2022-2-20\runTask.c"
 532  0000              _Send_Failure_buff .section 'code'
 532  0000              _Send_Failure_buff proc
 532  0000  001A[           local _Send_Failure_buff_2 db 26 dup(?)	; 0,26
            00
            ]
 532  001A              #pragma debug variable 8 12 _Send_Failure_buff_2+20 "iNum"
 532  001A              #pragma debug array 43 12 10 12
 532  001A              #pragma debug array 43 12 10 12
 532  001A              #pragma debug variable 43 12 _Send_Failure_buff_2+0 "Failure_buff"
 535  001A              #line 535 "f:\work\血糖仪\a_bh45f67-旧版\4g\美国客户\make_lib\v1.0.01（5000套出货)-02\g-777g-usa-bg95eseye-2022-2-20\runTask.c"
 535  0000  0F80        	mov a,-128
 535  0001  0080     E  	mov _memset_2[4],a
 535  0002  1F00     E  	clr _memset_2[5]
 535  0003  1F00     E  	clr _memset_2[2]
 535  0004  1F00     E  	clr _memset_2[3]
 535  0005  0F80        	mov a,low offset _BLOOD_Package
 535  0006  0080     E  	mov _memset_2[0],a
 535  0007  0F02        	mov a,high offset _BLOOD_Package
 535  0008  0080     E  	mov _memset_2[1],a
 535  0009              	fcall _memset
 536  0010              #line 536 "f:\work\血糖仪\a_bh45f67-旧版\4g\美国客户\make_lib\v1.0.01（5000套出货)-02\g-777g-usa-bg95eseye-2022-2-20\runTask.c"
 536  0010  0F80        	mov a,-128
 536  0011  0080     E  	mov _fun_read_page_2[0],a
 536  0012  0F7F        	mov a,127
 536  0013  0080     E  	mov _fun_read_page_2[1],a
 536  0014  1F00     E  	clr _fun_read_page_2[2]
 536  0015  1F00     E  	clr _fun_read_page_2[3]
 536  0016              	fcall _fun_read_page
 536  001D  0F0A        	mov a,10
 536  001E  0080     E  	mov rh,a
 537  001F              #line 537 "f:\work\血糖仪\a_bh45f67-旧版\4g\美国客户\make_lib\v1.0.01（5000套出货)-02\g-777g-usa-bg95eseye-2022-2-20\runTask.c"
 537  001F  1F00     E  	clr ra
 537  0020              _L74:
 539  0020              #line 539 "f:\work\血糖仪\a_bh45f67-旧版\4g\美国客户\make_lib\v1.0.01（5000套出货)-02\g-777g-usa-bg95eseye-2022-2-20\runTask.c"
 539  0020  0700     E  	mov a,ra
 539  0021  0080     E  	mov rb,a
 539  0022  1F00     E  	clr rc
文件：runTask.c    编译器版本 HGASM 0202 页次33

 539  0023  0F0B        	mov a,11
 539  0024  0300     E  	add a,rb
 539  0025  0080     E  	mov rd,a
 539  0026  0F00        	mov a,0
 539  0027  1300     E  	adc a,rc
 539  0028  0080     E  	mov re,a
 539  0029  340A        	clr c
 539  002A  1A80     E  	rlc rd
 539  002B  1A80     E  	rlc re
 539  002C  0F80        	mov a,low offset _BLOOD_Package
 539  002D  0300     E  	add a,rd
 539  002E  0083        	mov mp,a
 539  002F  0F02        	mov a,high offset _BLOOD_Package
 539  0030  1300     E  	adc a,re
 539  0031  0081        	mov sbp,a
 539  0032              	fcall _Crom2Prom
 539  0039  0080     E  	mov rf,a
 541  003A              #line 541 "f:\work\血糖仪\a_bh45f67-旧版\4g\美国客户\make_lib\v1.0.01（5000套出货)-02\g-777g-usa-bg95eseye-2022-2-20\runTask.c"
 541  003A  0F7F        	mov a,low (offset _BLOOD_Package-1)
 541  003B  0300     E  	add a,rd
 541  003C  0083        	mov mp,a
 541  003D  0F02        	mov a,high (offset _BLOOD_Package-1)
 541  003E  1300     E  	adc a,re
 541  003F  0081        	mov sbp,a
 541  0040              	fcall _Crom2Prom
 541  0047  0080     E  	mov rg,a
 541  0048  340A        	clr c
 541  0049  1A80     E  	rlc rb
 541  004A  1A80     E  	rlc rc
 540  004B              #line 540 "f:\work\血糖仪\a_bh45f67-旧版\4g\美国客户\make_lib\v1.0.01（5000套出货)-02\g-777g-usa-bg95eseye-2022-2-20\runTask.c"
 540  004B  0700     E  	mov a,rf
 540  004C  0080     R  	mov _Send_Failure_buff_2[21],a
 540  004D  1F00     R  	clr _Send_Failure_buff_2[20]
 541  004E              #line 541 "f:\work\血糖仪\a_bh45f67-旧版\4g\美国客户\make_lib\v1.0.01（5000套出货)-02\g-777g-usa-bg95eseye-2022-2-20\runTask.c"
 541  004E  0700     R  	mov a,_Send_Failure_buff_2[21]
 541  004F  0080     E  	mov re,a
 541  0050  0700     E  	mov a,rg
 541  0051  0500     R  	or a,_Send_Failure_buff_2[20]
 541  0052  0080     E  	mov rd,a
 541  0053  0F00     R  	mov a,low(offset _Send_Failure_buff_2)
 541  0054  0300     E  	add a,rb
 541  0055  0083        	mov mp,a
 541  0056  0F00     R  	mov a,high(offset _Send_Failure_buff_2)
 541  0057  1300     E  	adc a,rc
 541  0058  0081        	mov sbp,a
 541  0059  0701        	mov a,sbp
 541  005A  0D00     R  	or a,bank _Send_Failure_buff
 541  005B  0084        	mov bp,a
 541  005C  0700     E  	mov a,rd
 541  005D  0082        	mov ir,a
 541  005E  1483        	inc mp
 541  005F  0700     E  	mov a,re
 541  0060  0082        	mov ir,a
 537  0061              #line 537 "f:\work\血糖仪\a_bh45f67-旧版\4g\美国客户\make_lib\v1.0.01（5000套出货)-02\g-777g-usa-bg95eseye-2022-2-20\runTask.c"
 537  0061  1480     E  	inc ra
 537  0062  1780     E  	sdz rh
 537  0063  2800     R  	jmp _L74
 537  0064  0F0A        	mov a,10
 537  0065  0080     R  	mov _Send_Failure_buff_2[22],a
 537  0066  1F00     R  	clr _Send_Failure_buff_2[20]
文件：runTask.c    编译器版本 HGASM 0202 页次34

 537  0067  0F0A        	mov a,10
 537  0068  0080     R  	mov _Send_Failure_buff_2[23],a
 537  0069              _L78:
 546  0069              #line 546 "f:\work\血糖仪\a_bh45f67-旧版\4g\美国客户\make_lib\v1.0.01（5000套出货)-02\g-777g-usa-bg95eseye-2022-2-20\runTask.c"
 546  0069  0FFF        	mov a,255
 546  006A  0300     R  	add a,_Send_Failure_buff_2[23]
 546  006B  0080     E  	mov rb,a
 546  006C  0FFF        	mov a,255
 546  006D  1F00     E  	clr rc
 546  006E  1380     E  	adcm a,rc
 546  006F  340A        	clr c
 546  0070  1A00     E  	rlca rb
 546  0071  0080     R  	mov _Send_Failure_buff_2[24],a
 546  0072  1A00     E  	rlca rc
 546  0073  0080     R  	mov _Send_Failure_buff_2[25],a
 546  0074  0F00     R  	mov a,low(offset _Send_Failure_buff_2)
 546  0075  0300     R  	add a,_Send_Failure_buff_2[24]
 546  0076  0083        	mov mp,a
 546  0077  0F00     R  	mov a,high(offset _Send_Failure_buff_2)
 546  0078  1300     R  	adc a,_Send_Failure_buff_2[25]
 546  0079  0081        	mov sbp,a
 546  007A              	fcall _Crom2Prom
 546  0081  0080     E  	mov rb,a
 546  0082              	fcall _Crom2PromNext
 546  0089  0080     E  	mov rc,a
 546  008A  0700     E  	mov a,rb
 546  008B  0500     E  	or a,rc
 546  008C  3D0A        	sz z
 546  008D  2800     R  	jmp _L75
 548  008E              #line 548 "f:\work\血糖仪\a_bh45f67-旧版\4g\美国客户\make_lib\v1.0.01（5000套出货)-02\g-777g-usa-bg95eseye-2022-2-20\runTask.c"
 548  008E  0F02        	mov a,2
 548  008F  0200     R  	sub a,_Send_Failure_buff_2[20]
 548  0090  380A        	snz c
 548  0091  2800     R  	jmp _L75
 550  0092              #line 550 "f:\work\血糖仪\a_bh45f67-旧版\4g\美国客户\make_lib\v1.0.01（5000套出货)-02\g-777g-usa-bg95eseye-2022-2-20\runTask.c"
 550  0092  0F01        	mov a,1
 550  0093  0080     E  	mov _Send_GSM2_2[2],a
 550  0094  0700     E  	mov a,rb
 550  0095  0080     E  	mov _Send_GSM2_2[0],a
 550  0096  0700     E  	mov a,rc
 550  0097  0080     E  	mov _Send_GSM2_2[1],a
 550  0098              	fcall _Send_GSM2
 550  009F  0080     E  	mov ra,a
 550  00A0  1080     E  	sz ra
 550  00A1  2800     R  	jmp _L76
 552  00A2              #line 552 "f:\work\血糖仪\a_bh45f67-旧版\4g\美国客户\make_lib\v1.0.01（5000套出货)-02\g-777g-usa-bg95eseye-2022-2-20\runTask.c"
 552  00A2  0F00     R  	mov a,low(offset _Send_Failure_buff_2)
 552  00A3  0300     R  	add a,_Send_Failure_buff_2[24]
 552  00A4  0083        	mov mp,a
 552  00A5  0F00     R  	mov a,high(offset _Send_Failure_buff_2)
 552  00A6  1300     R  	adc a,_Send_Failure_buff_2[25]
 552  00A7  0081        	mov sbp,a
 552  00A8  0701        	mov a,sbp
 552  00A9  0D00     R  	or a,bank _Send_Failure_buff
 552  00AA  0084        	mov bp,a
 552  00AB  1F02        	clr ir
 552  00AC  1483        	inc mp
 552  00AD  1F02        	clr ir
 552  00AE              _L76:
 554  00AE              #line 554 "f:\work\血糖仪\a_bh45f67-旧版\4g\美国客户\make_lib\v1.0.01（5000套出货)-02\g-777g-usa-bg95eseye-2022-2-20\runTask.c"
文件：runTask.c    编译器版本 HGASM 0202 页次35

 554  00AE  1480     R  	inc _Send_Failure_buff_2[20]
 554  00AF              _L75:
 544  00AF              #line 544 "f:\work\血糖仪\a_bh45f67-旧版\4g\美国客户\make_lib\v1.0.01（5000套出货)-02\g-777g-usa-bg95eseye-2022-2-20\runTask.c"
 544  00AF  1580     R  	dec _Send_Failure_buff_2[23]
 544  00B0  1780     R  	sdz _Send_Failure_buff_2[22]
 544  00B1  2800     R  	jmp _L78
 558  00B2              #line 558 "f:\work\血糖仪\a_bh45f67-旧版\4g\美国客户\make_lib\v1.0.01（5000套出货)-02\g-777g-usa-bg95eseye-2022-2-20\runTask.c"
 558  00B2              ;# 558 "f:\work\血糖仪\a_bh45f67-旧版\4g\美国客户\make_lib\v1.0.01（5000套出货)-02\g-777g-usa-bg95eseye-2022-2-20\runTask.c" 1
 558  00B2  0001        	clr wdt
 559  00B3              #line 559 "f:\work\血糖仪\a_bh45f67-旧版\4g\美国客户\make_lib\v1.0.01（5000套出货)-02\g-777g-usa-bg95eseye-2022-2-20\runTask.c"
 559  00B3  0F20        	mov a,32
 559  00B4  0080     E  	mov _me_delay_ms_2[0],a
 559  00B5  0F03        	mov a,3
 559  00B6  0080     E  	mov _me_delay_ms_2[1],a
 559  00B7              	fcall _me_delay_ms
 560  00BE              #line 560 "f:\work\血糖仪\a_bh45f67-旧版\4g\美国客户\make_lib\v1.0.01（5000套出货)-02\g-777g-usa-bg95eseye-2022-2-20\runTask.c"
 560  00BE              ;# 560 "f:\work\血糖仪\a_bh45f67-旧版\4g\美国客户\make_lib\v1.0.01（5000套出货)-02\g-777g-usa-bg95eseye-2022-2-20\runTask.c" 1
 560  00BE  0001        	clr wdt
 561  00BF              #line 561 "f:\work\血糖仪\a_bh45f67-旧版\4g\美国客户\make_lib\v1.0.01（5000套出货)-02\g-777g-usa-bg95eseye-2022-2-20\runTask.c"
 561  00BF  0F80        	mov a,-128
 561  00C0  0080     E  	mov _memset_2[4],a
 561  00C1  1F00     E  	clr _memset_2[5]
 561  00C2  1F00     E  	clr _memset_2[2]
 561  00C3  1F00     E  	clr _memset_2[3]
 561  00C4  0F80        	mov a,low offset _BLOOD_Package
 561  00C5  0080     E  	mov _memset_2[0],a
 561  00C6  0F02        	mov a,high offset _BLOOD_Package
 561  00C7  0080     E  	mov _memset_2[1],a
 561  00C8              	fcall _memset
 562  00CF              #line 562 "f:\work\血糖仪\a_bh45f67-旧版\4g\美国客户\make_lib\v1.0.01（5000套出货)-02\g-777g-usa-bg95eseye-2022-2-20\runTask.c"
 562  00CF  0F80        	mov a,-128
 562  00D0  0080     E  	mov _fun_read_page_2[0],a
 562  00D1  0F7F        	mov a,127
 562  00D2  0080     E  	mov _fun_read_page_2[1],a
 562  00D3  1F00     E  	clr _fun_read_page_2[2]
 562  00D4  1F00     E  	clr _fun_read_page_2[3]
 562  00D5              	fcall _fun_read_page
 562  00DC  0F0A        	mov a,10
 562  00DD  0080     E  	mov ra,a
 563  00DE              #line 563 "f:\work\血糖仪\a_bh45f67-旧版\4g\美国客户\make_lib\v1.0.01（5000套出货)-02\g-777g-usa-bg95eseye-2022-2-20\runTask.c"
 563  00DE  1F00     E  	clr rf
 563  00DF              _L81:
 565  00DF              #line 565 "f:\work\血糖仪\a_bh45f67-旧版\4g\美国客户\make_lib\v1.0.01（5000套出货)-02\g-777g-usa-bg95eseye-2022-2-20\runTask.c"
 565  00DF  0700     E  	mov a,rf
 565  00E0  0080     E  	mov rb,a
 565  00E1  1F00     E  	clr rc
 565  00E2  340A        	clr c
 565  00E3  1A00     E  	rlca rb
 565  00E4  0080     E  	mov rd,a
 565  00E5  1A00     E  	rlca rc
 565  00E6  0080     E  	mov re,a
 565  00E7  0F00     R  	mov a,low(offset _Send_Failure_buff_2)
 565  00E8  0300     E  	add a,rd
 565  00E9  0083        	mov mp,a
 565  00EA  0F00     R  	mov a,high(offset _Send_Failure_buff_2)
 565  00EB  1300     E  	adc a,re
 565  00EC  0081        	mov sbp,a
 565  00ED              	fcall _Crom2Prom
 565  00F4  0080     E  	mov rd,a
 565  00F5              	fcall _Crom2PromNext
文件：runTask.c    编译器版本 HGASM 0202 页次36

 565  00FC  0080     E  	mov re,a
 565  00FD  0700     E  	mov a,rd
 565  00FE  0500     E  	or a,re
 565  00FF  390A        	snz z
 565  0100  2800     R  	jmp _L79
 567  0101              #line 567 "f:\work\血糖仪\a_bh45f67-旧版\4g\美国客户\make_lib\v1.0.01（5000套出货)-02\g-777g-usa-bg95eseye-2022-2-20\runTask.c"
 567  0101  0F0B        	mov a,11
 567  0102  0380     E  	addm a,rb
 567  0103  0F00        	mov a,0
 567  0104  1380     E  	adcm a,rc
 567  0105  340A        	clr c
 567  0106  1A80     E  	rlc rb
 567  0107  1A80     E  	rlc rc
 567  0108  0F80        	mov a,low offset _BLOOD_Package
 567  0109  0300     E  	add a,rb
 567  010A  0083        	mov mp,a
 567  010B  0F02        	mov a,high offset _BLOOD_Package
 567  010C  1300     E  	adc a,rc
 567  010D  0081        	mov sbp,a
 567  010E  0701        	mov a,sbp
 567  010F  0D00     R  	or a,bank _Send_Failure_buff
 567  0110  0084        	mov bp,a
 567  0111  0F00        	mov a,0
 567  0112  0082        	mov ir,a
 568  0113              #line 568 "f:\work\血糖仪\a_bh45f67-旧版\4g\美国客户\make_lib\v1.0.01（5000套出货)-02\g-777g-usa-bg95eseye-2022-2-20\runTask.c"
 568  0113  0F7F        	mov a,low (offset _BLOOD_Package-1)
 568  0114  0300     E  	add a,rb
 568  0115  0083        	mov mp,a
 568  0116  0F02        	mov a,high (offset _BLOOD_Package-1)
 568  0117  1300     E  	adc a,rc
 568  0118  0081        	mov sbp,a
 568  0119  0701        	mov a,sbp
 568  011A  0D00     R  	or a,bank _Send_Failure_buff
 568  011B  0084        	mov bp,a
 568  011C  0F00        	mov a,0
 568  011D  0082        	mov ir,a
 568  011E              _L79:
 563  011E              #line 563 "f:\work\血糖仪\a_bh45f67-旧版\4g\美国客户\make_lib\v1.0.01（5000套出货)-02\g-777g-usa-bg95eseye-2022-2-20\runTask.c"
 563  011E  1480     E  	inc rf
 563  011F  1780     E  	sdz ra
 563  0120  2800     R  	jmp _L81
 571  0121              #line 571 "f:\work\血糖仪\a_bh45f67-旧版\4g\美国客户\make_lib\v1.0.01（5000套出货)-02\g-777g-usa-bg95eseye-2022-2-20\runTask.c"
 571  0121  0F05        	mov a,5
 571  0122  0080     E  	mov _me_delay_ms_2[0],a
 571  0123  1F00     E  	clr _me_delay_ms_2[1]
 571  0124              	fcall _me_delay_ms
 572  012B              #line 572 "f:\work\血糖仪\a_bh45f67-旧版\4g\美国客户\make_lib\v1.0.01（5000套出货)-02\g-777g-usa-bg95eseye-2022-2-20\runTask.c"
 572  012B              	fcall _fun_enable_fwen
 572  0132  0080     E  	mov ra,a
 572  0133  1080     E  	sz ra
 572  0134  2800     R  	jmp _LI14
 572  0135  2800     R  	jmp _L72
 572  0136              _LI14:
 574  0136              #line 574 "f:\work\血糖仪\a_bh45f67-旧版\4g\美国客户\make_lib\v1.0.01（5000套出货)-02\g-777g-usa-bg95eseye-2022-2-20\runTask.c"
 574  0136              	fcall _me_delay_100us
 575  013D              #line 575 "f:\work\血糖仪\a_bh45f67-旧版\4g\美国客户\make_lib\v1.0.01（5000套出货)-02\g-777g-usa-bg95eseye-2022-2-20\runTask.c"
 575  013D  0F80        	mov a,-128
 575  013E  0080     E  	mov _fun_erase_page_2[0],a
 575  013F  0F7F        	mov a,127
 575  0140  0080     E  	mov _fun_erase_page_2[1],a
文件：runTask.c    编译器版本 HGASM 0202 页次37

 575  0141  1F00     E  	clr _fun_erase_page_2[2]
 575  0142  1F00     E  	clr _fun_erase_page_2[3]
 575  0143              	fcall _fun_erase_page
 576  014A              #line 576 "f:\work\血糖仪\a_bh45f67-旧版\4g\美国客户\make_lib\v1.0.01（5000套出货)-02\g-777g-usa-bg95eseye-2022-2-20\runTask.c"
 576  014A              	fcall _me_delay_100us
 577  0151              #line 577 "f:\work\血糖仪\a_bh45f67-旧版\4g\美国客户\make_lib\v1.0.01（5000套出货)-02\g-777g-usa-bg95eseye-2022-2-20\runTask.c"
 577  0151  1F00     E  	clr _fun_write_cpage_2[3]
 577  0152  0F80        	mov a,128
 577  0153  0080     E  	mov _fun_write_cpage_2[2],a
 577  0154  0F80        	mov a,-128
 577  0155  0080     E  	mov _fun_write_cpage_2[0],a
 577  0156  0F7F        	mov a,127
 577  0157  0080     E  	mov _fun_write_cpage_2[1],a
 577  0158              	fcall _fun_write_cpage
 578  015F              #line 578 "f:\work\血糖仪\a_bh45f67-旧版\4g\美国客户\make_lib\v1.0.01（5000套出货)-02\g-777g-usa-bg95eseye-2022-2-20\runTask.c"
 578  015F              	fcall _me_delay_100us
 578  0166              _L72:
 578  0166  0003        	ret
 578  0167              _Send_Failure_buff endp
 578  0167              #line 578 "f:\work\血糖仪\a_bh45f67-旧版\4g\美国客户\make_lib\v1.0.01（5000套出货)-02\g-777g-usa-bg95eseye-2022-2-20\runTask.c"
 578  0167              #pragma debug scope 1 1
 578  0167              ___lcdc equ [103]
 578  0167              ___opc1 equ [126]
 578  0167              public _SysSleep
 578  0167              #pragma debug scope 13 1
 582  0167              #line 582 "f:\work\血糖仪\a_bh45f67-旧版\4g\美国客户\make_lib\v1.0.01（5000套出货)-02\g-777g-usa-bg95eseye-2022-2-20\runTask.c"
 582  0000              _SysSleep .section 'code'
 582  0000              _SysSleep proc
 583  0000              #line 583 "f:\work\血糖仪\a_bh45f67-旧版\4g\美国客户\make_lib\v1.0.01（5000套出货)-02\g-777g-usa-bg95eseye-2022-2-20\runTask.c"
 583  0000  1F67        	clr [103]
 584  0001              #line 584 "f:\work\血糖仪\a_bh45f67-旧版\4g\美国客户\make_lib\v1.0.01（5000套出货)-02\g-777g-usa-bg95eseye-2022-2-20\runTask.c"
 584  0001              	fcall _uart_close
 585  0008              #line 585 "f:\work\血糖仪\a_bh45f67-旧版\4g\美国客户\make_lib\v1.0.01（5000套出货)-02\g-777g-usa-bg95eseye-2022-2-20\runTask.c"
 585  0008  1F7E        	clr [126]
 586  0009              #line 586 "f:\work\血糖仪\a_bh45f67-旧版\4g\美国客户\make_lib\v1.0.01（5000套出货)-02\g-777g-usa-bg95eseye-2022-2-20\runTask.c"
 586  0009              ;# 586 "f:\work\血糖仪\a_bh45f67-旧版\4g\美国客户\make_lib\v1.0.01（5000套出货)-02\g-777g-usa-bg95eseye-2022-2-20\runTask.c" 1
 586  0009  0002        	halt
 586  000A  0003        	ret
 586  000B              _SysSleep endp
 586  000B              #line 586 "f:\work\血糖仪\a_bh45f67-旧版\4g\美国客户\make_lib\v1.0.01（5000套出货)-02\g-777g-usa-bg95eseye-2022-2-20\runTask.c"
 586  000B              #pragma debug scope 1 1
 586  000B              _Pub_temp equ [1016]
 586  000B              ___pvref equ [115]
 586  000B              _Blood_Sequence equ [959]
 586  000B              ___dal equ [112]
 586  000B              ___dah equ [113]
 586  000B              ___adcr0 equ [68]
 586  000B              ___tsc equ [114]
 586  000B              ___pbc equ [30]
 586  000B              ___pbpu equ [28]
 586  000B              public _reivce_data
 586  000B              #pragma debug scope 14 1
 590  000B              #line 590 "f:\work\血糖仪\a_bh45f67-旧版\4g\美国客户\make_lib\v1.0.01（5000套出货)-02\g-777g-usa-bg95eseye-2022-2-20\runTask.c"
 590  0000              _reivce_data .section 'code'
 590  0000              _reivce_data proc
 590  0000  00              local _reivce_data_2 db 1 dup(?)	; 0,1
 593  0001              #line 593 "f:\work\血糖仪\a_bh45f67-旧版\4g\美国客户\make_lib\v1.0.01（5000套出货)-02\g-777g-usa-bg95eseye-2022-2-20\runTask.c"
 593  0000  0F88        	mov a,low (offset _SystemFlags+8)
 593  0001  0083        	mov mp,a
 593  0002  0F03        	mov a,high (offset _SystemFlags+8)
文件：runTask.c    编译器版本 HGASM 0202 页次38

 593  0003  0081        	mov sbp,a
 593  0004  0701        	mov a,sbp
 593  0005  0D00     R  	or a,bank _reivce_data
 593  0006  0084        	mov bp,a
 593  0007  0702        	mov a,ir
 593  0008  0080     E  	mov _Uart_Receice_9600_2[2],a
 593  0009  0F80        	mov a,low offset _BLOOD_Package
 593  000A  0080     E  	mov _Uart_Receice_9600_2[0],a
 593  000B  0F02        	mov a,high offset _BLOOD_Package
 593  000C  0080     E  	mov _Uart_Receice_9600_2[1],a
 593  000D              	fcall _Uart_Receice_9600
 594  0014              #line 594 "f:\work\血糖仪\a_bh45f67-旧版\4g\美国客户\make_lib\v1.0.01（5000套出货)-02\g-777g-usa-bg95eseye-2022-2-20\runTask.c"
 594  0014  0F82        	mov a,low (offset _BLOOD_Package+2)
 594  0015  0083        	mov mp,a
 594  0016  0F02        	mov a,high (offset _BLOOD_Package+2)
 594  0017  0081        	mov sbp,a
 594  0018  0701        	mov a,sbp
 594  0019  0D00     R  	or a,bank _reivce_data
 594  001A  0084        	mov bp,a
 594  001B  0702        	mov a,ir
 594  001C  0080     R  	mov _reivce_data_2[0],a
 594  001D  0700     R  	mov a,_reivce_data_2[0]
 594  001E  0A00        	sub a,0
 594  001F  3D0A        	sz z
 594  0020  2800     R  	jmp _L90
 594  0021  0A01        	sub a,(1)-(0)
 594  0022  3D0A        	sz z
 594  0023  2800     R  	jmp _L93
 596  0024              #line 596 "f:\work\血糖仪\a_bh45f67-旧版\4g\美国客户\make_lib\v1.0.01（5000套出货)-02\g-777g-usa-bg95eseye-2022-2-20\runTask.c"
 596  0024  0700     R  	mov a,_reivce_data_2[0]
 596  0025  0A02        	sub a,2
 596  0026  3D0A        	sz z
 596  0027  2800     R  	jmp _L94
 596  0028  0A01        	sub a,(3)-(2)
 596  0029  3D0A        	sz z
 596  002A  2800     R  	jmp _L95
 596  002B  0700     R  	mov a,_reivce_data_2[0]
 596  002C  0A04        	sub a,4
 596  002D  3D0A        	sz z
 596  002E  2800     R  	jmp _L96
 596  002F  0A01        	sub a,(5)-(4)
 596  0030  3D0A        	sz z
 596  0031  2800     R  	jmp _L97
 596  0032  0700     R  	mov a,_reivce_data_2[0]
 596  0033  0A06        	sub a,6
 596  0034  3D0A        	sz z
 596  0035  2800     R  	jmp _L98
 596  0036  0A01        	sub a,(7)-(6)
 596  0037  3D0A        	sz z
 596  0038  2800     R  	jmp _L99
 596  0039  0700     R  	mov a,_reivce_data_2[0]
 596  003A  0A08        	sub a,8
 596  003B  390A        	snz z
 596  003C  2800     R  	jmp _L92
 864  003D              #line 864 "f:\work\血糖仪\a_bh45f67-旧版\4g\美国客户\make_lib\v1.0.01（5000套出货)-02\g-777g-usa-bg95eseye-2022-2-20\runTask.c"
 864  003D  0F82        	mov a,low (offset _SystemFlags+2)
 864  003E  0083        	mov mp,a
 864  003F  0F03        	mov a,high (offset _SystemFlags+2)
 864  0040  0081        	mov sbp,a
 864  0041  0701        	mov a,sbp
文件：runTask.c    编译器版本 HGASM 0202 页次39

 864  0042  0D00     R  	or a,bank _reivce_data
 864  0043  0084        	mov bp,a
 864  0044  3402        	clr ir.0
 865  0045              #line 865 "f:\work\血糖仪\a_bh45f67-旧版\4g\美国客户\make_lib\v1.0.01（5000套出货)-02\g-777g-usa-bg95eseye-2022-2-20\runTask.c"
 865  0045  0F80        	mov a,low offset _BLOOD_Package
 865  0046  0083        	mov mp,a
 865  0047  0F02        	mov a,high offset _BLOOD_Package
 865  0048  0081        	mov sbp,a
 865  0049  0701        	mov a,sbp
 865  004A  0D00     R  	or a,bank _reivce_data
 865  004B  0084        	mov bp,a
 865  004C  0F55        	mov a,85
 865  004D  0082        	mov ir,a
 866  004E              #line 866 "f:\work\血糖仪\a_bh45f67-旧版\4g\美国客户\make_lib\v1.0.01（5000套出货)-02\g-777g-usa-bg95eseye-2022-2-20\runTask.c"
 866  004E  1483        	inc mp
 866  004F  3D0A        	sz z
 866  0050  1481        	inc sbp
 866  0051  0701        	mov a,sbp
 866  0052  0D00     R  	or a,bank _reivce_data
 866  0053  0084        	mov bp,a
 866  0054  0F05        	mov a,5
 866  0055  0082        	mov ir,a
 867  0056              #line 867 "f:\work\血糖仪\a_bh45f67-旧版\4g\美国客户\make_lib\v1.0.01（5000套出货)-02\g-777g-usa-bg95eseye-2022-2-20\runTask.c"
 867  0056  1483        	inc mp
 867  0057  3D0A        	sz z
 867  0058  1481        	inc sbp
 867  0059  0701        	mov a,sbp
 867  005A  0D00     R  	or a,bank _reivce_data
 867  005B  0084        	mov bp,a
 867  005C  0F08        	mov a,8
 867  005D  0082        	mov ir,a
 868  005E              #line 868 "f:\work\血糖仪\a_bh45f67-旧版\4g\美国客户\make_lib\v1.0.01（5000套出货)-02\g-777g-usa-bg95eseye-2022-2-20\runTask.c"
 868  005E  1483        	inc mp
 868  005F  3D0A        	sz z
 868  0060  1481        	inc sbp
 868  0061  0701        	mov a,sbp
 868  0062  0D00     R  	or a,bank _reivce_data
 868  0063  0084        	mov bp,a
 868  0064  0F4F        	mov a,79
 868  0065  0082        	mov ir,a
 869  0066              #line 869 "f:\work\血糖仪\a_bh45f67-旧版\4g\美国客户\make_lib\v1.0.01（5000套出货)-02\g-777g-usa-bg95eseye-2022-2-20\runTask.c"
 869  0066  1483        	inc mp
 869  0067  3D0A        	sz z
 869  0068  1481        	inc sbp
 869  0069  0701        	mov a,sbp
 869  006A  0D00     R  	or a,bank _reivce_data
 869  006B  0084        	mov bp,a
 869  006C  0F4B        	mov a,75
 869  006D  0082        	mov ir,a
 870  006E              #line 870 "f:\work\血糖仪\a_bh45f67-旧版\4g\美国客户\make_lib\v1.0.01（5000套出货)-02\g-777g-usa-bg95eseye-2022-2-20\runTask.c"
 870  006E  0F05        	mov a,5
 870  006F  0080     E  	mov _Uart_Send_9600_2[2],a
 870  0070  0F80        	mov a,low offset _BLOOD_Package
 870  0071  0080     E  	mov _Uart_Send_9600_2[0],a
 870  0072  0F02        	mov a,high offset _BLOOD_Package
 870  0073  0080     E  	mov _Uart_Send_9600_2[1],a
 870  0074              	fcall _Uart_Send_9600
 871  007B              #line 871 "f:\work\血糖仪\a_bh45f67-旧版\4g\美国客户\make_lib\v1.0.01（5000套出货)-02\g-777g-usa-bg95eseye-2022-2-20\runTask.c"
 871  007B  0F64        	mov a,100
 871  007C  0080     E  	mov _me_delay_ms_2[0],a
文件：runTask.c    编译器版本 HGASM 0202 页次40

 871  007D  1F00     E  	clr _me_delay_ms_2[1]
 871  007E              	fcall _me_delay_ms
 871  0085  2800     R  	jmp _L127
 871  0086              _L93:
 599  0086              #line 599 "f:\work\血糖仪\a_bh45f67-旧版\4g\美国客户\make_lib\v1.0.01（5000套出货)-02\g-777g-usa-bg95eseye-2022-2-20\runTask.c"
 599  0086  0F02        	mov a,2
 599  0087  0383        	addm a,mp
 599  0088  0F00        	mov a,0
 599  0089  1381        	adcm a,sbp
 599  008A  0701        	mov a,sbp
 599  008B  0D00     R  	or a,bank _reivce_data
 599  008C  0084        	mov bp,a
 599  008D  0702        	mov a,ir
 599  008E  0080     E  	mov rb,a
 599  008F  1483        	inc mp
 599  0090  3D0A        	sz z
 599  0091  1481        	inc sbp
 599  0092  0701        	mov a,sbp
 599  0093  0D00     R  	or a,bank _reivce_data
 599  0094  0084        	mov bp,a
 599  0095  0702        	mov a,ir
 599  0096  0080     E  	mov ra,a
 599  0097  0700     E  	mov a,rb
 599  0098  0080     E  	mov _builtin_holtek_mulhi3_2[0],a
 599  0099  1F00     E  	clr _builtin_holtek_mulhi3_2[1]
 599  009A  0FFF        	mov a,255
 599  009B  0080     E  	mov _builtin_holtek_mulhi3_2[2],a
 599  009C  0F00        	mov a,0
 599  009D  0080     E  	mov _builtin_holtek_mulhi3_2[3],a
 599  009E              	fcall _builtin_holtek_mulhi3
 599  00A5  0700     E  	mov a,_builtin_holtek_mulhi3_2[4]  
 599  00A6  0080     E  	mov rb,a  
 599  00A7  0700     E  	mov a,_builtin_holtek_mulhi3_2[5]  
 599  00A8  0080     E  	mov rc,a
 599  00A9  0700     E  	mov a,ra
 599  00AA  0380     E  	addm a,rb
 599  00AB  3C0A        	sz c
 599  00AC  1480     E  	inc rc
 599  00AD  0FF8        	mov a,low offset _Pub_temp
 599  00AE  0083        	mov mp,a
 599  00AF  0F03        	mov a,high offset _Pub_temp
 599  00B0  0081        	mov sbp,a
 599  00B1  0701        	mov a,sbp
 599  00B2  0D00     R  	or a,bank _reivce_data
 599  00B3  0084        	mov bp,a
 599  00B4  0700     E  	mov a,rb
 599  00B5  0082        	mov ir,a
 599  00B6  1483        	inc mp
 599  00B7  0700     E  	mov a,rc
 599  00B8  0082        	mov ir,a
 600  00B9              #line 600 "f:\work\血糖仪\a_bh45f67-旧版\4g\美国客户\make_lib\v1.0.01（5000套出货)-02\g-777g-usa-bg95eseye-2022-2-20\runTask.c"
 600  00B9  0FF8        	mov a,low offset _Pub_temp
 600  00BA  0083        	mov mp,a
 600  00BB  0F03        	mov a,high offset _Pub_temp
 600  00BC  0081        	mov sbp,a
 600  00BD  0701        	mov a,sbp
 600  00BE  0D00     R  	or a,bank _reivce_data
 600  00BF  0084        	mov bp,a
 600  00C0  0702        	mov a,ir
 600  00C1  0080     E  	mov rb,a
文件：runTask.c    编译器版本 HGASM 0202 页次41

 600  00C2  1483        	inc mp
 600  00C3  0702        	mov a,ir
 600  00C4  0080     E  	mov rc,a
 600  00C5  0700     E  	mov a,rb
 600  00C6  0500     E  	or a,rc
 600  00C7  3D0A        	sz z
 600  00C8  2800     R  	jmp _L101
 602  00C9              #line 602 "f:\work\血糖仪\a_bh45f67-旧版\4g\美国客户\make_lib\v1.0.01（5000套出货)-02\g-777g-usa-bg95eseye-2022-2-20\runTask.c"
 602  00C9  0F83        	mov a,low (offset _BLOOD_Package+3)
 602  00CA  0083        	mov mp,a
 602  00CB  0F02        	mov a,high (offset _BLOOD_Package+3)
 602  00CC  0081        	mov sbp,a
 602  00CD  0701        	mov a,sbp
 602  00CE  0D00     R  	or a,bank _reivce_data
 602  00CF  0084        	mov bp,a
 602  00D0  0702        	mov a,ir
 602  00D1  0080     R  	mov _reivce_data_2[0],a
 602  00D2  0700     R  	mov a,_reivce_data_2[0]
 602  00D3  0A02        	sub a,2
 602  00D4  390A        	snz z
 602  00D5  2800     R  	jmp _L102
 604  00D6              #line 604 "f:\work\血糖仪\a_bh45f67-旧版\4g\美国客户\make_lib\v1.0.01（5000套出货)-02\g-777g-usa-bg95eseye-2022-2-20\runTask.c"
 604  00D6  0F01        	mov a,1
 604  00D7  0273        	sub a,[115]
 604  00D8  3C0A        	sz c
 604  00D9  2800     R  	jmp _L92
 606  00DA              #line 606 "f:\work\血糖仪\a_bh45f67-旧版\4g\美国客户\make_lib\v1.0.01（5000套出货)-02\g-777g-usa-bg95eseye-2022-2-20\runTask.c"
 606  00DA  15F3        	dec [115]
 606  00DB  2800     R  	jmp _L92
 606  00DC              _L102:
 609  00DC              #line 609 "f:\work\血糖仪\a_bh45f67-旧版\4g\美国客户\make_lib\v1.0.01（5000套出货)-02\g-777g-usa-bg95eseye-2022-2-20\runTask.c"
 609  00DC  1700     R  	sdza _reivce_data_2[0]
 609  00DD  2800     R  	jmp _L92
 611  00DE              #line 611 "f:\work\血糖仪\a_bh45f67-旧版\4g\美国客户\make_lib\v1.0.01（5000套出货)-02\g-777g-usa-bg95eseye-2022-2-20\runTask.c"
 611  00DE  0FF9        	mov a,249
 611  00DF  0273        	sub a,[115]
 611  00E0  380A        	snz c
 611  00E1  2800     R  	jmp _L92
 613  00E2              #line 613 "f:\work\血糖仪\a_bh45f67-旧版\4g\美国客户\make_lib\v1.0.01（5000套出货)-02\g-777g-usa-bg95eseye-2022-2-20\runTask.c"
 613  00E2  14F3        	inc [115]
 613  00E3  2800     R  	jmp _L92
 613  00E4              _L101:
 620  00E4              #line 620 "f:\work\血糖仪\a_bh45f67-旧版\4g\美国客户\make_lib\v1.0.01（5000套出货)-02\g-777g-usa-bg95eseye-2022-2-20\runTask.c"
 620  00E4  0F80        	mov a,low offset _BLOOD_Package
 620  00E5  0083        	mov mp,a
 620  00E6  0F02        	mov a,high offset _BLOOD_Package
 620  00E7  0081        	mov sbp,a
 620  00E8  0701        	mov a,sbp
 620  00E9  0D00     R  	or a,bank _reivce_data
 620  00EA  0084        	mov bp,a
 620  00EB  0F55        	mov a,85
 620  00EC  0082        	mov ir,a
 621  00ED              #line 621 "f:\work\血糖仪\a_bh45f67-旧版\4g\美国客户\make_lib\v1.0.01（5000套出货)-02\g-777g-usa-bg95eseye-2022-2-20\runTask.c"
 621  00ED  1483        	inc mp
 621  00EE  3D0A        	sz z
 621  00EF  1481        	inc sbp
 621  00F0  0701        	mov a,sbp
 621  00F1  0D00     R  	or a,bank _reivce_data
 621  00F2  0084        	mov bp,a
 621  00F3  0F05        	mov a,5
文件：runTask.c    编译器版本 HGASM 0202 页次42

 621  00F4  0082        	mov ir,a
 622  00F5              #line 622 "f:\work\血糖仪\a_bh45f67-旧版\4g\美国客户\make_lib\v1.0.01（5000套出货)-02\g-777g-usa-bg95eseye-2022-2-20\runTask.c"
 622  00F5  1483        	inc mp
 622  00F6  3D0A        	sz z
 622  00F7  1481        	inc sbp
 622  00F8  0701        	mov a,sbp
 622  00F9  0D00     R  	or a,bank _reivce_data
 622  00FA  0084        	mov bp,a
 622  00FB  0F01        	mov a,1
 622  00FC  0082        	mov ir,a
 623  00FD              #line 623 "f:\work\血糖仪\a_bh45f67-旧版\4g\美国客户\make_lib\v1.0.01（5000套出货)-02\g-777g-usa-bg95eseye-2022-2-20\runTask.c"
 623  00FD  1483        	inc mp
 623  00FE  3D0A        	sz z
 623  00FF  1481        	inc sbp
 623  0100  0701        	mov a,sbp
 623  0101  0D00     R  	or a,bank _reivce_data
 623  0102  0084        	mov bp,a
 623  0103  0F4F        	mov a,79
 623  0104  0082        	mov ir,a
 624  0105              #line 624 "f:\work\血糖仪\a_bh45f67-旧版\4g\美国客户\make_lib\v1.0.01（5000套出货)-02\g-777g-usa-bg95eseye-2022-2-20\runTask.c"
 624  0105  1483        	inc mp
 624  0106  3D0A        	sz z
 624  0107  1481        	inc sbp
 624  0108  0701        	mov a,sbp
 624  0109  0D00     R  	or a,bank _reivce_data
 624  010A  0084        	mov bp,a
 624  010B  0F4B        	mov a,75
 624  010C  0082        	mov ir,a
 625  010D              #line 625 "f:\work\血糖仪\a_bh45f67-旧版\4g\美国客户\make_lib\v1.0.01（5000套出货)-02\g-777g-usa-bg95eseye-2022-2-20\runTask.c"
 625  010D  0F05        	mov a,5
 625  010E  0080     E  	mov _Uart_Send_9600_2[2],a
 625  010F  0F80        	mov a,low offset _BLOOD_Package
 625  0110  0080     E  	mov _Uart_Send_9600_2[0],a
 625  0111  0F02        	mov a,high offset _BLOOD_Package
 625  0112  0080     E  	mov _Uart_Send_9600_2[1],a
 625  0113              	fcall _Uart_Send_9600
 625  011A  2800     R  	jmp _L127
 625  011B              _L94:
 630  011B              #line 630 "f:\work\血糖仪\a_bh45f67-旧版\4g\美国客户\make_lib\v1.0.01（5000套出货)-02\g-777g-usa-bg95eseye-2022-2-20\runTask.c"
 630  011B  0F02        	mov a,2
 630  011C  0383        	addm a,mp
 630  011D  0F00        	mov a,0
 630  011E  1381        	adcm a,sbp
 630  011F  0701        	mov a,sbp
 630  0120  0D00     R  	or a,bank _reivce_data
 630  0121  0084        	mov bp,a
 630  0122  0702        	mov a,ir
 630  0123  0080     E  	mov rb,a
 630  0124  1483        	inc mp
 630  0125  3D0A        	sz z
 630  0126  1481        	inc sbp
 630  0127  0701        	mov a,sbp
 630  0128  0D00     R  	or a,bank _reivce_data
 630  0129  0084        	mov bp,a
 630  012A  0702        	mov a,ir
 630  012B  0080     E  	mov ra,a
 630  012C  0700     E  	mov a,rb
 630  012D  0080     E  	mov _builtin_holtek_mulhi3_2[0],a
 630  012E  1F00     E  	clr _builtin_holtek_mulhi3_2[1]
 630  012F  0FFF        	mov a,255
文件：runTask.c    编译器版本 HGASM 0202 页次43

 630  0130  0080     E  	mov _builtin_holtek_mulhi3_2[2],a
 630  0131  0F00        	mov a,0
 630  0132  0080     E  	mov _builtin_holtek_mulhi3_2[3],a
 630  0133              	fcall _builtin_holtek_mulhi3
 630  013A  0700     E  	mov a,_builtin_holtek_mulhi3_2[4]  
 630  013B  0080     E  	mov rb,a  
 630  013C  0700     E  	mov a,_builtin_holtek_mulhi3_2[5]  
 630  013D  0080     E  	mov rc,a
 630  013E  0700     E  	mov a,ra
 630  013F  0380     E  	addm a,rb
 630  0140  3C0A        	sz c
 630  0141  1480     E  	inc rc
 630  0142  0FF8        	mov a,low offset _Pub_temp
 630  0143  0083        	mov mp,a
 630  0144  0F03        	mov a,high offset _Pub_temp
 630  0145  0081        	mov sbp,a
 630  0146  0701        	mov a,sbp
 630  0147  0D00     R  	or a,bank _reivce_data
 630  0148  0084        	mov bp,a
 630  0149  0700     E  	mov a,rb
 630  014A  0082        	mov ir,a
 630  014B  1483        	inc mp
 630  014C  0700     E  	mov a,rc
 630  014D  0082        	mov ir,a
 631  014E              #line 631 "f:\work\血糖仪\a_bh45f67-旧版\4g\美国客户\make_lib\v1.0.01（5000套出货)-02\g-777g-usa-bg95eseye-2022-2-20\runTask.c"
 631  014E  0FF8        	mov a,low offset _Pub_temp
 631  014F  0083        	mov mp,a
 631  0150  0F03        	mov a,high offset _Pub_temp
 631  0151  0081        	mov sbp,a
 631  0152  0701        	mov a,sbp
 631  0153  0D00     R  	or a,bank _reivce_data
 631  0154  0084        	mov bp,a
 631  0155  0702        	mov a,ir
 631  0156  0080     E  	mov rb,a
 631  0157  1483        	inc mp
 631  0158  0702        	mov a,ir
 631  0159  0080     E  	mov rc,a
 631  015A  0700     E  	mov a,rb
 631  015B  0500     E  	or a,rc
 631  015C  3D0A        	sz z
 631  015D  2800     R  	jmp _L105
 633  015E              #line 633 "f:\work\血糖仪\a_bh45f67-旧版\4g\美国客户\make_lib\v1.0.01（5000套出货)-02\g-777g-usa-bg95eseye-2022-2-20\runTask.c"
 633  015E  0F83        	mov a,low (offset _BLOOD_Package+3)
 633  015F  0083        	mov mp,a
 633  0160  0F02        	mov a,high (offset _BLOOD_Package+3)
 633  0161  0081        	mov sbp,a
 633  0162  0701        	mov a,sbp
 633  0163  0D00     R  	or a,bank _reivce_data
 633  0164  0084        	mov bp,a
 633  0165  0702        	mov a,ir
 633  0166  0080     R  	mov _reivce_data_2[0],a
 633  0167  0700     R  	mov a,_reivce_data_2[0]
 633  0168  0A02        	sub a,2
 633  0169  390A        	snz z
 633  016A  2800     R  	jmp _L106
 635  016B              #line 635 "f:\work\血糖仪\a_bh45f67-旧版\4g\美国客户\make_lib\v1.0.01（5000套出货)-02\g-777g-usa-bg95eseye-2022-2-20\runTask.c"
 635  016B  0FBF        	mov a,low offset _Blood_Sequence
 635  016C  0083        	mov mp,a
 635  016D  0F03        	mov a,high offset _Blood_Sequence
 635  016E  0081        	mov sbp,a
文件：runTask.c    编译器版本 HGASM 0202 页次44

 635  016F  0701        	mov a,sbp
 635  0170  0D00     R  	or a,bank _reivce_data
 635  0171  0084        	mov bp,a
 635  0172  0702        	mov a,ir
 635  0173  0080     E  	mov rd,a
 635  0174  1483        	inc mp
 635  0175  0702        	mov a,ir
 635  0176  0080     E  	mov re,a
 635  0177  1483        	inc mp
 635  0178  0702        	mov a,ir
 635  0179  0080     E  	mov rf,a
 635  017A  1483        	inc mp
 635  017B  0702        	mov a,ir
 635  017C  0080     E  	mov rg,a
 635  017D  0FBE        	mov a,190
 635  017E  0200     E  	sub a,rd
 635  017F  0FFF        	mov a,255
 635  0180  1200     E  	sbc a,re
 635  0181  0F00        	mov a,0
 635  0182  1200     E  	sbc a,rf
 635  0183  0F00        	mov a,0
 635  0184  1200     E  	sbc a,rg
 635  0185  380A        	snz c
 635  0186  2800     R  	jmp _L92
 637  0187              #line 637 "f:\work\血糖仪\a_bh45f67-旧版\4g\美国客户\make_lib\v1.0.01（5000套出货)-02\g-777g-usa-bg95eseye-2022-2-20\runTask.c"
 637  0187  0FBF        	mov a,low offset _Blood_Sequence
 637  0188  0083        	mov mp,a
 637  0189  0F03        	mov a,high offset _Blood_Sequence
 637  018A  0081        	mov sbp,a
 637  018B  0701        	mov a,sbp
 637  018C  0D00     R  	or a,bank _reivce_data
 637  018D  0084        	mov bp,a
 637  018E  0702        	mov a,ir
 637  018F  0080     E  	mov rd,a
 637  0190  1483        	inc mp
 637  0191  0702        	mov a,ir
 637  0192  0080     E  	mov re,a
 637  0193  1483        	inc mp
 637  0194  0702        	mov a,ir
 637  0195  0080     E  	mov rf,a
 637  0196  1483        	inc mp
 637  0197  0702        	mov a,ir
 637  0198  0080     E  	mov rg,a
 637  0199  0F40        	mov a,64
 637  019A  0380     E  	addm a,rd
 637  019B  0F00        	mov a,0
 637  019C  1380     E  	adcm a,re
 637  019D  1380     E  	adcm a,rf
 637  019E  1380     E  	adcm a,rg
 637  019F  2800     R  	jmp _L128
 637  01A0              _L106:
 642  01A0              #line 642 "f:\work\血糖仪\a_bh45f67-旧版\4g\美国客户\make_lib\v1.0.01（5000套出货)-02\g-777g-usa-bg95eseye-2022-2-20\runTask.c"
 642  01A0  1700     R  	sdza _reivce_data_2[0]
 642  01A1  2800     R  	jmp _L92
 644  01A2              #line 644 "f:\work\血糖仪\a_bh45f67-旧版\4g\美国客户\make_lib\v1.0.01（5000套出货)-02\g-777g-usa-bg95eseye-2022-2-20\runTask.c"
 644  01A2  0FBF        	mov a,low offset _Blood_Sequence
 644  01A3  0083        	mov mp,a
 644  01A4  0F03        	mov a,high offset _Blood_Sequence
 644  01A5  0081        	mov sbp,a
 644  01A6  0701        	mov a,sbp
文件：runTask.c    编译器版本 HGASM 0202 页次45

 644  01A7  0D00     R  	or a,bank _reivce_data
 644  01A8  0084        	mov bp,a
 644  01A9  0702        	mov a,ir
 644  01AA  0080     E  	mov rd,a
 644  01AB  1483        	inc mp
 644  01AC  0702        	mov a,ir
 644  01AD  0080     E  	mov re,a
 644  01AE  1483        	inc mp
 644  01AF  0702        	mov a,ir
 644  01B0  0080     E  	mov rf,a
 644  01B1  1483        	inc mp
 644  01B2  0702        	mov a,ir
 644  01B3  0080     E  	mov rg,a
 644  01B4  0F40        	mov a,64
 644  01B5  0200     E  	sub a,rd
 644  01B6  0F00        	mov a,0
 644  01B7  1200     E  	sbc a,re
 644  01B8  0F00        	mov a,0
 644  01B9  1200     E  	sbc a,rf
 644  01BA  0F00        	mov a,0
 644  01BB  1200     E  	sbc a,rg
 644  01BC  3C0A        	sz c
 644  01BD  2800     R  	jmp _L92
 646  01BE              #line 646 "f:\work\血糖仪\a_bh45f67-旧版\4g\美国客户\make_lib\v1.0.01（5000套出货)-02\g-777g-usa-bg95eseye-2022-2-20\runTask.c"
 646  01BE  0FBF        	mov a,low offset _Blood_Sequence
 646  01BF  0083        	mov mp,a
 646  01C0  0F03        	mov a,high offset _Blood_Sequence
 646  01C1  0081        	mov sbp,a
 646  01C2  0701        	mov a,sbp
 646  01C3  0D00     R  	or a,bank _reivce_data
 646  01C4  0084        	mov bp,a
 646  01C5  0702        	mov a,ir
 646  01C6  0080     E  	mov rd,a
 646  01C7  1483        	inc mp
 646  01C8  0702        	mov a,ir
 646  01C9  0080     E  	mov re,a
 646  01CA  1483        	inc mp
 646  01CB  0702        	mov a,ir
 646  01CC  0080     E  	mov rf,a
 646  01CD  1483        	inc mp
 646  01CE  0702        	mov a,ir
 646  01CF  0080     E  	mov rg,a
 646  01D0  0FC0        	mov a,192
 646  01D1  0380     E  	addm a,rd
 646  01D2  0FFF        	mov a,255
 646  01D3  1380     E  	adcm a,re
 646  01D4  1380     E  	adcm a,rf
 646  01D5  1380     E  	adcm a,rg
 646  01D6              _L128:
 646  01D6  0FBF        	mov a,low offset _Blood_Sequence
 646  01D7  0083        	mov mp,a
 646  01D8  0F03        	mov a,high offset _Blood_Sequence
 646  01D9  0081        	mov sbp,a
 646  01DA  0701        	mov a,sbp
 646  01DB  0D00     R  	or a,bank _reivce_data
 646  01DC  0084        	mov bp,a
 646  01DD  0700     E  	mov a,rd
 646  01DE  0082        	mov ir,a
 646  01DF  1483        	inc mp
 646  01E0  0700     E  	mov a,re
文件：runTask.c    编译器版本 HGASM 0202 页次46

 646  01E1  0082        	mov ir,a
 646  01E2  1483        	inc mp
 646  01E3  0700     E  	mov a,rf
 646  01E4  0082        	mov ir,a
 646  01E5  1483        	inc mp
 646  01E6  0700     E  	mov a,rg
 646  01E7  0082        	mov ir,a
 647  01E8              #line 647 "f:\work\血糖仪\a_bh45f67-旧版\4g\美国客户\make_lib\v1.0.01（5000套出货)-02\g-777g-usa-bg95eseye-2022-2-20\runTask.c"
 647  01E8  0FBF        	mov a,low offset _Blood_Sequence
 647  01E9  0083        	mov mp,a
 647  01EA  0F03        	mov a,high offset _Blood_Sequence
 647  01EB  0081        	mov sbp,a
 647  01EC  0701        	mov a,sbp
 647  01ED  0D00     R  	or a,bank _reivce_data
 647  01EE  0084        	mov bp,a
 647  01EF  0702        	mov a,ir
 647  01F0  00F0        	mov [112],a
 648  01F1              #line 648 "f:\work\血糖仪\a_bh45f67-旧版\4g\美国客户\make_lib\v1.0.01（5000套出货)-02\g-777g-usa-bg95eseye-2022-2-20\runTask.c"
 648  01F1  0701        	mov a,sbp
 648  01F2  0D00     R  	or a,bank _reivce_data
 648  01F3  0084        	mov bp,a
 648  01F4  0702        	mov a,ir
 648  01F5  0080     E  	mov rd,a
 648  01F6  1483        	inc mp
 648  01F7  0702        	mov a,ir
 648  01F8  0080     E  	mov re,a
 648  01F9  1483        	inc mp
 648  01FA  0702        	mov a,ir
 648  01FB  0080     E  	mov rf,a
 648  01FC  1483        	inc mp
 648  01FD  0702        	mov a,ir
 648  01FE  0080     E  	mov rg,a
 648  01FF  0700     E  	mov a,re
 648  0200  00F1        	mov [113],a
 648  0201  2800     R  	jmp _L92
 648  0202              _L105:
 654  0202              #line 654 "f:\work\血糖仪\a_bh45f67-旧版\4g\美国客户\make_lib\v1.0.01（5000套出货)-02\g-777g-usa-bg95eseye-2022-2-20\runTask.c"
 654  0202  0FBF        	mov a,low offset _Blood_Sequence
 654  0203  0083        	mov mp,a
 654  0204  0F03        	mov a,high offset _Blood_Sequence
 654  0205  0081        	mov sbp,a
 654  0206  0701        	mov a,sbp
 654  0207  0D00     R  	or a,bank _reivce_data
 654  0208  0084        	mov bp,a
 654  0209  0702        	mov a,ir
 654  020A  0080     E  	mov rd,a
 654  020B  1483        	inc mp
 654  020C  0702        	mov a,ir
 654  020D  0080     E  	mov re,a
 654  020E  1483        	inc mp
 654  020F  0702        	mov a,ir
 654  0210  0080     E  	mov rf,a
 654  0211  1483        	inc mp
 654  0212  0702        	mov a,ir
 654  0213  0080     E  	mov rg,a
 654  0214  0F40        	mov a,64
 654  0215  0380     E  	addm a,rd
 654  0216  0F00        	mov a,0
 654  0217  1380     E  	adcm a,re
 654  0218  1380     E  	adcm a,rf
文件：runTask.c    编译器版本 HGASM 0202 页次47

 654  0219  1380     E  	adcm a,rg
 654  021A  0FBF        	mov a,low offset _Blood_Sequence
 654  021B  0083        	mov mp,a
 654  021C  0F03        	mov a,high offset _Blood_Sequence
 654  021D  0081        	mov sbp,a
 654  021E  0701        	mov a,sbp
 654  021F  0D00     R  	or a,bank _reivce_data
 654  0220  0084        	mov bp,a
 654  0221  0700     E  	mov a,rd
 654  0222  0082        	mov ir,a
 654  0223  1483        	inc mp
 654  0224  0700     E  	mov a,re
 654  0225  0082        	mov ir,a
 654  0226  1483        	inc mp
 654  0227  0700     E  	mov a,rf
 654  0228  0082        	mov ir,a
 654  0229  1483        	inc mp
 654  022A  0700     E  	mov a,rg
 654  022B  0082        	mov ir,a
 655  022C              #line 655 "f:\work\血糖仪\a_bh45f67-旧版\4g\美国客户\make_lib\v1.0.01（5000套出货)-02\g-777g-usa-bg95eseye-2022-2-20\runTask.c"
 655  022C  0FBF        	mov a,low offset _Blood_Sequence
 655  022D  0083        	mov mp,a
 655  022E  0F03        	mov a,high offset _Blood_Sequence
 655  022F  0081        	mov sbp,a
 655  0230  0701        	mov a,sbp
 655  0231  0D00     R  	or a,bank _reivce_data
 655  0232  0084        	mov bp,a
 655  0233  0702        	mov a,ir
 655  0234  00F0        	mov [112],a
 656  0235              #line 656 "f:\work\血糖仪\a_bh45f67-旧版\4g\美国客户\make_lib\v1.0.01（5000套出货)-02\g-777g-usa-bg95eseye-2022-2-20\runTask.c"
 656  0235  0701        	mov a,sbp
 656  0236  0D00     R  	or a,bank _reivce_data
 656  0237  0084        	mov bp,a
 656  0238  0702        	mov a,ir
 656  0239  0080     E  	mov rd,a
 656  023A  1483        	inc mp
 656  023B  0702        	mov a,ir
 656  023C  0080     E  	mov re,a
 656  023D  1483        	inc mp
 656  023E  0702        	mov a,ir
 656  023F  0080     E  	mov rf,a
 656  0240  1483        	inc mp
 656  0241  0702        	mov a,ir
 656  0242  0080     E  	mov rg,a
 656  0243  0700     E  	mov a,re
 656  0244  00F1        	mov [113],a
 657  0245              #line 657 "f:\work\血糖仪\a_bh45f67-旧版\4g\美国客户\make_lib\v1.0.01（5000套出货)-02\g-777g-usa-bg95eseye-2022-2-20\runTask.c"
 657  0245  0FBF        	mov a,low offset _Blood_Sequence
 657  0246  0083        	mov mp,a
 657  0247  0F03        	mov a,high offset _Blood_Sequence
 657  0248  0081        	mov sbp,a
 657  0249  0701        	mov a,sbp
 657  024A  0D00     R  	or a,bank _reivce_data
 657  024B  0084        	mov bp,a
 657  024C  1F02        	clr ir
 657  024D  1483        	inc mp
 657  024E  1F02        	clr ir
 657  024F  1483        	inc mp
 657  0250  1F02        	clr ir
 657  0251  1483        	inc mp
文件：runTask.c    编译器版本 HGASM 0202 页次48

 657  0252  1F02        	clr ir
 658  0253              #line 658 "f:\work\血糖仪\a_bh45f67-旧版\4g\美国客户\make_lib\v1.0.01（5000套出货)-02\g-777g-usa-bg95eseye-2022-2-20\runTask.c"
 658  0253  0F80        	mov a,low offset _BLOOD_Package
 658  0254  0083        	mov mp,a
 658  0255  0F02        	mov a,high offset _BLOOD_Package
 658  0256  0081        	mov sbp,a
 658  0257  0701        	mov a,sbp
 658  0258  0D00     R  	or a,bank _reivce_data
 658  0259  0084        	mov bp,a
 658  025A  0F55        	mov a,85
 658  025B  0082        	mov ir,a
 659  025C              #line 659 "f:\work\血糖仪\a_bh45f67-旧版\4g\美国客户\make_lib\v1.0.01（5000套出货)-02\g-777g-usa-bg95eseye-2022-2-20\runTask.c"
 659  025C  1483        	inc mp
 659  025D  3D0A        	sz z
 659  025E  1481        	inc sbp
 659  025F  0701        	mov a,sbp
 659  0260  0D00     R  	or a,bank _reivce_data
 659  0261  0084        	mov bp,a
 659  0262  0F05        	mov a,5
 659  0263  0082        	mov ir,a
 660  0264              #line 660 "f:\work\血糖仪\a_bh45f67-旧版\4g\美国客户\make_lib\v1.0.01（5000套出货)-02\g-777g-usa-bg95eseye-2022-2-20\runTask.c"
 660  0264  1483        	inc mp
 660  0265  3D0A        	sz z
 660  0266  1481        	inc sbp
 660  0267  0701        	mov a,sbp
 660  0268  0D00     R  	or a,bank _reivce_data
 660  0269  0084        	mov bp,a
 660  026A  0F02        	mov a,2
 660  026B  0082        	mov ir,a
 661  026C              #line 661 "f:\work\血糖仪\a_bh45f67-旧版\4g\美国客户\make_lib\v1.0.01（5000套出货)-02\g-777g-usa-bg95eseye-2022-2-20\runTask.c"
 661  026C  1483        	inc mp
 661  026D  3D0A        	sz z
 661  026E  1481        	inc sbp
 661  026F  0701        	mov a,sbp
 661  0270  0D00     R  	or a,bank _reivce_data
 661  0271  0084        	mov bp,a
 661  0272  0F4F        	mov a,79
 661  0273  0082        	mov ir,a
 662  0274              #line 662 "f:\work\血糖仪\a_bh45f67-旧版\4g\美国客户\make_lib\v1.0.01（5000套出货)-02\g-777g-usa-bg95eseye-2022-2-20\runTask.c"
 662  0274  1483        	inc mp
 662  0275  3D0A        	sz z
 662  0276  1481        	inc sbp
 662  0277  0701        	mov a,sbp
 662  0278  0D00     R  	or a,bank _reivce_data
 662  0279  0084        	mov bp,a
 662  027A  0F4B        	mov a,75
 662  027B  0082        	mov ir,a
 663  027C              #line 663 "f:\work\血糖仪\a_bh45f67-旧版\4g\美国客户\make_lib\v1.0.01（5000套出货)-02\g-777g-usa-bg95eseye-2022-2-20\runTask.c"
 663  027C  0F05        	mov a,5
 663  027D  0080     E  	mov _Uart_Send_9600_2[2],a
 663  027E  0F80        	mov a,low offset _BLOOD_Package
 663  027F  0080     E  	mov _Uart_Send_9600_2[0],a
 663  0280  0F02        	mov a,high offset _BLOOD_Package
 663  0281  0080     E  	mov _Uart_Send_9600_2[1],a
 663  0282              	fcall _Uart_Send_9600
 664  0289              #line 664 "f:\work\血糖仪\a_bh45f67-旧版\4g\美国客户\make_lib\v1.0.01（5000套出货)-02\g-777g-usa-bg95eseye-2022-2-20\runTask.c"
 664  0289  0F05        	mov a,5
 664  028A  0080     E  	mov _Uart_Send_9600_2[2],a
 664  028B  0F80        	mov a,low offset _BLOOD_Package
 664  028C  0080     E  	mov _Uart_Send_9600_2[0],a
文件：runTask.c    编译器版本 HGASM 0202 页次49

 664  028D  0F02        	mov a,high offset _BLOOD_Package
 664  028E  0080     E  	mov _Uart_Send_9600_2[1],a
 664  028F              	fcall _Uart_Send_9600
 665  0296              #line 665 "f:\work\血糖仪\a_bh45f67-旧版\4g\美国客户\make_lib\v1.0.01（5000套出货)-02\g-777g-usa-bg95eseye-2022-2-20\runTask.c"
 665  0296  0F88        	mov a,low (offset _SystemFlags+8)
 665  0297  0083        	mov mp,a
 665  0298  0F03        	mov a,high (offset _SystemFlags+8)
 665  0299  0081        	mov sbp,a
 665  029A  0701        	mov a,sbp
 665  029B  0D00     R  	or a,bank _reivce_data
 665  029C  0084        	mov bp,a
 665  029D  0F03        	mov a,3
 665  029E  0082        	mov ir,a
 666  029F              #line 666 "f:\work\血糖仪\a_bh45f67-旧版\4g\美国客户\make_lib\v1.0.01（5000套出货)-02\g-777g-usa-bg95eseye-2022-2-20\runTask.c"
 666  029F  0F14        	mov a,20
 666  02A0  0080     E  	mov _memset_2[4],a
 666  02A1  1F00     E  	clr _memset_2[5]
 666  02A2  1F00     E  	clr _memset_2[2]
 666  02A3  1F00     E  	clr _memset_2[3]
 666  02A4  0F80        	mov a,low offset _BLOOD_Package
 666  02A5  0080     E  	mov _memset_2[0],a
 666  02A6  0F02        	mov a,high offset _BLOOD_Package
 666  02A7  0080     E  	mov _memset_2[1],a
 666  02A8              	fcall _memset
 667  02AF              #line 667 "f:\work\血糖仪\a_bh45f67-旧版\4g\美国客户\make_lib\v1.0.01（5000套出货)-02\g-777g-usa-bg95eseye-2022-2-20\runTask.c"
 667  02AF              	fcall _AD_set
 668  02B6              #line 668 "f:\work\血糖仪\a_bh45f67-旧版\4g\美国客户\make_lib\v1.0.01（5000套出货)-02\g-777g-usa-bg95eseye-2022-2-20\runTask.c"
 668  02B6  3144        	set [68].2
 669  02B7              #line 669 "f:\work\血糖仪\a_bh45f67-旧版\4g\美国客户\make_lib\v1.0.01（5000套出货)-02\g-777g-usa-bg95eseye-2022-2-20\runTask.c"
 669  02B7  34C4        	clr [68].1
 670  02B8              #line 670 "f:\work\血糖仪\a_bh45f67-旧版\4g\美国客户\make_lib\v1.0.01（5000套出货)-02\g-777g-usa-bg95eseye-2022-2-20\runTask.c"
 670  02B8  3444        	clr [68].0
 671  02B9              #line 671 "f:\work\血糖仪\a_bh45f67-旧版\4g\美国客户\make_lib\v1.0.01（5000套出货)-02\g-777g-usa-bg95eseye-2022-2-20\runTask.c"
 671  02B9  0F01        	mov a,1
 671  02BA  00F2        	mov [114],a
 672  02BB              #line 672 "f:\work\血糖仪\a_bh45f67-旧版\4g\美国客户\make_lib\v1.0.01（5000套出货)-02\g-777g-usa-bg95eseye-2022-2-20\runTask.c"
 672  02BB  309E        	set [30].1
 673  02BC              #line 673 "f:\work\血糖仪\a_bh45f67-旧版\4g\美国客户\make_lib\v1.0.01（5000套出货)-02\g-777g-usa-bg95eseye-2022-2-20\runTask.c"
 673  02BC  309D        	set [29].1
 674  02BD              #line 674 "f:\work\血糖仪\a_bh45f67-旧版\4g\美国客户\make_lib\v1.0.01（5000套出货)-02\g-777g-usa-bg95eseye-2022-2-20\runTask.c"
 674  02BD  349C        	clr [28].1
 675  02BE              #line 675 "f:\work\血糖仪\a_bh45f67-旧版\4g\美国客户\make_lib\v1.0.01（5000套出货)-02\g-777g-usa-bg95eseye-2022-2-20\runTask.c"
 675  02BE  0F0A        	mov a,10
 675  02BF  0080     E  	mov _me_delay_ms_2[0],a
 675  02C0  1F00     E  	clr _me_delay_ms_2[1]
 675  02C1              	fcall _me_delay_ms
 676  02C8              #line 676 "f:\work\血糖仪\a_bh45f67-旧版\4g\美国客户\make_lib\v1.0.01（5000套出货)-02\g-777g-usa-bg95eseye-2022-2-20\runTask.c"
 676  02C8  0FF2        	mov a,low offset _AD_value
 676  02C9  0083        	mov mp,a
 676  02CA  0F03        	mov a,high offset _AD_value
 676  02CB  0081        	mov sbp,a
 676  02CC  0701        	mov a,sbp
 676  02CD  0D00     R  	or a,bank _reivce_data
 676  02CE  0084        	mov bp,a
 676  02CF  1F02        	clr ir
 676  02D0  1483        	inc mp
 676  02D1  1F02        	clr ir
 676  02D2  1483        	inc mp
 676  02D3  1F02        	clr ir
 676  02D4  1483        	inc mp
文件：runTask.c    编译器版本 HGASM 0202 页次50

 676  02D5  1F02        	clr ir
 676  02D6  2800     R  	jmp _L92
 676  02D7              _L95:
 680  02D7              #line 680 "f:\work\血糖仪\a_bh45f67-旧版\4g\美国客户\make_lib\v1.0.01（5000套出货)-02\g-777g-usa-bg95eseye-2022-2-20\runTask.c"
 680  02D7              	fcall _test_OP
 681  02DE              #line 681 "f:\work\血糖仪\a_bh45f67-旧版\4g\美国客户\make_lib\v1.0.01（5000套出货)-02\g-777g-usa-bg95eseye-2022-2-20\runTask.c"
 681  02DE  0FF2        	mov a,low offset _AD_value
 681  02DF  0083        	mov mp,a
 681  02E0  0F03        	mov a,high offset _AD_value
 681  02E1  0081        	mov sbp,a
 681  02E2  0701        	mov a,sbp
 681  02E3  0D00     R  	or a,bank _reivce_data
 681  02E4  0084        	mov bp,a
 681  02E5  0702        	mov a,ir
 681  02E6  0080     E  	mov rd,a
 681  02E7  1483        	inc mp
 681  02E8  0702        	mov a,ir
 681  02E9  0080     E  	mov re,a
 681  02EA  1483        	inc mp
 681  02EB  0702        	mov a,ir
 681  02EC  0080     E  	mov rf,a
 681  02ED  1483        	inc mp
 681  02EE  0702        	mov a,ir
 681  02EF  0080     E  	mov rg,a
 681  02F0  0F34        	mov a,52
 681  02F1  0200     E  	sub a,rd
 681  02F2  0F03        	mov a,3
 681  02F3  1200     E  	sbc a,re
 681  02F4  0F00        	mov a,0
 681  02F5  1200     E  	sbc a,rf
 681  02F6  0F00        	mov a,0
 681  02F7  1200     E  	sbc a,rg
 681  02F8  3C0A        	sz c
 681  02F9  2800     R  	jmp _L107
 683  02FA              #line 683 "f:\work\血糖仪\a_bh45f67-旧版\4g\美国客户\make_lib\v1.0.01（5000套出货)-02\g-777g-usa-bg95eseye-2022-2-20\runTask.c"
 683  02FA  0F3E        	mov a,62
 683  02FB  027E        	sub a,[126]
 683  02FC  380A        	snz c
 683  02FD  2800     R  	jmp _L107
 685  02FE              #line 685 "f:\work\血糖仪\a_bh45f67-旧版\4g\美国客户\make_lib\v1.0.01（5000套出货)-02\g-777g-usa-bg95eseye-2022-2-20\runTask.c"
 685  02FE  14FE        	inc [126]
 685  02FF              _L107:
 688  02FF              #line 688 "f:\work\血糖仪\a_bh45f67-旧版\4g\美国客户\make_lib\v1.0.01（5000套出货)-02\g-777g-usa-bg95eseye-2022-2-20\runTask.c"
 688  02FF  0FF2        	mov a,low offset _AD_value
 688  0300  0083        	mov mp,a
 688  0301  0F03        	mov a,high offset _AD_value
 688  0302  0081        	mov sbp,a
 688  0303  0701        	mov a,sbp
 688  0304  0D00     R  	or a,bank _reivce_data
 688  0305  0084        	mov bp,a
 688  0306  0702        	mov a,ir
 688  0307  0080     E  	mov rd,a
 688  0308  1483        	inc mp
 688  0309  0702        	mov a,ir
 688  030A  0080     E  	mov re,a
 688  030B  1483        	inc mp
 688  030C  0702        	mov a,ir
 688  030D  0080     E  	mov rf,a
 688  030E  1483        	inc mp
 688  030F  0702        	mov a,ir
文件：runTask.c    编译器版本 HGASM 0202 页次51

 688  0310  0080     E  	mov rg,a
 688  0311  0F33        	mov a,51
 688  0312  0200     E  	sub a,rd
 688  0313  0F03        	mov a,3
 688  0314  1200     E  	sbc a,re
 688  0315  0F00        	mov a,0
 688  0316  1200     E  	sbc a,rf
 688  0317  0F00        	mov a,0
 688  0318  1200     E  	sbc a,rg
 688  0319  380A        	snz c
 688  031A  2800     R  	jmp _L108
 690  031B              #line 690 "f:\work\血糖仪\a_bh45f67-旧版\4g\美国客户\make_lib\v1.0.01（5000套出货)-02\g-777g-usa-bg95eseye-2022-2-20\runTask.c"
 690  031B  0F20        	mov a,32
 690  031C  027E        	sub a,[126]
 690  031D  3C0A        	sz c
 690  031E  2800     R  	jmp _L108
 692  031F              #line 692 "f:\work\血糖仪\a_bh45f67-旧版\4g\美国客户\make_lib\v1.0.01（5000套出货)-02\g-777g-usa-bg95eseye-2022-2-20\runTask.c"
 692  031F  15FE        	dec [126]
 692  0320              _L108:
 695  0320              #line 695 "f:\work\血糖仪\a_bh45f67-旧版\4g\美国客户\make_lib\v1.0.01（5000套出货)-02\g-777g-usa-bg95eseye-2022-2-20\runTask.c"
 695  0320              	fcall _test_OP
 696  0327              #line 696 "f:\work\血糖仪\a_bh45f67-旧版\4g\美国客户\make_lib\v1.0.01（5000套出货)-02\g-777g-usa-bg95eseye-2022-2-20\runTask.c"
 696  0327  0F80        	mov a,low offset _BLOOD_Package
 696  0328  0083        	mov mp,a
 696  0329  0F02        	mov a,high offset _BLOOD_Package
 696  032A  0081        	mov sbp,a
 696  032B  0701        	mov a,sbp
 696  032C  0D00     R  	or a,bank _reivce_data
 696  032D  0084        	mov bp,a
 696  032E  0F55        	mov a,85
 696  032F  0082        	mov ir,a
 697  0330              #line 697 "f:\work\血糖仪\a_bh45f67-旧版\4g\美国客户\make_lib\v1.0.01（5000套出货)-02\g-777g-usa-bg95eseye-2022-2-20\runTask.c"
 697  0330  1483        	inc mp
 697  0331  3D0A        	sz z
 697  0332  1481        	inc sbp
 697  0333  0701        	mov a,sbp
 697  0334  0D00     R  	or a,bank _reivce_data
 697  0335  0084        	mov bp,a
 697  0336  0F07        	mov a,7
 697  0337  0082        	mov ir,a
 698  0338              #line 698 "f:\work\血糖仪\a_bh45f67-旧版\4g\美国客户\make_lib\v1.0.01（5000套出货)-02\g-777g-usa-bg95eseye-2022-2-20\runTask.c"
 698  0338  1483        	inc mp
 698  0339  3D0A        	sz z
 698  033A  1481        	inc sbp
 698  033B  0701        	mov a,sbp
 698  033C  0D00     R  	or a,bank _reivce_data
 698  033D  0084        	mov bp,a
 698  033E  0F03        	mov a,3
 698  033F  0082        	mov ir,a
 699  0340              #line 699 "f:\work\血糖仪\a_bh45f67-旧版\4g\美国客户\make_lib\v1.0.01（5000套出货)-02\g-777g-usa-bg95eseye-2022-2-20\runTask.c"
 699  0340  0FF2        	mov a,low offset _AD_value
 699  0341  0083        	mov mp,a
 699  0342  0F03        	mov a,high offset _AD_value
 699  0343  0081        	mov sbp,a
 699  0344  0701        	mov a,sbp
 699  0345  0D00     R  	or a,bank _reivce_data
 699  0346  0084        	mov bp,a
 699  0347  0702        	mov a,ir
 699  0348  0080     E  	mov rd,a
 699  0349  1483        	inc mp
文件：runTask.c    编译器版本 HGASM 0202 页次52

 699  034A  0702        	mov a,ir
 699  034B  0080     E  	mov re,a
 699  034C  1483        	inc mp
 699  034D  0702        	mov a,ir
 699  034E  0080     E  	mov rf,a
 699  034F  1483        	inc mp
 699  0350  0702        	mov a,ir
 699  0351  0080     E  	mov rg,a
 699  0352  0F84        	mov a,low (offset _BLOOD_Package+4)
 699  0353  0083        	mov mp,a
 699  0354  0F02        	mov a,high (offset _BLOOD_Package+4)
 699  0355  0081        	mov sbp,a
 699  0356  0701        	mov a,sbp
 699  0357  0D00     R  	or a,bank _reivce_data
 699  0358  0084        	mov bp,a
 699  0359  0700     E  	mov a,rd
 699  035A  0082        	mov ir,a
 700  035B              #line 700 "f:\work\血糖仪\a_bh45f67-旧版\4g\美国客户\make_lib\v1.0.01（5000套出货)-02\g-777g-usa-bg95eseye-2022-2-20\runTask.c"
 700  035B  0FF2        	mov a,low offset _AD_value
 700  035C  0083        	mov mp,a
 700  035D  0F03        	mov a,high offset _AD_value
 700  035E  0081        	mov sbp,a
 700  035F  0701        	mov a,sbp
 700  0360  0D00     R  	or a,bank _reivce_data
 700  0361  0084        	mov bp,a
 700  0362  0702        	mov a,ir
 700  0363  0080     E  	mov rd,a
 700  0364  1483        	inc mp
 700  0365  0702        	mov a,ir
 700  0366  0080     E  	mov re,a
 700  0367  1483        	inc mp
 700  0368  0702        	mov a,ir
 700  0369  0080     E  	mov rf,a
 700  036A  1483        	inc mp
 700  036B  0702        	mov a,ir
 700  036C  0080     E  	mov rg,a
 700  036D  0F83        	mov a,low (offset _BLOOD_Package+3)
 700  036E  0083        	mov mp,a
 700  036F  0F02        	mov a,high (offset _BLOOD_Package+3)
 700  0370  0081        	mov sbp,a
 700  0371  0701        	mov a,sbp
 700  0372  0D00     R  	or a,bank _reivce_data
 700  0373  0084        	mov bp,a
 700  0374  0700     E  	mov a,re
 700  0375  0082        	mov ir,a
 703  0376              #line 703 "f:\work\血糖仪\a_bh45f67-旧版\4g\美国客户\make_lib\v1.0.01（5000套出货)-02\g-777g-usa-bg95eseye-2022-2-20\runTask.c"
 703  0376  0F02        	mov a,2
 703  0377  0383        	addm a,mp
 703  0378  0F00        	mov a,0
 703  0379  1381        	adcm a,sbp
 703  037A  0701        	mov a,sbp
 703  037B  0D00     R  	or a,bank _reivce_data
 703  037C  0084        	mov bp,a
 703  037D  0F4F        	mov a,79
 703  037E  0082        	mov ir,a
 704  037F              #line 704 "f:\work\血糖仪\a_bh45f67-旧版\4g\美国客户\make_lib\v1.0.01（5000套出货)-02\g-777g-usa-bg95eseye-2022-2-20\runTask.c"
 704  037F  1483        	inc mp
 704  0380  3D0A        	sz z
 704  0381  1481        	inc sbp
 704  0382  0701        	mov a,sbp
文件：runTask.c    编译器版本 HGASM 0202 页次53

 704  0383  0D00     R  	or a,bank _reivce_data
 704  0384  0084        	mov bp,a
 704  0385  0F4B        	mov a,75
 704  0386  0082        	mov ir,a
 705  0387              #line 705 "f:\work\血糖仪\a_bh45f67-旧版\4g\美国客户\make_lib\v1.0.01（5000套出货)-02\g-777g-usa-bg95eseye-2022-2-20\runTask.c"
 705  0387  0F07        	mov a,7
 705  0388  0080     E  	mov _Uart_Send_9600_2[2],a
 705  0389  0F80        	mov a,low offset _BLOOD_Package
 705  038A  0080     E  	mov _Uart_Send_9600_2[0],a
 705  038B  0F02        	mov a,high offset _BLOOD_Package
 705  038C  0080     E  	mov _Uart_Send_9600_2[1],a
 705  038D              	fcall _Uart_Send_9600
 706  0394              #line 706 "f:\work\血糖仪\a_bh45f67-旧版\4g\美国客户\make_lib\v1.0.01（5000套出货)-02\g-777g-usa-bg95eseye-2022-2-20\runTask.c"
 706  0394  0F07        	mov a,7
 706  0395  0080     E  	mov _Uart_Send_9600_2[2],a
 706  0396  0F80        	mov a,low offset _BLOOD_Package
 706  0397  0080     E  	mov _Uart_Send_9600_2[0],a
 706  0398  0F02        	mov a,high offset _BLOOD_Package
 706  0399  0080     E  	mov _Uart_Send_9600_2[1],a
 706  039A              	fcall _Uart_Send_9600
 707  03A1              #line 707 "f:\work\血糖仪\a_bh45f67-旧版\4g\美国客户\make_lib\v1.0.01（5000套出货)-02\g-777g-usa-bg95eseye-2022-2-20\runTask.c"
 707  03A1  0F88        	mov a,low (offset _SystemFlags+8)
 707  03A2  0083        	mov mp,a
 707  03A3  0F03        	mov a,high (offset _SystemFlags+8)
 707  03A4  0081        	mov sbp,a
 707  03A5  0701        	mov a,sbp
 707  03A6  0D00     R  	or a,bank _reivce_data
 707  03A7  0084        	mov bp,a
 707  03A8  0F03        	mov a,3
 707  03A9  0082        	mov ir,a
 708  03AA              #line 708 "f:\work\血糖仪\a_bh45f67-旧版\4g\美国客户\make_lib\v1.0.01（5000套出货)-02\g-777g-usa-bg95eseye-2022-2-20\runTask.c"
 708  03AA  2800     R  	jmp _L92
 708  03AB              _L96:
 710  03AB              #line 710 "f:\work\血糖仪\a_bh45f67-旧版\4g\美国客户\make_lib\v1.0.01（5000套出货)-02\g-777g-usa-bg95eseye-2022-2-20\runTask.c"
 710  03AB  1F00     E  	clr _get_lowPwd_2[0]
 710  03AC  0F03        	mov a,3
 710  03AD              	fcall _get_lowPwd
 711  03B4              #line 711 "f:\work\血糖仪\a_bh45f67-旧版\4g\美国客户\make_lib\v1.0.01（5000套出货)-02\g-777g-usa-bg95eseye-2022-2-20\runTask.c"
 711  03B4  1F00     E  	clr _get_lowPwd_2[0]
 711  03B5  0F03        	mov a,3
 711  03B6              	fcall _get_lowPwd
 713  03BD              #line 713 "f:\work\血糖仪\a_bh45f67-旧版\4g\美国客户\make_lib\v1.0.01（5000套出货)-02\g-777g-usa-bg95eseye-2022-2-20\runTask.c"
 713  03BD  0FF2        	mov a,low offset _AD_value
 713  03BE  0083        	mov mp,a
 713  03BF  0F03        	mov a,high offset _AD_value
 713  03C0  0081        	mov sbp,a
 713  03C1  0701        	mov a,sbp
 713  03C2  0D00     R  	or a,bank _reivce_data
 713  03C3  0084        	mov bp,a
 713  03C4  0702        	mov a,ir
 713  03C5  0080     E  	mov rd,a
 713  03C6  1483        	inc mp
 713  03C7  0702        	mov a,ir
 713  03C8  0080     E  	mov re,a
 713  03C9  1483        	inc mp
 713  03CA  0702        	mov a,ir
 713  03CB  0080     E  	mov rf,a
 713  03CC  1483        	inc mp
 713  03CD  0702        	mov a,ir
 713  03CE  0080     E  	mov rg,a
文件：runTask.c    编译器版本 HGASM 0202 页次54

 713  03CF  0700     E  	mov a,rg
 713  03D0  0080     E  	mov _builtin_holtek_mant12p[0],a
 713  03D1  0700     E  	mov a,rf
 713  03D2  0080     E  	mov _builtin_holtek_mant1[2],a
 713  03D3  0700     E  	mov a,re
 713  03D4  0080     E  	mov _builtin_holtek_mant1[1],a
 713  03D5  0700     E  	mov a,rd
 713  03D6  0080     E  	mov _builtin_holtek_mant1[0],a
 713  03D7  3400     E  	clr _builtin_holtek_signs.0
 713  03D8              	fcall _builtin_holtek_ultof
 713  03DF  0700     E  	mov a,_builtin_holtek_mant1[2]
 713  03E0  0080     E  	mov re,a
 713  03E1  0700     E  	mov a,_builtin_holtek_mant1[1]
 713  03E2  0080     E  	mov rd,a
 713  03E3  0700     E  	mov a,_builtin_holtek_mant1[0]
 713  03E4  0080     E  	mov rc,a
 714  03E5              #line 714 "f:\work\血糖仪\a_bh45f67-旧版\4g\美国客户\make_lib\v1.0.01（5000套出货)-02\g-777g-usa-bg95eseye-2022-2-20\runTask.c"
 714  03E5  0700     E  	mov a,rc
 714  03E6  0C00        	xor a,0
 714  03E7  0700     E  	mov a,rd
 714  03E8  3D0A        	sz z
 714  03E9  0CE5        	xor a,229
 714  03EA  0700     E  	mov a,re
 714  03EB  3D0A        	sz z
 714  03EC  0C44        	xor a,68
 714  03ED  3D0A        	sz z
 714  03EE  2800     R  	jmp _L120
 716  03EF              #line 716 "f:\work\血糖仪\a_bh45f67-旧版\4g\美国客户\make_lib\v1.0.01（5000套出货)-02\g-777g-usa-bg95eseye-2022-2-20\runTask.c"
 716  03EF  1F00     E  	clr rf
 716  03F0  0FE5        	mov a,-27
 716  03F1  0080     E  	mov rg,a
 716  03F2  0F44        	mov a,68
 716  03F3  0080     E  	mov rh,a
 716  03F4  0700     E  	mov a,rh
 716  03F5  0080     E  	mov _builtin_holtek_mant1[2],a
 716  03F6  0700     E  	mov a,rg
 716  03F7  0080     E  	mov _builtin_holtek_mant1[1],a
 716  03F8  0700     E  	mov a,rf
 716  03F9  0080     E  	mov _builtin_holtek_mant1[0],a
 716  03FA  0700     E  	mov a,re
 716  03FB  0080     E  	mov _builtin_holtek_mant2[2],a
 716  03FC  0700     E  	mov a,rd
 716  03FD  0080     E  	mov _builtin_holtek_mant2[1],a
 716  03FE  0700     E  	mov a,rc
 716  03FF  0080     E  	mov _builtin_holtek_mant2[0],a
 716  0400              	fcall _builtin_holtek_ftdiv
 716  0407  0700     E  	mov a,_builtin_holtek_mant1[2]
 716  0408  0080     E  	mov re,a
 716  0409  0700     E  	mov a,_builtin_holtek_mant1[1]
 716  040A  0080     E  	mov rd,a
 716  040B  0700     E  	mov a,_builtin_holtek_mant1[0]
 716  040C  0080     E  	mov rc,a
 716  040D  2800     R  	jmp _L109
 716  040E              _L120:
 720  040E              #line 720 "f:\work\血糖仪\a_bh45f67-旧版\4g\美国客户\make_lib\v1.0.01（5000套出货)-02\g-777g-usa-bg95eseye-2022-2-20\runTask.c"
 720  040E  1F00     E  	clr rc
 720  040F  0F80        	mov a,-128
 720  0410  0080     E  	mov rd,a
 720  0411  0F3F        	mov a,63
 720  0412  0080     E  	mov re,a
文件：runTask.c    编译器版本 HGASM 0202 页次55

 720  0413              _L109:
 722  0413              #line 722 "f:\work\血糖仪\a_bh45f67-旧版\4g\美国客户\make_lib\v1.0.01（5000套出货)-02\g-777g-usa-bg95eseye-2022-2-20\runTask.c"
 722  0413  0700     E  	mov a,re
 722  0414  0080     E  	mov _builtin_holtek_mant1[2],a
 722  0415  0700     E  	mov a,rd
 722  0416  0080     E  	mov _builtin_holtek_mant1[1],a
 722  0417  0700     E  	mov a,rc
 722  0418  0080     E  	mov _builtin_holtek_mant1[0],a
 722  0419  0F46        	mov a,70
 722  041A  0080     E  	mov _builtin_holtek_mant2[2],a
 722  041B  0F1C        	mov a,28
 722  041C  0080     E  	mov _builtin_holtek_mant2[1],a
 722  041D  0F40        	mov a,64
 722  041E  0080     E  	mov _builtin_holtek_mant2[0],a
 722  041F              	fcall _builtin_holtek_ftmul
 722  0426  0700     E  	mov a,_builtin_holtek_mant1[2]
 722  0427  0080     E  	mov re,a
 722  0428  0700     E  	mov a,_builtin_holtek_mant1[1]
 722  0429  0080     E  	mov rd,a
 722  042A  0700     E  	mov a,_builtin_holtek_mant1[0]
 722  042B  0080     E  	mov rc,a
 723  042C              #line 723 "f:\work\血糖仪\a_bh45f67-旧版\4g\美国客户\make_lib\v1.0.01（5000套出货)-02\g-777g-usa-bg95eseye-2022-2-20\runTask.c"
 723  042C  1F00     E  	clr _builtin_holtek_mant12p[0]
 723  042D  0700     E  	mov a,re
 723  042E  0080     E  	mov _builtin_holtek_mant1[2],a
 723  042F  0700     E  	mov a,rd
 723  0430  0080     E  	mov _builtin_holtek_mant1[1],a
 723  0431  0700     E  	mov a,rc
 723  0432  0080     E  	mov _builtin_holtek_mant1[0],a
 723  0433              	fcall _builtin_holtek_ftol
 723  043A  0700     E  	mov a,_builtin_holtek_mant12p[0]
 723  043B  0080     E  	mov rg,a
 723  043C  0700     E  	mov a,_builtin_holtek_mant1[2]
 723  043D  0080     E  	mov rf,a
 723  043E  0700     E  	mov a,_builtin_holtek_mant1[1]
 723  043F  0080     E  	mov re,a
 723  0440  0700     E  	mov a,_builtin_holtek_mant1[0]
 723  0441  0080     E  	mov rd,a
 723  0442  0FF8        	mov a,low offset _Pub_temp
 723  0443  0083        	mov mp,a
 723  0444  0F03        	mov a,high offset _Pub_temp
 723  0445  0081        	mov sbp,a
 723  0446  0701        	mov a,sbp
 723  0447  0D00     R  	or a,bank _reivce_data
 723  0448  0084        	mov bp,a
 723  0449  0700     E  	mov a,rd
 723  044A  0082        	mov ir,a
 723  044B  1483        	inc mp
 723  044C  0700     E  	mov a,re
 723  044D  0082        	mov ir,a
 724  044E              #line 724 "f:\work\血糖仪\a_bh45f67-旧版\4g\美国客户\make_lib\v1.0.01（5000套出货)-02\g-777g-usa-bg95eseye-2022-2-20\runTask.c"
 724  044E  0FF8        	mov a,low offset _Pub_temp
 724  044F  0083        	mov mp,a
 724  0450  0F03        	mov a,high offset _Pub_temp
 724  0451  0081        	mov sbp,a
 724  0452  0701        	mov a,sbp
 724  0453  0D00     R  	or a,bank _reivce_data
 724  0454  0084        	mov bp,a
 724  0455  0702        	mov a,ir
 724  0456  0080     E  	mov rb,a
文件：runTask.c    编译器版本 HGASM 0202 页次56

 724  0457  1483        	inc mp
 724  0458  0702        	mov a,ir
 724  0459  0080     E  	mov rc,a
 724  045A  1F00     E  	clr _builtin_holtek_udivmodhi4_2[6]
 724  045B  0700     E  	mov a,rb  
 724  045C  0080     E  	mov _builtin_holtek_udivmodhi4_2[0],a  
 724  045D  0700     E  	mov a,rc  
 724  045E  0080     E  	mov _builtin_holtek_udivmodhi4_2[1],a
 724  045F  0F0A        	mov a,10  
 724  0460  0080     E  	mov _builtin_holtek_udivmodhi4_2[2],a  
 724  0461  1F00     E  	clr _builtin_holtek_udivmodhi4_2[3]
 724  0462              	fcall _builtin_holtek_udivmodhi4
 724  0469  0700     E  	mov a,_builtin_holtek_udivmodhi4_2[4]  
 724  046A  0080     E  	mov rb,a  
 724  046B  0700     E  	mov a,_builtin_holtek_udivmodhi4_2[5]  
 724  046C  0080     E  	mov rc,a
 725  046D              #line 725 "f:\work\血糖仪\a_bh45f67-旧版\4g\美国客户\make_lib\v1.0.01（5000套出货)-02\g-777g-usa-bg95eseye-2022-2-20\runTask.c"
 725  046D  0F04        	mov a,4
 725  046E  0200     E  	sub a,rb
 725  046F  3C0A        	sz c
 725  0470  2800     R  	jmp _L110
 727  0471              #line 727 "f:\work\血糖仪\a_bh45f67-旧版\4g\美国客户\make_lib\v1.0.01（5000套出货)-02\g-777g-usa-bg95eseye-2022-2-20\runTask.c"
 727  0471  0FF8        	mov a,low offset _Pub_temp
 727  0472  0083        	mov mp,a
 727  0473  0F03        	mov a,high offset _Pub_temp
 727  0474  0081        	mov sbp,a
 727  0475  0701        	mov a,sbp
 727  0476  0D00     R  	or a,bank _reivce_data
 727  0477  0084        	mov bp,a
 727  0478  0702        	mov a,ir
 727  0479  0080     E  	mov rb,a
 727  047A  1483        	inc mp
 727  047B  0702        	mov a,ir
 727  047C  0080     E  	mov rc,a
 727  047D  0F0A        	mov a,10
 727  047E  0380     E  	addm a,rb
 727  047F  0F00        	mov a,0
 727  0480  1380     E  	adcm a,rc
 727  0481  0FF8        	mov a,low offset _Pub_temp
 727  0482  0083        	mov mp,a
 727  0483  0F03        	mov a,high offset _Pub_temp
 727  0484  0081        	mov sbp,a
 727  0485  0701        	mov a,sbp
 727  0486  0D00     R  	or a,bank _reivce_data
 727  0487  0084        	mov bp,a
 727  0488  0700     E  	mov a,rb
 727  0489  0082        	mov ir,a
 727  048A  1483        	inc mp
 727  048B  0700     E  	mov a,rc
 727  048C  0082        	mov ir,a
 727  048D              _L110:
 729  048D              #line 729 "f:\work\血糖仪\a_bh45f67-旧版\4g\美国客户\make_lib\v1.0.01（5000套出货)-02\g-777g-usa-bg95eseye-2022-2-20\runTask.c"
 729  048D  0FF8        	mov a,low offset _Pub_temp
 729  048E  0083        	mov mp,a
 729  048F  0F03        	mov a,high offset _Pub_temp
 729  0490  0081        	mov sbp,a
 729  0491  0701        	mov a,sbp
 729  0492  0D00     R  	or a,bank _reivce_data
 729  0493  0084        	mov bp,a
 729  0494  0702        	mov a,ir
文件：runTask.c    编译器版本 HGASM 0202 页次57

 729  0495  0080     E  	mov rb,a
 729  0496  1483        	inc mp
 729  0497  0702        	mov a,ir
 729  0498  0080     E  	mov rc,a
 729  0499  1F00     E  	clr _builtin_holtek_udivmodhi4_2[6]
 729  049A  0700     E  	mov a,rb  
 729  049B  0080     E  	mov _builtin_holtek_udivmodhi4_2[0],a  
 729  049C  0700     E  	mov a,rc  
 729  049D  0080     E  	mov _builtin_holtek_udivmodhi4_2[1],a
 729  049E  0F0A        	mov a,10  
 729  049F  0080     E  	mov _builtin_holtek_udivmodhi4_2[2],a  
 729  04A0  1F00     E  	clr _builtin_holtek_udivmodhi4_2[3]
 729  04A1              	fcall _builtin_holtek_udivmodhi4
 729  04A8  0700     E  	mov a,_builtin_holtek_udivmodhi4_2[0]  
 729  04A9  0080     E  	mov rb,a  
 729  04AA  0700     E  	mov a,_builtin_holtek_udivmodhi4_2[1]  
 729  04AB  0080     E  	mov rc,a
 729  04AC  0FF8        	mov a,low offset _Pub_temp
 729  04AD  0083        	mov mp,a
 729  04AE  0F03        	mov a,high offset _Pub_temp
 729  04AF  0081        	mov sbp,a
 729  04B0  0701        	mov a,sbp
 729  04B1  0D00     R  	or a,bank _reivce_data
 729  04B2  0084        	mov bp,a
 729  04B3  0700     E  	mov a,rb
 729  04B4  0082        	mov ir,a
 729  04B5  1483        	inc mp
 729  04B6  0700     E  	mov a,rc
 729  04B7  0082        	mov ir,a
 730  04B8              #line 730 "f:\work\血糖仪\a_bh45f67-旧版\4g\美国客户\make_lib\v1.0.01（5000套出货)-02\g-777g-usa-bg95eseye-2022-2-20\runTask.c"
 730  04B8  0F01        	mov a,1
 730  04B9  0080     E  	mov _get_lowPwd_2[0],a
 730  04BA  0F03        	mov a,3
 730  04BB              	fcall _get_lowPwd
 731  04C2              #line 731 "f:\work\血糖仪\a_bh45f67-旧版\4g\美国客户\make_lib\v1.0.01（5000套出货)-02\g-777g-usa-bg95eseye-2022-2-20\runTask.c"
 731  04C2  0F01        	mov a,1
 731  04C3  0080     E  	mov _get_lowPwd_2[0],a
 731  04C4  0F03        	mov a,3
 731  04C5              	fcall _get_lowPwd
 732  04CC              #line 732 "f:\work\血糖仪\a_bh45f67-旧版\4g\美国客户\make_lib\v1.0.01（5000套出货)-02\g-777g-usa-bg95eseye-2022-2-20\runTask.c"
 732  04CC  0F80        	mov a,low offset _BLOOD_Package
 732  04CD  0083        	mov mp,a
 732  04CE  0F02        	mov a,high offset _BLOOD_Package
 732  04CF  0081        	mov sbp,a
 732  04D0  0701        	mov a,sbp
 732  04D1  0D00     R  	or a,bank _reivce_data
 732  04D2  0084        	mov bp,a
 732  04D3  0F55        	mov a,85
 732  04D4  0082        	mov ir,a
 733  04D5              #line 733 "f:\work\血糖仪\a_bh45f67-旧版\4g\美国客户\make_lib\v1.0.01（5000套出货)-02\g-777g-usa-bg95eseye-2022-2-20\runTask.c"
 733  04D5  1483        	inc mp
 733  04D6  3D0A        	sz z
 733  04D7  1481        	inc sbp
 733  04D8  0701        	mov a,sbp
 733  04D9  0D00     R  	or a,bank _reivce_data
 733  04DA  0084        	mov bp,a
 733  04DB  0F07        	mov a,7
 733  04DC  0082        	mov ir,a
 734  04DD              #line 734 "f:\work\血糖仪\a_bh45f67-旧版\4g\美国客户\make_lib\v1.0.01（5000套出货)-02\g-777g-usa-bg95eseye-2022-2-20\runTask.c"
 734  04DD  1483        	inc mp
文件：runTask.c    编译器版本 HGASM 0202 页次58

 734  04DE  3D0A        	sz z
 734  04DF  1481        	inc sbp
 734  04E0  0701        	mov a,sbp
 734  04E1  0D00     R  	or a,bank _reivce_data
 734  04E2  0084        	mov bp,a
 734  04E3  0F04        	mov a,4
 734  04E4  0082        	mov ir,a
 735  04E5              #line 735 "f:\work\血糖仪\a_bh45f67-旧版\4g\美国客户\make_lib\v1.0.01（5000套出货)-02\g-777g-usa-bg95eseye-2022-2-20\runTask.c"
 735  04E5  0FF2        	mov a,low offset _AD_value
 735  04E6  0083        	mov mp,a
 735  04E7  0F03        	mov a,high offset _AD_value
 735  04E8  0081        	mov sbp,a
 735  04E9  0701        	mov a,sbp
 735  04EA  0D00     R  	or a,bank _reivce_data
 735  04EB  0084        	mov bp,a
 735  04EC  0702        	mov a,ir
 735  04ED  0080     E  	mov rd,a
 735  04EE  1483        	inc mp
 735  04EF  0702        	mov a,ir
 735  04F0  0080     E  	mov re,a
 735  04F1  1483        	inc mp
 735  04F2  0702        	mov a,ir
 735  04F3  0080     E  	mov rf,a
 735  04F4  1483        	inc mp
 735  04F5  0702        	mov a,ir
 735  04F6  0080     E  	mov rg,a
 735  04F7  0F84        	mov a,low (offset _BLOOD_Package+4)
 735  04F8  0083        	mov mp,a
 735  04F9  0F02        	mov a,high (offset _BLOOD_Package+4)
 735  04FA  0081        	mov sbp,a
 735  04FB  0701        	mov a,sbp
 735  04FC  0D00     R  	or a,bank _reivce_data
 735  04FD  0084        	mov bp,a
 735  04FE  0700     E  	mov a,rd
 735  04FF  0082        	mov ir,a
 736  0500              #line 736 "f:\work\血糖仪\a_bh45f67-旧版\4g\美国客户\make_lib\v1.0.01（5000套出货)-02\g-777g-usa-bg95eseye-2022-2-20\runTask.c"
 736  0500  0FF2        	mov a,low offset _AD_value
 736  0501  0083        	mov mp,a
 736  0502  0F03        	mov a,high offset _AD_value
 736  0503  0081        	mov sbp,a
 736  0504  0701        	mov a,sbp
 736  0505  0D00     R  	or a,bank _reivce_data
 736  0506  0084        	mov bp,a
 736  0507  0702        	mov a,ir
 736  0508  0080     E  	mov rd,a
 736  0509  1483        	inc mp
 736  050A  0702        	mov a,ir
 736  050B  0080     E  	mov re,a
 736  050C  1483        	inc mp
 736  050D  0702        	mov a,ir
 736  050E  0080     E  	mov rf,a
 736  050F  1483        	inc mp
 736  0510  0702        	mov a,ir
 736  0511  0080     E  	mov rg,a
 736  0512  0F83        	mov a,low (offset _BLOOD_Package+3)
 736  0513  0083        	mov mp,a
 736  0514  0F02        	mov a,high (offset _BLOOD_Package+3)
 736  0515  0081        	mov sbp,a
 736  0516  0701        	mov a,sbp
 736  0517  0D00     R  	or a,bank _reivce_data
文件：runTask.c    编译器版本 HGASM 0202 页次59

 736  0518  0084        	mov bp,a
 736  0519  0700     E  	mov a,re
 736  051A  0082        	mov ir,a
 737  051B              #line 737 "f:\work\血糖仪\a_bh45f67-旧版\4g\美国客户\make_lib\v1.0.01（5000套出货)-02\g-777g-usa-bg95eseye-2022-2-20\runTask.c"
 737  051B  0F02        	mov a,2
 737  051C  0383        	addm a,mp
 737  051D  0F00        	mov a,0
 737  051E  1381        	adcm a,sbp
 737  051F  0701        	mov a,sbp
 737  0520  0D00     R  	or a,bank _reivce_data
 737  0521  0084        	mov bp,a
 737  0522  0F4F        	mov a,79
 737  0523  0082        	mov ir,a
 738  0524              #line 738 "f:\work\血糖仪\a_bh45f67-旧版\4g\美国客户\make_lib\v1.0.01（5000套出货)-02\g-777g-usa-bg95eseye-2022-2-20\runTask.c"
 738  0524  1483        	inc mp
 738  0525  3D0A        	sz z
 738  0526  1481        	inc sbp
 738  0527  0701        	mov a,sbp
 738  0528  0D00     R  	or a,bank _reivce_data
 738  0529  0084        	mov bp,a
 738  052A  0F4B        	mov a,75
 738  052B  0082        	mov ir,a
 739  052C              #line 739 "f:\work\血糖仪\a_bh45f67-旧版\4g\美国客户\make_lib\v1.0.01（5000套出货)-02\g-777g-usa-bg95eseye-2022-2-20\runTask.c"
 739  052C  0F07        	mov a,7
 739  052D  0080     E  	mov _Uart_Send_9600_2[2],a
 739  052E  0F80        	mov a,low offset _BLOOD_Package
 739  052F  0080     E  	mov _Uart_Send_9600_2[0],a
 739  0530  0F02        	mov a,high offset _BLOOD_Package
 739  0531  0080     E  	mov _Uart_Send_9600_2[1],a
 739  0532              	fcall _Uart_Send_9600
 740  0539              #line 740 "f:\work\血糖仪\a_bh45f67-旧版\4g\美国客户\make_lib\v1.0.01（5000套出货)-02\g-777g-usa-bg95eseye-2022-2-20\runTask.c"
 740  0539  0FF2        	mov a,low offset _AD_value
 740  053A  0083        	mov mp,a
 740  053B  0F03        	mov a,high offset _AD_value
 740  053C  0081        	mov sbp,a
 740  053D  0701        	mov a,sbp
 740  053E  0D00     R  	or a,bank _reivce_data
 740  053F  0084        	mov bp,a
 740  0540  0702        	mov a,ir
 740  0541  0080     E  	mov rd,a
 740  0542  1483        	inc mp
 740  0543  0702        	mov a,ir
 740  0544  0080     E  	mov re,a
 740  0545  1483        	inc mp
 740  0546  0702        	mov a,ir
 740  0547  0080     E  	mov rf,a
 740  0548  1483        	inc mp
 740  0549  0702        	mov a,ir
 740  054A  0080     E  	mov rg,a
 740  054B  0F25        	mov a,37
 740  054C  0200     E  	sub a,rd
 740  054D  0F07        	mov a,7
 740  054E  1200     E  	sbc a,re
 740  054F  0F00        	mov a,0
 740  0550  1200     E  	sbc a,rf
 740  0551  0F00        	mov a,0
 740  0552  1200     E  	sbc a,rg
 740  0553  3C0A        	sz c
 740  0554  2800     R  	jmp _L92
 740  0555  0FF2        	mov a,low offset _AD_value
文件：runTask.c    编译器版本 HGASM 0202 页次60

 740  0556  0083        	mov mp,a
 740  0557  0F03        	mov a,high offset _AD_value
 740  0558  0081        	mov sbp,a
 740  0559  0701        	mov a,sbp
 740  055A  0D00     R  	or a,bank _reivce_data
 740  055B  0084        	mov bp,a
 740  055C  0702        	mov a,ir
 740  055D  0080     E  	mov rd,a
 740  055E  1483        	inc mp
 740  055F  0702        	mov a,ir
 740  0560  0080     E  	mov re,a
 740  0561  1483        	inc mp
 740  0562  0702        	mov a,ir
 740  0563  0080     E  	mov rf,a
 740  0564  1483        	inc mp
 740  0565  0702        	mov a,ir
 740  0566  0080     E  	mov rg,a
 740  0567  0F2E        	mov a,46
 740  0568  0200     E  	sub a,rd
 740  0569  0F07        	mov a,7
 740  056A  1200     E  	sbc a,re
 740  056B  0F00        	mov a,0
 740  056C  1200     E  	sbc a,rf
 740  056D  0F00        	mov a,0
 740  056E  1200     E  	sbc a,rg
 740  056F  380A        	snz c
 740  0570  2800     R  	jmp _L92
 742  0571              #line 742 "f:\work\血糖仪\a_bh45f67-旧版\4g\美国客户\make_lib\v1.0.01（5000套出货)-02\g-777g-usa-bg95eseye-2022-2-20\runTask.c"
 742  0571  0F88        	mov a,low (offset _SystemFlags+8)
 742  0572  0083        	mov mp,a
 742  0573  0F03        	mov a,high (offset _SystemFlags+8)
 742  0574  0081        	mov sbp,a
 742  0575  0701        	mov a,sbp
 742  0576  0D00     R  	or a,bank _reivce_data
 742  0577  0084        	mov bp,a
 742  0578  0F03        	mov a,3
 742  0579  0082        	mov ir,a
 743  057A              #line 743 "f:\work\血糖仪\a_bh45f67-旧版\4g\美国客户\make_lib\v1.0.01（5000套出货)-02\g-777g-usa-bg95eseye-2022-2-20\runTask.c"
 743  057A  0F01        	mov a,1
 743  057B  0080     E  	mov _uart_init_2[0],a
 743  057C  1F00     E  	clr _uart_init_2[1]
 743  057D              	fcall _uart_init
 744  0584              #line 744 "f:\work\血糖仪\a_bh45f67-旧版\4g\美国客户\make_lib\v1.0.01（5000套出货)-02\g-777g-usa-bg95eseye-2022-2-20\runTask.c"
 744  0584  339A        	set [26].7
 745  0585              #line 745 "f:\work\血糖仪\a_bh45f67-旧版\4g\美国客户\make_lib\v1.0.01（5000套出货)-02\g-777g-usa-bg95eseye-2022-2-20\runTask.c"
 745  0585  331A        	set [26].6
 746  0586              #line 746 "f:\work\血糖仪\a_bh45f67-旧版\4g\美国客户\make_lib\v1.0.01（5000套出货)-02\g-777g-usa-bg95eseye-2022-2-20\runTask.c"
 746  0586              ;# 746 "f:\work\血糖仪\a_bh45f67-旧版\4g\美国客户\make_lib\v1.0.01（5000套出货)-02\g-777g-usa-bg95eseye-2022-2-20\runTask.c" 1
 746  0586  0001        	clr wdt
 747  0587              #line 747 "f:\work\血糖仪\a_bh45f67-旧版\4g\美国客户\make_lib\v1.0.01（5000套出货)-02\g-777g-usa-bg95eseye-2022-2-20\runTask.c"
 747  0587  0F20        	mov a,32
 747  0588  0080     E  	mov _me_delay_ms_2[0],a
 747  0589  0F03        	mov a,3
 747  058A  0080     E  	mov _me_delay_ms_2[1],a
 747  058B              	fcall _me_delay_ms
 748  0592              #line 748 "f:\work\血糖仪\a_bh45f67-旧版\4g\美国客户\make_lib\v1.0.01（5000套出货)-02\g-777g-usa-bg95eseye-2022-2-20\runTask.c"
 748  0592              ;# 748 "f:\work\血糖仪\a_bh45f67-旧版\4g\美国客户\make_lib\v1.0.01（5000套出货)-02\g-777g-usa-bg95eseye-2022-2-20\runTask.c" 1
 748  0592  0001        	clr wdt
 749  0593              #line 749 "f:\work\血糖仪\a_bh45f67-旧版\4g\美国客户\make_lib\v1.0.01（5000套出货)-02\g-777g-usa-bg95eseye-2022-2-20\runTask.c"
 749  0593  0F20        	mov a,32
文件：runTask.c    编译器版本 HGASM 0202 页次61

 749  0594  0080     E  	mov _me_delay_ms_2[0],a
 749  0595  0F03        	mov a,3
 749  0596  0080     E  	mov _me_delay_ms_2[1],a
 749  0597              	fcall _me_delay_ms
 750  059E              #line 750 "f:\work\血糖仪\a_bh45f67-旧版\4g\美国客户\make_lib\v1.0.01（5000套出货)-02\g-777g-usa-bg95eseye-2022-2-20\runTask.c"
 750  059E              ;# 750 "f:\work\血糖仪\a_bh45f67-旧版\4g\美国客户\make_lib\v1.0.01（5000套出货)-02\g-777g-usa-bg95eseye-2022-2-20\runTask.c" 1
 750  059E  0001        	clr wdt
 751  059F              #line 751 "f:\work\血糖仪\a_bh45f67-旧版\4g\美国客户\make_lib\v1.0.01（5000套出货)-02\g-777g-usa-bg95eseye-2022-2-20\runTask.c"
 751  059F  0F90        	mov a,-112
 751  05A0  0080     E  	mov _me_delay_ms_2[0],a
 751  05A1  0F01        	mov a,1
 751  05A2  0080     E  	mov _me_delay_ms_2[1],a
 751  05A3              	fcall _me_delay_ms
 752  05AA              #line 752 "f:\work\血糖仪\a_bh45f67-旧版\4g\美国客户\make_lib\v1.0.01（5000套出货)-02\g-777g-usa-bg95eseye-2022-2-20\runTask.c"
 752  05AA              ;# 752 "f:\work\血糖仪\a_bh45f67-旧版\4g\美国客户\make_lib\v1.0.01（5000套出货)-02\g-777g-usa-bg95eseye-2022-2-20\runTask.c" 1
 752  05AA  0001        	clr wdt
 752  05AB  2800     R  	jmp _L92
 752  05AC              _L97:
 762  05AC              #line 762 "f:\work\血糖仪\a_bh45f67-旧版\4g\美国客户\make_lib\v1.0.01（5000套出货)-02\g-777g-usa-bg95eseye-2022-2-20\runTask.c"
 762  05AC  0F80        	mov a,low offset _BLOOD_Package
 762  05AD  0083        	mov mp,a
 762  05AE  0F02        	mov a,high offset _BLOOD_Package
 762  05AF  0081        	mov sbp,a
 762  05B0  0701        	mov a,sbp
 762  05B1  0D00     R  	or a,bank _reivce_data
 762  05B2  0084        	mov bp,a
 762  05B3  0F55        	mov a,85
 762  05B4  0082        	mov ir,a
 763  05B5              #line 763 "f:\work\血糖仪\a_bh45f67-旧版\4g\美国客户\make_lib\v1.0.01（5000套出货)-02\g-777g-usa-bg95eseye-2022-2-20\runTask.c"
 763  05B5  1483        	inc mp
 763  05B6  3D0A        	sz z
 763  05B7  1481        	inc sbp
 763  05B8  0701        	mov a,sbp
 763  05B9  0D00     R  	or a,bank _reivce_data
 763  05BA  0084        	mov bp,a
 763  05BB  0F06        	mov a,6
 763  05BC  0082        	mov ir,a
 764  05BD              #line 764 "f:\work\血糖仪\a_bh45f67-旧版\4g\美国客户\make_lib\v1.0.01（5000套出货)-02\g-777g-usa-bg95eseye-2022-2-20\runTask.c"
 764  05BD  1483        	inc mp
 764  05BE  3D0A        	sz z
 764  05BF  1481        	inc sbp
 764  05C0  0701        	mov a,sbp
 764  05C1  0D00     R  	or a,bank _reivce_data
 764  05C2  0084        	mov bp,a
 764  05C3  0F05        	mov a,5
 764  05C4  0082        	mov ir,a
 765  05C5              #line 765 "f:\work\血糖仪\a_bh45f67-旧版\4g\美国客户\make_lib\v1.0.01（5000套出货)-02\g-777g-usa-bg95eseye-2022-2-20\runTask.c"
 765  05C5  1483        	inc mp
 765  05C6  3D0A        	sz z
 765  05C7  1481        	inc sbp
 765  05C8  0701        	mov a,sbp
 765  05C9  0D00     R  	or a,bank _reivce_data
 765  05CA  0084        	mov bp,a
 765  05CB  0F0F        	mov a,15
 765  05CC  0082        	mov ir,a
 766  05CD              #line 766 "f:\work\血糖仪\a_bh45f67-旧版\4g\美国客户\make_lib\v1.0.01（5000套出货)-02\g-777g-usa-bg95eseye-2022-2-20\runTask.c"
 766  05CD  1483        	inc mp
 766  05CE  3D0A        	sz z
 766  05CF  1481        	inc sbp
 766  05D0  0701        	mov a,sbp
文件：runTask.c    编译器版本 HGASM 0202 页次62

 766  05D1  0D00     R  	or a,bank _reivce_data
 766  05D2  0084        	mov bp,a
 766  05D3  0F4F        	mov a,79
 766  05D4  0082        	mov ir,a
 767  05D5              #line 767 "f:\work\血糖仪\a_bh45f67-旧版\4g\美国客户\make_lib\v1.0.01（5000套出货)-02\g-777g-usa-bg95eseye-2022-2-20\runTask.c"
 767  05D5  1483        	inc mp
 767  05D6  3D0A        	sz z
 767  05D7  1481        	inc sbp
 767  05D8  0701        	mov a,sbp
 767  05D9  0D00     R  	or a,bank _reivce_data
 767  05DA  0084        	mov bp,a
 767  05DB  0F4B        	mov a,75
 767  05DC  0082        	mov ir,a
 768  05DD              #line 768 "f:\work\血糖仪\a_bh45f67-旧版\4g\美国客户\make_lib\v1.0.01（5000套出货)-02\g-777g-usa-bg95eseye-2022-2-20\runTask.c"
 768  05DD  0F06        	mov a,6
 768  05DE  0080     E  	mov _Uart_Send_9600_2[2],a
 768  05DF  0F80        	mov a,low offset _BLOOD_Package
 768  05E0  0080     E  	mov _Uart_Send_9600_2[0],a
 768  05E1  0F02        	mov a,high offset _BLOOD_Package
 768  05E2  0080     E  	mov _Uart_Send_9600_2[1],a
 768  05E3              	fcall _Uart_Send_9600
 769  05EA              #line 769 "f:\work\血糖仪\a_bh45f67-旧版\4g\美国客户\make_lib\v1.0.01（5000套出货)-02\g-777g-usa-bg95eseye-2022-2-20\runTask.c"
 769  05EA  0F64        	mov a,100
 769  05EB  0080     E  	mov _me_delay_ms_2[0],a
 769  05EC  1F00     E  	clr _me_delay_ms_2[1]
 769  05ED              	fcall _me_delay_ms
 770  05F4              #line 770 "f:\work\血糖仪\a_bh45f67-旧版\4g\美国客户\make_lib\v1.0.01（5000套出货)-02\g-777g-usa-bg95eseye-2022-2-20\runTask.c"
 770  05F4  0F06        	mov a,6
 770  05F5  0080     E  	mov _Uart_Send_9600_2[2],a
 770  05F6  0F80        	mov a,low offset _BLOOD_Package
 770  05F7  0080     E  	mov _Uart_Send_9600_2[0],a
 770  05F8  0F02        	mov a,high offset _BLOOD_Package
 770  05F9  0080     E  	mov _Uart_Send_9600_2[1],a
 770  05FA              	fcall _Uart_Send_9600
 771  0601              #line 771 "f:\work\血糖仪\a_bh45f67-旧版\4g\美国客户\make_lib\v1.0.01（5000套出货)-02\g-777g-usa-bg95eseye-2022-2-20\runTask.c"
 771  0601  0F88        	mov a,low (offset _SystemFlags+8)
 771  0602  0083        	mov mp,a
 771  0603  0F03        	mov a,high (offset _SystemFlags+8)
 771  0604  0081        	mov sbp,a
 771  0605  0701        	mov a,sbp
 771  0606  0D00     R  	or a,bank _reivce_data
 771  0607  0084        	mov bp,a
 771  0608  0F16        	mov a,22
 771  0609  0082        	mov ir,a
 774  060A              #line 774 "f:\work\血糖仪\a_bh45f67-旧版\4g\美国客户\make_lib\v1.0.01（5000套出货)-02\g-777g-usa-bg95eseye-2022-2-20\runTask.c"
 774  060A  2800     R  	jmp _L92
 774  060B              _L98:
 776  060B              #line 776 "f:\work\血糖仪\a_bh45f67-旧版\4g\美国客户\make_lib\v1.0.01（5000套出货)-02\g-777g-usa-bg95eseye-2022-2-20\runTask.c"
 776  060B  0FDB        	mov a,low offset _test_buff
 776  060C  0083        	mov mp,a
 776  060D  0F03        	mov a,high offset _test_buff
 776  060E  0081        	mov sbp,a
 776  060F  0701        	mov a,sbp
 776  0610  0D00     R  	or a,bank _reivce_data
 776  0611  0084        	mov bp,a
 776  0612  0F00        	mov a,0
 776  0613  0082        	mov ir,a
 776  0614  0F15        	mov a,21
 776  0615  0080     E  	mov ra,a
 777  0616              #line 777 "f:\work\血糖仪\a_bh45f67-旧版\4g\美国客户\make_lib\v1.0.01（5000套出货)-02\g-777g-usa-bg95eseye-2022-2-20\runTask.c"
文件：runTask.c    编译器版本 HGASM 0202 页次63

 777  0616  1F00     E  	clr rb
 777  0617              _L112:
 779  0617              #line 779 "f:\work\血糖仪\a_bh45f67-旧版\4g\美国客户\make_lib\v1.0.01（5000套出货)-02\g-777g-usa-bg95eseye-2022-2-20\runTask.c"
 779  0617  0FDB        	mov a,low offset _test_buff
 779  0618  0083        	mov mp,a
 779  0619  0F03        	mov a,high offset _test_buff
 779  061A  0081        	mov sbp,a
 779  061B  0701        	mov a,sbp
 779  061C  0D00     R  	or a,bank _reivce_data
 779  061D  0084        	mov bp,a
 779  061E  0702        	mov a,ir
 779  061F  0080     E  	mov rc,a
 779  0620  0F80        	mov a,low offset _BLOOD_Package
 779  0621  0300     E  	add a,rb
 779  0622  0083        	mov mp,a
 779  0623  0F02        	mov a,high offset _BLOOD_Package
 779  0624  1F01        	clr sbp
 779  0625  1381        	adcm a,sbp
 779  0626              	fcall _Crom2Prom
 779  062D  0080     E  	mov rd,a
 779  062E  0700     E  	mov a,rd
 779  062F  0380     E  	addm a,rc
 779  0630  0FDB        	mov a,low offset _test_buff
 779  0631  0083        	mov mp,a
 779  0632  0F03        	mov a,high offset _test_buff
 779  0633  0081        	mov sbp,a
 779  0634  0701        	mov a,sbp
 779  0635  0D00     R  	or a,bank _reivce_data
 779  0636  0084        	mov bp,a
 779  0637  0700     E  	mov a,rc
 779  0638  0082        	mov ir,a
 777  0639              #line 777 "f:\work\血糖仪\a_bh45f67-旧版\4g\美国客户\make_lib\v1.0.01（5000套出货)-02\g-777g-usa-bg95eseye-2022-2-20\runTask.c"
 777  0639  1480     E  	inc rb
 777  063A  1780     E  	sdz ra
 777  063B  2800     R  	jmp _L112
 781  063C              #line 781 "f:\work\血糖仪\a_bh45f67-旧版\4g\美国客户\make_lib\v1.0.01（5000套出货)-02\g-777g-usa-bg95eseye-2022-2-20\runTask.c"
 781  063C  0F95        	mov a,low (offset _BLOOD_Package+21)
 781  063D  0083        	mov mp,a
 781  063E  0F02        	mov a,high (offset _BLOOD_Package+21)
 781  063F  0081        	mov sbp,a
 781  0640  0701        	mov a,sbp
 781  0641  0D00     R  	or a,bank _reivce_data
 781  0642  0084        	mov bp,a
 781  0643  0702        	mov a,ir
 781  0644  0080     E  	mov rb,a
 781  0645  0700     E  	mov a,rb
 781  0646  0200     E  	sub a,rc
 781  0647  390A        	snz z
 781  0648  2800     R  	jmp _L92
 783  0649              #line 783 "f:\work\血糖仪\a_bh45f67-旧版\4g\美国客户\make_lib\v1.0.01（5000套出货)-02\g-777g-usa-bg95eseye-2022-2-20\runTask.c"
 783  0649  0F83        	mov a,low (offset _BLOOD_Package+3)
 783  064A  0083        	mov mp,a
 783  064B  0F02        	mov a,high (offset _BLOOD_Package+3)
 783  064C  0081        	mov sbp,a
 783  064D  0701        	mov a,sbp
 783  064E  0D00     R  	or a,bank _reivce_data
 783  064F  0084        	mov bp,a
 783  0650  0702        	mov a,ir
 783  0651  0080     E  	mov ra,a
 783  0652  0FDB        	mov a,low offset _test_buff
文件：runTask.c    编译器版本 HGASM 0202 页次64

 783  0653  0083        	mov mp,a
 783  0654  0F03        	mov a,high offset _test_buff
 783  0655  0081        	mov sbp,a
 783  0656  0701        	mov a,sbp
 783  0657  0D00     R  	or a,bank _reivce_data
 783  0658  0084        	mov bp,a
 783  0659  0700     E  	mov a,ra
 783  065A  0082        	mov ir,a
 784  065B              #line 784 "f:\work\血糖仪\a_bh45f67-旧版\4g\美国客户\make_lib\v1.0.01（5000套出货)-02\g-777g-usa-bg95eseye-2022-2-20\runTask.c"
 784  065B  0F84        	mov a,low (offset _BLOOD_Package+4)
 784  065C  0083        	mov mp,a
 784  065D  0F02        	mov a,high (offset _BLOOD_Package+4)
 784  065E  0081        	mov sbp,a
 784  065F  0701        	mov a,sbp
 784  0660  0D00     R  	or a,bank _reivce_data
 784  0661  0084        	mov bp,a
 784  0662  0702        	mov a,ir
 784  0663  0080     E  	mov ra,a
 784  0664  0FDC        	mov a,low (offset _test_buff+1)
 784  0665  0083        	mov mp,a
 784  0666  0F03        	mov a,high (offset _test_buff+1)
 784  0667  0081        	mov sbp,a
 784  0668  0701        	mov a,sbp
 784  0669  0D00     R  	or a,bank _reivce_data
 784  066A  0084        	mov bp,a
 784  066B  0700     E  	mov a,ra
 784  066C  0082        	mov ir,a
 785  066D              #line 785 "f:\work\血糖仪\a_bh45f67-旧版\4g\美国客户\make_lib\v1.0.01（5000套出货)-02\g-777g-usa-bg95eseye-2022-2-20\runTask.c"
 785  066D  0F85        	mov a,low (offset _BLOOD_Package+5)
 785  066E  0083        	mov mp,a
 785  066F  0F02        	mov a,high (offset _BLOOD_Package+5)
 785  0670  0081        	mov sbp,a
 785  0671  0701        	mov a,sbp
 785  0672  0D00     R  	or a,bank _reivce_data
 785  0673  0084        	mov bp,a
 785  0674  0702        	mov a,ir
 785  0675  0080     E  	mov ra,a
 785  0676  0FDD        	mov a,low (offset _test_buff+2)
 785  0677  0083        	mov mp,a
 785  0678  0F03        	mov a,high (offset _test_buff+2)
 785  0679  0081        	mov sbp,a
 785  067A  0701        	mov a,sbp
 785  067B  0D00     R  	or a,bank _reivce_data
 785  067C  0084        	mov bp,a
 785  067D  0700     E  	mov a,ra
 785  067E  0082        	mov ir,a
 786  067F              #line 786 "f:\work\血糖仪\a_bh45f67-旧版\4g\美国客户\make_lib\v1.0.01（5000套出货)-02\g-777g-usa-bg95eseye-2022-2-20\runTask.c"
 786  067F  0F86        	mov a,low (offset _BLOOD_Package+6)
 786  0680  0083        	mov mp,a
 786  0681  0F02        	mov a,high (offset _BLOOD_Package+6)
 786  0682  0081        	mov sbp,a
 786  0683  0701        	mov a,sbp
 786  0684  0D00     R  	or a,bank _reivce_data
 786  0685  0084        	mov bp,a
 786  0686  0702        	mov a,ir
 786  0687  0080     E  	mov ra,a
 786  0688  0FDE        	mov a,low (offset _test_buff+3)
 786  0689  0083        	mov mp,a
 786  068A  0F03        	mov a,high (offset _test_buff+3)
 786  068B  0081        	mov sbp,a
文件：runTask.c    编译器版本 HGASM 0202 页次65

 786  068C  0701        	mov a,sbp
 786  068D  0D00     R  	or a,bank _reivce_data
 786  068E  0084        	mov bp,a
 786  068F  0700     E  	mov a,ra
 786  0690  0082        	mov ir,a
 787  0691              #line 787 "f:\work\血糖仪\a_bh45f67-旧版\4g\美国客户\make_lib\v1.0.01（5000套出货)-02\g-777g-usa-bg95eseye-2022-2-20\runTask.c"
 787  0691  0F87        	mov a,low (offset _BLOOD_Package+7)
 787  0692  0083        	mov mp,a
 787  0693  0F02        	mov a,high (offset _BLOOD_Package+7)
 787  0694  0081        	mov sbp,a
 787  0695  0701        	mov a,sbp
 787  0696  0D00     R  	or a,bank _reivce_data
 787  0697  0084        	mov bp,a
 787  0698  0702        	mov a,ir
 787  0699  0080     E  	mov ra,a
 787  069A  0FDF        	mov a,low (offset _test_buff+4)
 787  069B  0083        	mov mp,a
 787  069C  0F03        	mov a,high (offset _test_buff+4)
 787  069D  0081        	mov sbp,a
 787  069E  0701        	mov a,sbp
 787  069F  0D00     R  	or a,bank _reivce_data
 787  06A0  0084        	mov bp,a
 787  06A1  0700     E  	mov a,ra
 787  06A2  0082        	mov ir,a
 788  06A3              #line 788 "f:\work\血糖仪\a_bh45f67-旧版\4g\美国客户\make_lib\v1.0.01（5000套出货)-02\g-777g-usa-bg95eseye-2022-2-20\runTask.c"
 788  06A3  0F93        	mov a,low (offset _BLOOD_Package+19)
 788  06A4  0083        	mov mp,a
 788  06A5  0F02        	mov a,high (offset _BLOOD_Package+19)
 788  06A6  0081        	mov sbp,a
 788  06A7  0701        	mov a,sbp
 788  06A8  0D00     R  	or a,bank _reivce_data
 788  06A9  0084        	mov bp,a
 788  06AA  0702        	mov a,ir
 788  06AB  0080     E  	mov ra,a
 788  06AC  0FE0        	mov a,low (offset _test_buff+5)
 788  06AD  0083        	mov mp,a
 788  06AE  0F03        	mov a,high (offset _test_buff+5)
 788  06AF  0081        	mov sbp,a
 788  06B0  0701        	mov a,sbp
 788  06B1  0D00     R  	or a,bank _reivce_data
 788  06B2  0084        	mov bp,a
 788  06B3  0700     E  	mov a,ra
 788  06B4  0082        	mov ir,a
 789  06B5              #line 789 "f:\work\血糖仪\a_bh45f67-旧版\4g\美国客户\make_lib\v1.0.01（5000套出货)-02\g-777g-usa-bg95eseye-2022-2-20\runTask.c"
 789  06B5  0F94        	mov a,low (offset _BLOOD_Package+20)
 789  06B6  0083        	mov mp,a
 789  06B7  0F02        	mov a,high (offset _BLOOD_Package+20)
 789  06B8  0081        	mov sbp,a
 789  06B9  0701        	mov a,sbp
 789  06BA  0D00     R  	or a,bank _reivce_data
 789  06BB  0084        	mov bp,a
 789  06BC  0702        	mov a,ir
 789  06BD  0080     E  	mov ra,a
 789  06BE  0FE1        	mov a,low (offset _test_buff+6)
 789  06BF  0083        	mov mp,a
 789  06C0  0F03        	mov a,high (offset _test_buff+6)
 789  06C1  0081        	mov sbp,a
 789  06C2  0701        	mov a,sbp
 789  06C3  0D00     R  	or a,bank _reivce_data
 789  06C4  0084        	mov bp,a
文件：runTask.c    编译器版本 HGASM 0202 页次66

 789  06C5  0700     E  	mov a,ra
 789  06C6  0082        	mov ir,a
 791  06C7              #line 791 "f:\work\血糖仪\a_bh45f67-旧版\4g\美国客户\make_lib\v1.0.01（5000套出货)-02\g-777g-usa-bg95eseye-2022-2-20\runTask.c"
 791  06C7  0F8F        	mov a,low (offset _BLOOD_Package+15)
 791  06C8  0083        	mov mp,a
 791  06C9  0F02        	mov a,high (offset _BLOOD_Package+15)
 791  06CA  0081        	mov sbp,a
 791  06CB  0701        	mov a,sbp
 791  06CC  0D00     R  	or a,bank _reivce_data
 791  06CD  0084        	mov bp,a
 791  06CE  0702        	mov a,ir
 791  06CF  0080     E  	mov ra,a
 791  06D0  0FE2        	mov a,low (offset _test_buff+7)
 791  06D1  0083        	mov mp,a
 791  06D2  0F03        	mov a,high (offset _test_buff+7)
 791  06D3  0081        	mov sbp,a
 791  06D4  0701        	mov a,sbp
 791  06D5  0D00     R  	or a,bank _reivce_data
 791  06D6  0084        	mov bp,a
 791  06D7  0700     E  	mov a,ra
 791  06D8  0082        	mov ir,a
 792  06D9              #line 792 "f:\work\血糖仪\a_bh45f67-旧版\4g\美国客户\make_lib\v1.0.01（5000套出货)-02\g-777g-usa-bg95eseye-2022-2-20\runTask.c"
 792  06D9  0F90        	mov a,low (offset _BLOOD_Package+16)
 792  06DA  0083        	mov mp,a
 792  06DB  0F02        	mov a,high (offset _BLOOD_Package+16)
 792  06DC  0081        	mov sbp,a
 792  06DD  0701        	mov a,sbp
 792  06DE  0D00     R  	or a,bank _reivce_data
 792  06DF  0084        	mov bp,a
 792  06E0  0702        	mov a,ir
 792  06E1  0080     E  	mov ra,a
 792  06E2  0FE3        	mov a,low (offset _test_buff+8)
 792  06E3  0083        	mov mp,a
 792  06E4  0F03        	mov a,high (offset _test_buff+8)
 792  06E5  0081        	mov sbp,a
 792  06E6  0701        	mov a,sbp
 792  06E7  0D00     R  	or a,bank _reivce_data
 792  06E8  0084        	mov bp,a
 792  06E9  0700     E  	mov a,ra
 792  06EA  0082        	mov ir,a
 793  06EB              #line 793 "f:\work\血糖仪\a_bh45f67-旧版\4g\美国客户\make_lib\v1.0.01（5000套出货)-02\g-777g-usa-bg95eseye-2022-2-20\runTask.c"
 793  06EB  0F91        	mov a,low (offset _BLOOD_Package+17)
 793  06EC  0083        	mov mp,a
 793  06ED  0F02        	mov a,high (offset _BLOOD_Package+17)
 793  06EE  0081        	mov sbp,a
 793  06EF  0701        	mov a,sbp
 793  06F0  0D00     R  	or a,bank _reivce_data
 793  06F1  0084        	mov bp,a
 793  06F2  0702        	mov a,ir
 793  06F3  0080     E  	mov ra,a
 793  06F4  0FE4        	mov a,low (offset _test_buff+9)
 793  06F5  0083        	mov mp,a
 793  06F6  0F03        	mov a,high (offset _test_buff+9)
 793  06F7  0081        	mov sbp,a
 793  06F8  0701        	mov a,sbp
 793  06F9  0D00     R  	or a,bank _reivce_data
 793  06FA  0084        	mov bp,a
 793  06FB  0700     E  	mov a,ra
 793  06FC  0082        	mov ir,a
 794  06FD              #line 794 "f:\work\血糖仪\a_bh45f67-旧版\4g\美国客户\make_lib\v1.0.01（5000套出货)-02\g-777g-usa-bg95eseye-2022-2-20\runTask.c"
文件：runTask.c    编译器版本 HGASM 0202 页次67

 794  06FD  0F92        	mov a,low (offset _BLOOD_Package+18)
 794  06FE  0083        	mov mp,a
 794  06FF  0F02        	mov a,high (offset _BLOOD_Package+18)
 794  0700  0081        	mov sbp,a
 794  0701  0701        	mov a,sbp
 794  0702  0D00     R  	or a,bank _reivce_data
 794  0703  0084        	mov bp,a
 794  0704  0702        	mov a,ir
 794  0705  0080     E  	mov ra,a
 794  0706  0FE5        	mov a,low (offset _test_buff+10)
 794  0707  0083        	mov mp,a
 794  0708  0F03        	mov a,high (offset _test_buff+10)
 794  0709  0081        	mov sbp,a
 794  070A  0701        	mov a,sbp
 794  070B  0D00     R  	or a,bank _reivce_data
 794  070C  0084        	mov bp,a
 794  070D  0700     E  	mov a,ra
 794  070E  0082        	mov ir,a
 795  070F              #line 795 "f:\work\血糖仪\a_bh45f67-旧版\4g\美国客户\make_lib\v1.0.01（5000套出货)-02\g-777g-usa-bg95eseye-2022-2-20\runTask.c"
 795  070F  1483        	inc mp
 795  0710  3D0A        	sz z
 795  0711  1481        	inc sbp
 795  0712  0701        	mov a,sbp
 795  0713  0D00     R  	or a,bank _reivce_data
 795  0714  0084        	mov bp,a
 795  0715  0773        	mov a,[115]
 795  0716  0082        	mov ir,a
 796  0717              #line 796 "f:\work\血糖仪\a_bh45f67-旧版\4g\美国客户\make_lib\v1.0.01（5000套出货)-02\g-777g-usa-bg95eseye-2022-2-20\runTask.c"
 796  0717  0F02        	mov a,2
 796  0718  0383        	addm a,mp
 796  0719  0F00        	mov a,0
 796  071A  1381        	adcm a,sbp
 796  071B  0701        	mov a,sbp
 796  071C  0D00     R  	or a,bank _reivce_data
 796  071D  0084        	mov bp,a
 796  071E  0771        	mov a,[113]
 796  071F  0082        	mov ir,a
 797  0720              #line 797 "f:\work\血糖仪\a_bh45f67-旧版\4g\美国客户\make_lib\v1.0.01（5000套出货)-02\g-777g-usa-bg95eseye-2022-2-20\runTask.c"
 797  0720  0FFF        	mov a,255
 797  0721  0383        	addm a,mp
 797  0722  0FFF        	mov a,255
 797  0723  1381        	adcm a,sbp
 797  0724  0701        	mov a,sbp
 797  0725  0D00     R  	or a,bank _reivce_data
 797  0726  0084        	mov bp,a
 797  0727  0770        	mov a,[112]
 797  0728  0082        	mov ir,a
 798  0729              #line 798 "f:\work\血糖仪\a_bh45f67-旧版\4g\美国客户\make_lib\v1.0.01（5000套出货)-02\g-777g-usa-bg95eseye-2022-2-20\runTask.c"
 798  0729  0F02        	mov a,2
 798  072A  0383        	addm a,mp
 798  072B  0F00        	mov a,0
 798  072C  1381        	adcm a,sbp
 798  072D  0701        	mov a,sbp
 798  072E  0D00     R  	or a,bank _reivce_data
 798  072F  0084        	mov bp,a
 798  0730  0F00        	mov a,0
 798  0731  0082        	mov ir,a
 799  0732              #line 799 "f:\work\血糖仪\a_bh45f67-旧版\4g\美国客户\make_lib\v1.0.01（5000套出货)-02\g-777g-usa-bg95eseye-2022-2-20\runTask.c"
 799  0732  1483        	inc mp
 799  0733  3D0A        	sz z
文件：runTask.c    编译器版本 HGASM 0202 页次68

 799  0734  1481        	inc sbp
 799  0735  0701        	mov a,sbp
 799  0736  0D00     R  	or a,bank _reivce_data
 799  0737  0084        	mov bp,a
 799  0738  0F00        	mov a,0
 799  0739  0082        	mov ir,a
 800  073A              #line 800 "f:\work\血糖仪\a_bh45f67-旧版\4g\美国客户\make_lib\v1.0.01（5000套出货)-02\g-777g-usa-bg95eseye-2022-2-20\runTask.c"
 800  073A  1483        	inc mp
 800  073B  3D0A        	sz z
 800  073C  1481        	inc sbp
 800  073D  0701        	mov a,sbp
 800  073E  0D00     R  	or a,bank _reivce_data
 800  073F  0084        	mov bp,a
 800  0740  0F00        	mov a,0
 800  0741  0082        	mov ir,a
 801  0742              #line 801 "f:\work\血糖仪\a_bh45f67-旧版\4g\美国客户\make_lib\v1.0.01（5000套出货)-02\g-777g-usa-bg95eseye-2022-2-20\runTask.c"
 801  0742  1483        	inc mp
 801  0743  3D0A        	sz z
 801  0744  1481        	inc sbp
 801  0745  0701        	mov a,sbp
 801  0746  0D00     R  	or a,bank _reivce_data
 801  0747  0084        	mov bp,a
 801  0748  0F00        	mov a,0
 801  0749  0082        	mov ir,a
 802  074A              #line 802 "f:\work\血糖仪\a_bh45f67-旧版\4g\美国客户\make_lib\v1.0.01（5000套出货)-02\g-777g-usa-bg95eseye-2022-2-20\runTask.c"
 802  074A  1483        	inc mp
 802  074B  3D0A        	sz z
 802  074C  1481        	inc sbp
 802  074D  0701        	mov a,sbp
 802  074E  0D00     R  	or a,bank _reivce_data
 802  074F  0084        	mov bp,a
 802  0750  077E        	mov a,[126]
 802  0751  0082        	mov ir,a
 804  0752              #line 804 "f:\work\血糖仪\a_bh45f67-旧版\4g\美国客户\make_lib\v1.0.01（5000套出货)-02\g-777g-usa-bg95eseye-2022-2-20\runTask.c"
 804  0752  0F80        	mov a,-128
 804  0753  0080     E  	mov _memset_2[4],a
 804  0754  1F00     E  	clr _memset_2[5]
 804  0755  1F00     E  	clr _memset_2[2]
 804  0756  1F00     E  	clr _memset_2[3]
 804  0757  0F80        	mov a,low offset _BLOOD_Package
 804  0758  0080     E  	mov _memset_2[0],a
 804  0759  0F02        	mov a,high offset _BLOOD_Package
 804  075A  0080     E  	mov _memset_2[1],a
 804  075B              	fcall _memset
 804  0762  0F13        	mov a,19
 804  0763  0080     E  	mov ra,a
 805  0764              #line 805 "f:\work\血糖仪\a_bh45f67-旧版\4g\美国客户\make_lib\v1.0.01（5000套出货)-02\g-777g-usa-bg95eseye-2022-2-20\runTask.c"
 805  0764  1F00     E  	clr rd
 805  0765              _L114:
 807  0765              #line 807 "f:\work\血糖仪\a_bh45f67-旧版\4g\美国客户\make_lib\v1.0.01（5000套出货)-02\g-777g-usa-bg95eseye-2022-2-20\runTask.c"
 807  0765  0700     E  	mov a,rd
 807  0766  0080     E  	mov rb,a
 807  0767  1F00     E  	clr rc
 807  0768  0FDB        	mov a,low offset _test_buff
 807  0769  0300     E  	add a,rb
 807  076A  0083        	mov mp,a
 807  076B  0F03        	mov a,high offset _test_buff
 807  076C  1300     E  	adc a,rc
 807  076D  0081        	mov sbp,a
 807  076E              	fcall _Crom2Prom
文件：runTask.c    编译器版本 HGASM 0202 页次69

 807  0775  0080     E  	mov re,a
 807  0776  0F80        	mov a,low offset _BLOOD_Package
 807  0777  0300     E  	add a,rb
 807  0778  0083        	mov mp,a
 807  0779  0F02        	mov a,high offset _BLOOD_Package
 807  077A  1300     E  	adc a,rc
 807  077B  0081        	mov sbp,a
 807  077C  0701        	mov a,sbp
 807  077D  0D00     R  	or a,bank _reivce_data
 807  077E  0084        	mov bp,a
 807  077F  0700     E  	mov a,re
 807  0780  0082        	mov ir,a
 805  0781              #line 805 "f:\work\血糖仪\a_bh45f67-旧版\4g\美国客户\make_lib\v1.0.01（5000套出货)-02\g-777g-usa-bg95eseye-2022-2-20\runTask.c"
 805  0781  1480     E  	inc rd
 805  0782  1780     E  	sdz ra
 805  0783  2800     R  	jmp _L114
 809  0784              #line 809 "f:\work\血糖仪\a_bh45f67-旧版\4g\美国客户\make_lib\v1.0.01（5000套出货)-02\g-777g-usa-bg95eseye-2022-2-20\runTask.c"
 809  0784  0F93        	mov a,low (offset _BLOOD_Package+19)
 809  0785  0083        	mov mp,a
 809  0786  0F02        	mov a,high (offset _BLOOD_Package+19)
 809  0787  0081        	mov sbp,a
 809  0788  0701        	mov a,sbp
 809  0789  0D00     R  	or a,bank _reivce_data
 809  078A  0084        	mov bp,a
 809  078B  0F00        	mov a,0
 809  078C  0082        	mov ir,a
 810  078D              #line 810 "f:\work\血糖仪\a_bh45f67-旧版\4g\美国客户\make_lib\v1.0.01（5000套出货)-02\g-777g-usa-bg95eseye-2022-2-20\runTask.c"
 810  078D  1483        	inc mp
 810  078E  3D0A        	sz z
 810  078F  1481        	inc sbp
 810  0790  0701        	mov a,sbp
 810  0791  0D00     R  	or a,bank _reivce_data
 810  0792  0084        	mov bp,a
 810  0793  0F00        	mov a,0
 810  0794  0082        	mov ir,a
 811  0795              #line 811 "f:\work\血糖仪\a_bh45f67-旧版\4g\美国客户\make_lib\v1.0.01（5000套出货)-02\g-777g-usa-bg95eseye-2022-2-20\runTask.c"
 811  0795  0FF8        	mov a,low offset _Pub_temp
 811  0796  0083        	mov mp,a
 811  0797  0F03        	mov a,high offset _Pub_temp
 811  0798  0081        	mov sbp,a
 811  0799  0701        	mov a,sbp
 811  079A  0D00     R  	or a,bank _reivce_data
 811  079B  0084        	mov bp,a
 811  079C  0702        	mov a,ir
 811  079D  0080     E  	mov rb,a
 811  079E  1483        	inc mp
 811  079F  0702        	mov a,ir
 811  07A0  0080     E  	mov rc,a
 811  07A1  0FC7        	mov a,low (offset _BLOOD_Package+71)
 811  07A2  0083        	mov mp,a
 811  07A3  0F02        	mov a,high (offset _BLOOD_Package+71)
 811  07A4  0081        	mov sbp,a
 811  07A5  0701        	mov a,sbp
 811  07A6  0D00     R  	or a,bank _reivce_data
 811  07A7  0084        	mov bp,a
 811  07A8  0700     E  	mov a,rb
 811  07A9  0082        	mov ir,a
 812  07AA              #line 812 "f:\work\血糖仪\a_bh45f67-旧版\4g\美国客户\make_lib\v1.0.01（5000套出货)-02\g-777g-usa-bg95eseye-2022-2-20\runTask.c"
 812  07AA  0FF8        	mov a,low offset _Pub_temp
 812  07AB  0083        	mov mp,a
文件：runTask.c    编译器版本 HGASM 0202 页次70

 812  07AC  0F03        	mov a,high offset _Pub_temp
 812  07AD  0081        	mov sbp,a
 812  07AE  0701        	mov a,sbp
 812  07AF  0D00     R  	or a,bank _reivce_data
 812  07B0  0084        	mov bp,a
 812  07B1  0702        	mov a,ir
 812  07B2  0080     E  	mov rb,a
 812  07B3  1483        	inc mp
 812  07B4  0702        	mov a,ir
 812  07B5  0080     E  	mov rc,a
 812  07B6  0FC8        	mov a,low (offset _BLOOD_Package+72)
 812  07B7  0083        	mov mp,a
 812  07B8  0F02        	mov a,high (offset _BLOOD_Package+72)
 812  07B9  0081        	mov sbp,a
 812  07BA  0701        	mov a,sbp
 812  07BB  0D00     R  	or a,bank _reivce_data
 812  07BC  0084        	mov bp,a
 812  07BD  0700     E  	mov a,rc
 812  07BE  0082        	mov ir,a
 813  07BF              #line 813 "f:\work\血糖仪\a_bh45f67-旧版\4g\美国客户\make_lib\v1.0.01（5000套出货)-02\g-777g-usa-bg95eseye-2022-2-20\runTask.c"
 813  07BF  0FE6        	mov a,low (offset _test_buff+11)
 813  07C0  0083        	mov mp,a
 813  07C1  0F03        	mov a,high (offset _test_buff+11)
 813  07C2  0081        	mov sbp,a
 813  07C3  0701        	mov a,sbp
 813  07C4  0D00     R  	or a,bank _reivce_data
 813  07C5  0084        	mov bp,a
 813  07C6  0702        	mov a,ir
 813  07C7  0080     E  	mov ra,a
 813  07C8  1483        	inc mp
 813  07C9  3D0A        	sz z
 813  07CA  1481        	inc sbp
 813  07CB  0701        	mov a,sbp
 813  07CC  0D00     R  	or a,bank _reivce_data
 813  07CD  0084        	mov bp,a
 813  07CE  0702        	mov a,ir
 813  07CF  0080     E  	mov re,a
 813  07D0  1483        	inc mp
 813  07D1  3D0A        	sz z
 813  07D2  1481        	inc sbp
 813  07D3  0701        	mov a,sbp
 813  07D4  0D00     R  	or a,bank _reivce_data
 813  07D5  0084        	mov bp,a
 813  07D6  0702        	mov a,ir
 813  07D7  0080     E  	mov rd,a
 813  07D8  0F05        	mov a,5
 813  07D9  0383        	addm a,mp
 813  07DA  0F00        	mov a,0
 813  07DB  1381        	adcm a,sbp
 813  07DC  0701        	mov a,sbp
 813  07DD  0D00     R  	or a,bank _reivce_data
 813  07DE  0084        	mov bp,a
 813  07DF  0702        	mov a,ir
 813  07E0  0080     E  	mov rc,a
 813  07E1  0FC7        	mov a,low (offset _BLOOD_Package+71)
 813  07E2  0083        	mov mp,a
 813  07E3  0F02        	mov a,high (offset _BLOOD_Package+71)
 813  07E4  0081        	mov sbp,a
 813  07E5  0701        	mov a,sbp
 813  07E6  0D00     R  	or a,bank _reivce_data
文件：runTask.c    编译器版本 HGASM 0202 页次71

 813  07E7  0084        	mov bp,a
 813  07E8  0702        	mov a,ir
 813  07E9  0080     E  	mov rb,a
 813  07EA  1483        	inc mp
 813  07EB  3D0A        	sz z
 813  07EC  1481        	inc sbp
 813  07ED  0701        	mov a,sbp
 813  07EE  0D00     R  	or a,bank _reivce_data
 813  07EF  0084        	mov bp,a
 813  07F0  0702        	mov a,ir
 813  07F1  0080     R  	mov _reivce_data_2[0],a
 813  07F2  0700     E  	mov a,re
 813  07F3  0480     E  	xorm a,ra
 813  07F4  0700     E  	mov a,rd
 813  07F5  0480     E  	xorm a,ra
 813  07F6  0700     E  	mov a,rc
 813  07F7  0480     E  	xorm a,ra
 813  07F8  0700     E  	mov a,rb
 813  07F9  0480     E  	xorm a,ra
 813  07FA  0700     R  	mov a,_reivce_data_2[0]
 813  07FB  0480     E  	xorm a,ra
 813  07FC  0F02        	mov a,2
 813  07FD  0383        	addm a,mp
 813  07FE  0F00        	mov a,0
 813  07FF  1381        	adcm a,sbp
 813  0800  0701        	mov a,sbp
 813  0801  0D00     R  	or a,bank _reivce_data
 813  0802  0084        	mov bp,a
 813  0803  0700     E  	mov a,ra
 813  0804  0082        	mov ir,a
 814  0805              #line 814 "f:\work\血糖仪\a_bh45f67-旧版\4g\美国客户\make_lib\v1.0.01（5000套出货)-02\g-777g-usa-bg95eseye-2022-2-20\runTask.c"
 814  0805  1483        	inc mp
 814  0806  3D0A        	sz z
 814  0807  1481        	inc sbp
 814  0808  0701        	mov a,sbp
 814  0809  0D00     R  	or a,bank _reivce_data
 814  080A  0084        	mov bp,a
 814  080B  0F12        	mov a,18
 814  080C  0082        	mov ir,a
 815  080D              #line 815 "f:\work\血糖仪\a_bh45f67-旧版\4g\美国客户\make_lib\v1.0.01（5000套出货)-02\g-777g-usa-bg95eseye-2022-2-20\runTask.c"
 815  080D  1483        	inc mp
 815  080E  3D0A        	sz z
 815  080F  1481        	inc sbp
 815  0810  0701        	mov a,sbp
 815  0811  0D00     R  	or a,bank _reivce_data
 815  0812  0084        	mov bp,a
 815  0813  0F0A        	mov a,10
 815  0814  0082        	mov ir,a
 816  0815              #line 816 "f:\work\血糖仪\a_bh45f67-旧版\4g\美国客户\make_lib\v1.0.01（5000套出货)-02\g-777g-usa-bg95eseye-2022-2-20\runTask.c"
 816  0815  1483        	inc mp
 816  0816  3D0A        	sz z
 816  0817  1481        	inc sbp
 816  0818  0701        	mov a,sbp
 816  0819  0D00     R  	or a,bank _reivce_data
 816  081A  0084        	mov bp,a
 816  081B  0F01        	mov a,1
 816  081C  0082        	mov ir,a
 817  081D              #line 817 "f:\work\血糖仪\a_bh45f67-旧版\4g\美国客户\make_lib\v1.0.01（5000套出货)-02\g-777g-usa-bg95eseye-2022-2-20\runTask.c"
 817  081D  1483        	inc mp
 817  081E  3D0A        	sz z
文件：runTask.c    编译器版本 HGASM 0202 页次72

 817  081F  1481        	inc sbp
 817  0820  0701        	mov a,sbp
 817  0821  0D00     R  	or a,bank _reivce_data
 817  0822  0084        	mov bp,a
 817  0823  0F09        	mov a,9
 817  0824  0082        	mov ir,a
 818  0825              #line 818 "f:\work\血糖仪\a_bh45f67-旧版\4g\美国客户\make_lib\v1.0.01（5000套出货)-02\g-777g-usa-bg95eseye-2022-2-20\runTask.c"
 818  0825  1483        	inc mp
 818  0826  3D0A        	sz z
 818  0827  1481        	inc sbp
 818  0828  0701        	mov a,sbp
 818  0829  0D00     R  	or a,bank _reivce_data
 818  082A  0084        	mov bp,a
 818  082B  0F2D        	mov a,45
 818  082C  0082        	mov ir,a
 818  082D  0F14        	mov a,20
 818  082E  0080     E  	mov ra,a
 819  082F              #line 819 "f:\work\血糖仪\a_bh45f67-旧版\4g\美国客户\make_lib\v1.0.01（5000套出货)-02\g-777g-usa-bg95eseye-2022-2-20\runTask.c"
 819  082F  0F15        	mov a,21
 819  0830  0080     E  	mov rb,a
 819  0831              _L116:
 821  0831              #line 821 "f:\work\血糖仪\a_bh45f67-旧版\4g\美国客户\make_lib\v1.0.01（5000套出货)-02\g-777g-usa-bg95eseye-2022-2-20\runTask.c"
 821  0831  0F80        	mov a,low offset _BLOOD_Package
 821  0832  0300     E  	add a,rb
 821  0833  0083        	mov mp,a
 821  0834  0F02        	mov a,high offset _BLOOD_Package
 821  0835  1F01        	clr sbp
 821  0836  1381        	adcm a,sbp
 821  0837  0701        	mov a,sbp
 821  0838  0D00     R  	or a,bank _reivce_data
 821  0839  0084        	mov bp,a
 821  083A  0F00        	mov a,0
 821  083B  0082        	mov ir,a
 819  083C              #line 819 "f:\work\血糖仪\a_bh45f67-旧版\4g\美国客户\make_lib\v1.0.01（5000套出货)-02\g-777g-usa-bg95eseye-2022-2-20\runTask.c"
 819  083C  1480     E  	inc rb
 819  083D  1780     E  	sdz ra
 819  083E  2800     R  	jmp _L116
 823  083F              #line 823 "f:\work\血糖仪\a_bh45f67-旧版\4g\美国客户\make_lib\v1.0.01（5000套出货)-02\g-777g-usa-bg95eseye-2022-2-20\runTask.c"
 823  083F              	fcall _fun_enable_fwen
 823  0846  0080     E  	mov ra,a
 823  0847  1080     E  	sz ra
 823  0848  2800     R  	jmp _LI15
 823  0849  2800     R  	jmp _L117
 823  084A              _LI15:
 825  084A              #line 825 "f:\work\血糖仪\a_bh45f67-旧版\4g\美国客户\make_lib\v1.0.01（5000套出货)-02\g-777g-usa-bg95eseye-2022-2-20\runTask.c"
 825  084A              	fcall _me_delay_100us
 826  0851              #line 826 "f:\work\血糖仪\a_bh45f67-旧版\4g\美国客户\make_lib\v1.0.01（5000套出货)-02\g-777g-usa-bg95eseye-2022-2-20\runTask.c"
 826  0851  0FC0        	mov a,-64
 826  0852  0080     E  	mov _fun_erase_page_2[0],a
 826  0853  0F7F        	mov a,127
 826  0854  0080     E  	mov _fun_erase_page_2[1],a
 826  0855  1F00     E  	clr _fun_erase_page_2[2]
 826  0856  1F00     E  	clr _fun_erase_page_2[3]
 826  0857              	fcall _fun_erase_page
 827  085E              #line 827 "f:\work\血糖仪\a_bh45f67-旧版\4g\美国客户\make_lib\v1.0.01（5000套出货)-02\g-777g-usa-bg95eseye-2022-2-20\runTask.c"
 827  085E              	fcall _me_delay_100us
 828  0865              #line 828 "f:\work\血糖仪\a_bh45f67-旧版\4g\美国客户\make_lib\v1.0.01（5000套出货)-02\g-777g-usa-bg95eseye-2022-2-20\runTask.c"
 828  0865  1F00     E  	clr _fun_write_cpage_2[3]
 828  0866  0F80        	mov a,128
 828  0867  0080     E  	mov _fun_write_cpage_2[2],a
文件：runTask.c    编译器版本 HGASM 0202 页次73

 828  0868  0FC0        	mov a,-64
 828  0869  0080     E  	mov _fun_write_cpage_2[0],a
 828  086A  0F7F        	mov a,127
 828  086B  0080     E  	mov _fun_write_cpage_2[1],a
 828  086C              	fcall _fun_write_cpage
 828  0873              _L117:
 830  0873              #line 830 "f:\work\血糖仪\a_bh45f67-旧版\4g\美国客户\make_lib\v1.0.01（5000套出货)-02\g-777g-usa-bg95eseye-2022-2-20\runTask.c"
 830  0873  0F80        	mov a,low offset _BLOOD_Package
 830  0874  0083        	mov mp,a
 830  0875  0F02        	mov a,high offset _BLOOD_Package
 830  0876  0081        	mov sbp,a
 830  0877  0701        	mov a,sbp
 830  0878  0D00     R  	or a,bank _reivce_data
 830  0879  0084        	mov bp,a
 830  087A  0F55        	mov a,85
 830  087B  0082        	mov ir,a
 831  087C              #line 831 "f:\work\血糖仪\a_bh45f67-旧版\4g\美国客户\make_lib\v1.0.01（5000套出货)-02\g-777g-usa-bg95eseye-2022-2-20\runTask.c"
 831  087C  1483        	inc mp
 831  087D  3D0A        	sz z
 831  087E  1481        	inc sbp
 831  087F  0701        	mov a,sbp
 831  0880  0D00     R  	or a,bank _reivce_data
 831  0881  0084        	mov bp,a
 831  0882  0F0A        	mov a,10
 831  0883  0082        	mov ir,a
 832  0884              #line 832 "f:\work\血糖仪\a_bh45f67-旧版\4g\美国客户\make_lib\v1.0.01（5000套出货)-02\g-777g-usa-bg95eseye-2022-2-20\runTask.c"
 832  0884  1483        	inc mp
 832  0885  3D0A        	sz z
 832  0886  1481        	inc sbp
 832  0887  0701        	mov a,sbp
 832  0888  0D00     R  	or a,bank _reivce_data
 832  0889  0084        	mov bp,a
 832  088A  0F06        	mov a,6
 832  088B  0082        	mov ir,a
 834  088C              #line 834 "f:\work\血糖仪\a_bh45f67-旧版\4g\美国客户\make_lib\v1.0.01（5000套出货)-02\g-777g-usa-bg95eseye-2022-2-20\runTask.c"
 834  088C  1483        	inc mp
 834  088D  3D0A        	sz z
 834  088E  1481        	inc sbp
 834  088F  0701        	mov a,sbp
 834  0890  0D00     R  	or a,bank _reivce_data
 834  0891  0084        	mov bp,a
 834  0892  0773        	mov a,[115]
 834  0893  0082        	mov ir,a
 835  0894              #line 835 "f:\work\血糖仪\a_bh45f67-旧版\4g\美国客户\make_lib\v1.0.01（5000套出货)-02\g-777g-usa-bg95eseye-2022-2-20\runTask.c"
 835  0894  1483        	inc mp
 835  0895  3D0A        	sz z
 835  0896  1481        	inc sbp
 835  0897  0701        	mov a,sbp
 835  0898  0D00     R  	or a,bank _reivce_data
 835  0899  0084        	mov bp,a
 835  089A  0771        	mov a,[113]
 835  089B  0082        	mov ir,a
 836  089C              #line 836 "f:\work\血糖仪\a_bh45f67-旧版\4g\美国客户\make_lib\v1.0.01（5000套出货)-02\g-777g-usa-bg95eseye-2022-2-20\runTask.c"
 836  089C  1483        	inc mp
 836  089D  3D0A        	sz z
 836  089E  1481        	inc sbp
 836  089F  0701        	mov a,sbp
 836  08A0  0D00     R  	or a,bank _reivce_data
 836  08A1  0084        	mov bp,a
 836  08A2  0770        	mov a,[112]
文件：runTask.c    编译器版本 HGASM 0202 页次74

 836  08A3  0082        	mov ir,a
 837  08A4              #line 837 "f:\work\血糖仪\a_bh45f67-旧版\4g\美国客户\make_lib\v1.0.01（5000套出货)-02\g-777g-usa-bg95eseye-2022-2-20\runTask.c"
 837  08A4  1483        	inc mp
 837  08A5  3D0A        	sz z
 837  08A6  1481        	inc sbp
 837  08A7  0701        	mov a,sbp
 837  08A8  0D00     R  	or a,bank _reivce_data
 837  08A9  0084        	mov bp,a
 837  08AA  077E        	mov a,[126]
 837  08AB  0082        	mov ir,a
 838  08AC              #line 838 "f:\work\血糖仪\a_bh45f67-旧版\4g\美国客户\make_lib\v1.0.01（5000套出货)-02\g-777g-usa-bg95eseye-2022-2-20\runTask.c"
 838  08AC  0FF8        	mov a,low offset _Pub_temp
 838  08AD  0083        	mov mp,a
 838  08AE  0F03        	mov a,high offset _Pub_temp
 838  08AF  0081        	mov sbp,a
 838  08B0  0701        	mov a,sbp
 838  08B1  0D00     R  	or a,bank _reivce_data
 838  08B2  0084        	mov bp,a
 838  08B3  0702        	mov a,ir
 838  08B4  0080     E  	mov rb,a
 838  08B5  1483        	inc mp
 838  08B6  0702        	mov a,ir
 838  08B7  0080     E  	mov rc,a
 838  08B8  0F87        	mov a,low (offset _BLOOD_Package+7)
 838  08B9  0083        	mov mp,a
 838  08BA  0F02        	mov a,high (offset _BLOOD_Package+7)
 838  08BB  0081        	mov sbp,a
 838  08BC  0701        	mov a,sbp
 838  08BD  0D00     R  	or a,bank _reivce_data
 838  08BE  0084        	mov bp,a
 838  08BF  0700     E  	mov a,rb
 838  08C0  0082        	mov ir,a
 839  08C1              #line 839 "f:\work\血糖仪\a_bh45f67-旧版\4g\美国客户\make_lib\v1.0.01（5000套出货)-02\g-777g-usa-bg95eseye-2022-2-20\runTask.c"
 839  08C1  0FF8        	mov a,low offset _Pub_temp
 839  08C2  0083        	mov mp,a
 839  08C3  0F03        	mov a,high offset _Pub_temp
 839  08C4  0081        	mov sbp,a
 839  08C5  0701        	mov a,sbp
 839  08C6  0D00     R  	or a,bank _reivce_data
 839  08C7  0084        	mov bp,a
 839  08C8  0702        	mov a,ir
 839  08C9  0080     E  	mov rb,a
 839  08CA  1483        	inc mp
 839  08CB  0702        	mov a,ir
 839  08CC  0080     E  	mov rc,a
 839  08CD  0F88        	mov a,low (offset _BLOOD_Package+8)
 839  08CE  0083        	mov mp,a
 839  08CF  0F02        	mov a,high (offset _BLOOD_Package+8)
 839  08D0  0081        	mov sbp,a
 839  08D1  0701        	mov a,sbp
 839  08D2  0D00     R  	or a,bank _reivce_data
 839  08D3  0084        	mov bp,a
 839  08D4  0700     E  	mov a,rc
 839  08D5  0082        	mov ir,a
 840  08D6              #line 840 "f:\work\血糖仪\a_bh45f67-旧版\4g\美国客户\make_lib\v1.0.01（5000套出货)-02\g-777g-usa-bg95eseye-2022-2-20\runTask.c"
 840  08D6  1483        	inc mp
 840  08D7  3D0A        	sz z
 840  08D8  1481        	inc sbp
 840  08D9  0701        	mov a,sbp
 840  08DA  0D00     R  	or a,bank _reivce_data
文件：runTask.c    编译器版本 HGASM 0202 页次75

 840  08DB  0084        	mov bp,a
 840  08DC  0F00        	mov a,0
 840  08DD  0082        	mov ir,a
 840  08DE  0F09        	mov a,9
 840  08DF  0080     E  	mov ra,a
 841  08E0              #line 841 "f:\work\血糖仪\a_bh45f67-旧版\4g\美国客户\make_lib\v1.0.01（5000套出货)-02\g-777g-usa-bg95eseye-2022-2-20\runTask.c"
 841  08E0  1F00     E  	clr rb
 841  08E1              _L119:
 843  08E1              #line 843 "f:\work\血糖仪\a_bh45f67-旧版\4g\美国客户\make_lib\v1.0.01（5000套出货)-02\g-777g-usa-bg95eseye-2022-2-20\runTask.c"
 843  08E1  0F89        	mov a,low (offset _BLOOD_Package+9)
 843  08E2  0083        	mov mp,a
 843  08E3  0F02        	mov a,high (offset _BLOOD_Package+9)
 843  08E4  0081        	mov sbp,a
 843  08E5  0701        	mov a,sbp
 843  08E6  0D00     R  	or a,bank _reivce_data
 843  08E7  0084        	mov bp,a
 843  08E8  0702        	mov a,ir
 843  08E9  0080     E  	mov rc,a
 843  08EA  0F80        	mov a,low offset _BLOOD_Package
 843  08EB  0300     E  	add a,rb
 843  08EC  0083        	mov mp,a
 843  08ED  0F02        	mov a,high offset _BLOOD_Package
 843  08EE  1F01        	clr sbp
 843  08EF  1381        	adcm a,sbp
 843  08F0              	fcall _Crom2Prom
 843  08F7  0080     E  	mov rd,a
 843  08F8  0700     E  	mov a,rd
 843  08F9  0380     E  	addm a,rc
 843  08FA  0F89        	mov a,low (offset _BLOOD_Package+9)
 843  08FB  0083        	mov mp,a
 843  08FC  0F02        	mov a,high (offset _BLOOD_Package+9)
 843  08FD  0081        	mov sbp,a
 843  08FE  0701        	mov a,sbp
 843  08FF  0D00     R  	or a,bank _reivce_data
 843  0900  0084        	mov bp,a
 843  0901  0700     E  	mov a,rc
 843  0902  0082        	mov ir,a
 841  0903              #line 841 "f:\work\血糖仪\a_bh45f67-旧版\4g\美国客户\make_lib\v1.0.01（5000套出货)-02\g-777g-usa-bg95eseye-2022-2-20\runTask.c"
 841  0903  1480     E  	inc rb
 841  0904  1780     E  	sdz ra
 841  0905  2800     R  	jmp _L119
 846  0906              #line 846 "f:\work\血糖仪\a_bh45f67-旧版\4g\美国客户\make_lib\v1.0.01（5000套出货)-02\g-777g-usa-bg95eseye-2022-2-20\runTask.c"
 846  0906  0F88        	mov a,low (offset _SystemFlags+8)
 846  0907  0083        	mov mp,a
 846  0908  0F03        	mov a,high (offset _SystemFlags+8)
 846  0909  0081        	mov sbp,a
 846  090A  0701        	mov a,sbp
 846  090B  0D00     R  	or a,bank _reivce_data
 846  090C  0084        	mov bp,a
 846  090D  0F39        	mov a,57
 846  090E  0082        	mov ir,a
 847  090F              #line 847 "f:\work\血糖仪\a_bh45f67-旧版\4g\美国客户\make_lib\v1.0.01（5000套出货)-02\g-777g-usa-bg95eseye-2022-2-20\runTask.c"
 847  090F  0F0A        	mov a,10
 847  0910  0080     E  	mov _Uart_Send_9600_2[2],a
 847  0911  0F80        	mov a,low offset _BLOOD_Package
 847  0912  0080     E  	mov _Uart_Send_9600_2[0],a
 847  0913  0F02        	mov a,high offset _BLOOD_Package
 847  0914  0080     E  	mov _Uart_Send_9600_2[1],a
 847  0915              	fcall _Uart_Send_9600
 848  091C              #line 848 "f:\work\血糖仪\a_bh45f67-旧版\4g\美国客户\make_lib\v1.0.01（5000套出货)-02\g-777g-usa-bg95eseye-2022-2-20\runTask.c"
文件：runTask.c    编译器版本 HGASM 0202 页次76

 848  091C  0F80        	mov a,-128
 848  091D  0080     E  	mov _memset_2[4],a
 848  091E  1F00     E  	clr _memset_2[5]
 848  091F  1F00     E  	clr _memset_2[2]
 848  0920  1F00     E  	clr _memset_2[3]
 848  0921  0F80        	mov a,low offset _BLOOD_Package
 848  0922  0080     E  	mov _memset_2[0],a
 848  0923  0F02        	mov a,high offset _BLOOD_Package
 848  0924  0080     E  	mov _memset_2[1],a
 848  0925              	fcall _memset
 849  092C              #line 849 "f:\work\血糖仪\a_bh45f67-旧版\4g\美国客户\make_lib\v1.0.01（5000套出货)-02\g-777g-usa-bg95eseye-2022-2-20\runTask.c"
 849  092C  0F87        	mov a,low (offset _SystemFlags+7)
 849  092D  0083        	mov mp,a
 849  092E  0F03        	mov a,high (offset _SystemFlags+7)
 849  092F  0081        	mov sbp,a
 849  0930  0701        	mov a,sbp
 849  0931  0D00     R  	or a,bank _reivce_data
 849  0932  0084        	mov bp,a
 849  0933  0F00        	mov a,0
 849  0934  0082        	mov ir,a
 849  0935  2800     R  	jmp _L129
 849  0936              _L99:
 854  0936              #line 854 "f:\work\血糖仪\a_bh45f67-旧版\4g\美国客户\make_lib\v1.0.01（5000套出货)-02\g-777g-usa-bg95eseye-2022-2-20\runTask.c"
 854  0936  0F80        	mov a,low offset _SystemFlags
 854  0937  0083        	mov mp,a
 854  0938  0F03        	mov a,high offset _SystemFlags
 854  0939  0081        	mov sbp,a
 854  093A  0701        	mov a,sbp
 854  093B  0D00     R  	or a,bank _reivce_data
 854  093C  0084        	mov bp,a
 854  093D  3382        	set ir.7
 855  093E              #line 855 "f:\work\血糖仪\a_bh45f67-旧版\4g\美国客户\make_lib\v1.0.01（5000套出货)-02\g-777g-usa-bg95eseye-2022-2-20\runTask.c"
 855  093E  0F80        	mov a,low offset _BLOOD_Package
 855  093F  0083        	mov mp,a
 855  0940  0F02        	mov a,high offset _BLOOD_Package
 855  0941  0081        	mov sbp,a
 855  0942  0701        	mov a,sbp
 855  0943  0D00     R  	or a,bank _reivce_data
 855  0944  0084        	mov bp,a
 855  0945  0F55        	mov a,85
 855  0946  0082        	mov ir,a
 856  0947              #line 856 "f:\work\血糖仪\a_bh45f67-旧版\4g\美国客户\make_lib\v1.0.01（5000套出货)-02\g-777g-usa-bg95eseye-2022-2-20\runTask.c"
 856  0947  1483        	inc mp
 856  0948  3D0A        	sz z
 856  0949  1481        	inc sbp
 856  094A  0701        	mov a,sbp
 856  094B  0D00     R  	or a,bank _reivce_data
 856  094C  0084        	mov bp,a
 856  094D  0F05        	mov a,5
 856  094E  0082        	mov ir,a
 857  094F              #line 857 "f:\work\血糖仪\a_bh45f67-旧版\4g\美国客户\make_lib\v1.0.01（5000套出货)-02\g-777g-usa-bg95eseye-2022-2-20\runTask.c"
 857  094F  1483        	inc mp
 857  0950  3D0A        	sz z
 857  0951  1481        	inc sbp
 857  0952  0701        	mov a,sbp
 857  0953  0D00     R  	or a,bank _reivce_data
 857  0954  0084        	mov bp,a
 857  0955  0F07        	mov a,7
 857  0956  0082        	mov ir,a
 858  0957              #line 858 "f:\work\血糖仪\a_bh45f67-旧版\4g\美国客户\make_lib\v1.0.01（5000套出货)-02\g-777g-usa-bg95eseye-2022-2-20\runTask.c"
文件：runTask.c    编译器版本 HGASM 0202 页次77

 858  0957  1483        	inc mp
 858  0958  3D0A        	sz z
 858  0959  1481        	inc sbp
 858  095A  0701        	mov a,sbp
 858  095B  0D00     R  	or a,bank _reivce_data
 858  095C  0084        	mov bp,a
 858  095D  0F4F        	mov a,79
 858  095E  0082        	mov ir,a
 859  095F              #line 859 "f:\work\血糖仪\a_bh45f67-旧版\4g\美国客户\make_lib\v1.0.01（5000套出货)-02\g-777g-usa-bg95eseye-2022-2-20\runTask.c"
 859  095F  1483        	inc mp
 859  0960  3D0A        	sz z
 859  0961  1481        	inc sbp
 859  0962  0701        	mov a,sbp
 859  0963  0D00     R  	or a,bank _reivce_data
 859  0964  0084        	mov bp,a
 859  0965  0F4B        	mov a,75
 859  0966  0082        	mov ir,a
 860  0967              #line 860 "f:\work\血糖仪\a_bh45f67-旧版\4g\美国客户\make_lib\v1.0.01（5000套出货)-02\g-777g-usa-bg95eseye-2022-2-20\runTask.c"
 860  0967  0F05        	mov a,5
 860  0968  0080     E  	mov _Uart_Send_9600_2[2],a
 860  0969  0F80        	mov a,low offset _BLOOD_Package
 860  096A  0080     E  	mov _Uart_Send_9600_2[0],a
 860  096B  0F02        	mov a,high offset _BLOOD_Package
 860  096C  0080     E  	mov _Uart_Send_9600_2[1],a
 860  096D              	fcall _Uart_Send_9600
 860  0974              _L129:
 861  0974              #line 861 "f:\work\血糖仪\a_bh45f67-旧版\4g\美国客户\make_lib\v1.0.01（5000套出货)-02\g-777g-usa-bg95eseye-2022-2-20\runTask.c"
 861  0974  0F64        	mov a,100
 861  0975  0080     E  	mov _me_delay_ms_2[0],a
 861  0976  1F00     E  	clr _me_delay_ms_2[1]
 861  0977              	fcall _me_delay_ms
 862  097E              #line 862 "f:\work\血糖仪\a_bh45f67-旧版\4g\美国客户\make_lib\v1.0.01（5000套出货)-02\g-777g-usa-bg95eseye-2022-2-20\runTask.c"
 862  097E  2800     R  	jmp _L92
 862  097F              _L127:
 872  097F              #line 872 "f:\work\血糖仪\a_bh45f67-旧版\4g\美国客户\make_lib\v1.0.01（5000套出货)-02\g-777g-usa-bg95eseye-2022-2-20\runTask.c"
 872  097F  0F05        	mov a,5
 872  0980  0080     E  	mov _Uart_Send_9600_2[2],a
 872  0981  0F80        	mov a,low offset _BLOOD_Package
 872  0982  0080     E  	mov _Uart_Send_9600_2[0],a
 872  0983  0F02        	mov a,high offset _BLOOD_Package
 872  0984  0080     E  	mov _Uart_Send_9600_2[1],a
 872  0985              	fcall _Uart_Send_9600
 872  098C              _L92:
 875  098C              #line 875 "f:\work\血糖仪\a_bh45f67-旧版\4g\美国客户\make_lib\v1.0.01（5000套出货)-02\g-777g-usa-bg95eseye-2022-2-20\runTask.c"
 875  098C  0F0A        	mov a,10
 875  098D  0080     E  	mov _memset_2[4],a
 875  098E  1F00     E  	clr _memset_2[5]
 875  098F  1F00     E  	clr _memset_2[2]
 875  0990  1F00     E  	clr _memset_2[3]
 875  0991  0F80        	mov a,low offset _BLOOD_Package
 875  0992  0080     E  	mov _memset_2[0],a
 875  0993  0F02        	mov a,high offset _BLOOD_Package
 875  0994  0080     E  	mov _memset_2[1],a
 875  0995              	fcall _memset
 875  099C              _L90:
 875  099C  0003        	ret
 875  099D              _reivce_data endp
 875  099D              #line 875 "f:\work\血糖仪\a_bh45f67-旧版\4g\美国客户\make_lib\v1.0.01（5000套出货)-02\g-777g-usa-bg95eseye-2022-2-20\runTask.c"
 875  099D              #pragma debug scope 1 1
 875  099D              ___dac equ [111]
文件：runTask.c    编译器版本 HGASM 0202 页次78

 875  099D              _disp_buff equ [926]
 875  099D              _flash equ [910]
 875  099D              _Project_Sequence equ [953]
 875  099D              _staic_Temperature equ [1021]
 875  099D              _Second equ [1211]
 875  099D              _Mem_sequence_count equ [1018]
 875  099D              public _Power_ON_OFF
 875  099D              #pragma debug scope 15 1
 881  099D              #line 881 "f:\work\血糖仪\a_bh45f67-旧版\4g\美国客户\make_lib\v1.0.01（5000套出货)-02\g-777g-usa-bg95eseye-2022-2-20\runTask.c"
 881  0000              _Power_ON_OFF .section 'code'
 881  0000              _Power_ON_OFF proc
 881  0000  0004[           local _Power_ON_OFF_2 db 4 dup(?)	; 0,4
            00
            ]
 882  0004              #line 882 "f:\work\血糖仪\a_bh45f67-旧版\4g\美国客户\make_lib\v1.0.01（5000套出货)-02\g-777g-usa-bg95eseye-2022-2-20\runTask.c"
 882  0000  0F81        	mov a,low (offset _SystemFlags+1)
 882  0001  0083        	mov mp,a
 882  0002  0F03        	mov a,high (offset _SystemFlags+1)
 882  0003  0081        	mov sbp,a
 882  0004  0701        	mov a,sbp
 882  0005  0D00     R  	or a,bank _Power_ON_OFF
 882  0006  0084        	mov bp,a
 882  0007  0702        	mov a,ir
 882  0008  0080     E  	mov ra,a
 882  0009  3000     E  	set ra.2
 882  000A  0701        	mov a,sbp
 882  000B  0D00     R  	or a,bank _Power_ON_OFF
 882  000C  0084        	mov bp,a
 882  000D  0700     E  	mov a,ra
 882  000E  0082        	mov ir,a
 883  000F              #line 883 "f:\work\血糖仪\a_bh45f67-旧版\4g\美国客户\make_lib\v1.0.01（5000套出货)-02\g-777g-usa-bg95eseye-2022-2-20\runTask.c"
 883  000F  3C00     E  	sz ra.7
 883  0010  2800     R  	jmp _L131
 885  0011              #line 885 "f:\work\血糖仪\a_bh45f67-旧版\4g\美国客户\make_lib\v1.0.01（5000套出货)-02\g-777g-usa-bg95eseye-2022-2-20\runTask.c"
 885  0011  0F01        	mov a,1
 885  0012  00EF        	mov [111],a
 886  0013              #line 886 "f:\work\血糖仪\a_bh45f67-旧版\4g\美国客户\make_lib\v1.0.01（5000套出货)-02\g-777g-usa-bg95eseye-2022-2-20\runTask.c"
 886  0013  36C4        	clr [68].5
 887  0014              #line 887 "f:\work\血糖仪\a_bh45f67-旧版\4g\美国客户\make_lib\v1.0.01（5000套出货)-02\g-777g-usa-bg95eseye-2022-2-20\runTask.c"
 887  0014  302F        	set [47].0
 888  0015              #line 888 "f:\work\血糖仪\a_bh45f67-旧版\4g\美国客户\make_lib\v1.0.01（5000套出货)-02\g-777g-usa-bg95eseye-2022-2-20\runTask.c"
 888  0015  0F01        	mov a,1
 888  0016  0080     E  	mov _uart_init_2[0],a
 888  0017  1F00     E  	clr _uart_init_2[1]
 888  0018              	fcall _uart_init
 889  001F              #line 889 "f:\work\血糖仪\a_bh45f67-旧版\4g\美国客户\make_lib\v1.0.01（5000套出货)-02\g-777g-usa-bg95eseye-2022-2-20\runTask.c"
 889  001F              	fcall _OP_set
 890  0026              #line 890 "f:\work\血糖仪\a_bh45f67-旧版\4g\美国客户\make_lib\v1.0.01（5000套出货)-02\g-777g-usa-bg95eseye-2022-2-20\runTask.c"
 890  0026  0F1E        	mov a,30
 890  0027  0080     E  	mov _memset_2[4],a
 890  0028  1F00     E  	clr _memset_2[5]
 890  0029  1F00     E  	clr _memset_2[2]
 890  002A  1F00     E  	clr _memset_2[3]
 890  002B  0F80        	mov a,low offset _BLOOD_Package
 890  002C  0080     E  	mov _memset_2[0],a
 890  002D  0F02        	mov a,high offset _BLOOD_Package
 890  002E  0080     E  	mov _memset_2[1],a
 890  002F              	fcall _memset
 891  0036              #line 891 "f:\work\血糖仪\a_bh45f67-旧版\4g\美国客户\make_lib\v1.0.01（5000套出货)-02\g-777g-usa-bg95eseye-2022-2-20\runTask.c"
 891  0036  0F81        	mov a,low (offset _SystemFlags+1)
文件：runTask.c    编译器版本 HGASM 0202 页次79

 891  0037  0083        	mov mp,a
 891  0038  0F03        	mov a,high (offset _SystemFlags+1)
 891  0039  0081        	mov sbp,a
 891  003A  0701        	mov a,sbp
 891  003B  0D00     R  	or a,bank _Power_ON_OFF
 891  003C  0084        	mov bp,a
 891  003D  3582        	clr ir.3
 892  003E              #line 892 "f:\work\血糖仪\a_bh45f67-旧版\4g\美国客户\make_lib\v1.0.01（5000套出货)-02\g-777g-usa-bg95eseye-2022-2-20\runTask.c"
 892  003E  0F06        	mov a,6
 892  003F  0383        	addm a,mp
 892  0040  0F00        	mov a,0
 892  0041  1381        	adcm a,sbp
 892  0042  0701        	mov a,sbp
 892  0043  0D00     R  	or a,bank _Power_ON_OFF
 892  0044  0084        	mov bp,a
 892  0045  0F00        	mov a,0
 892  0046  0082        	mov ir,a
 893  0047              #line 893 "f:\work\血糖仪\a_bh45f67-旧版\4g\美国客户\make_lib\v1.0.01（5000套出货)-02\g-777g-usa-bg95eseye-2022-2-20\runTask.c"
 893  0047  0F10        	mov a,16
 893  0048  0080     E  	mov _memset_2[4],a
 893  0049  1F00     E  	clr _memset_2[5]
 893  004A  1F80     E  	set _memset_2[2]
 893  004B  1F00     E  	clr _memset_2[3]
 893  004C  0F9E        	mov a,low offset _disp_buff
 893  004D  0080     E  	mov _memset_2[0],a
 893  004E  0F03        	mov a,high offset _disp_buff
 893  004F  0080     E  	mov _memset_2[1],a
 893  0050              	fcall _memset
 894  0057              #line 894 "f:\work\血糖仪\a_bh45f67-旧版\4g\美国客户\make_lib\v1.0.01（5000套出货)-02\g-777g-usa-bg95eseye-2022-2-20\runTask.c"
 894  0057  0F10        	mov a,16
 894  0058  0080     E  	mov _memset_2[4],a
 894  0059  1F00     E  	clr _memset_2[5]
 894  005A  1F80     E  	set _memset_2[2]
 894  005B  1F00     E  	clr _memset_2[3]
 894  005C  0F8E        	mov a,low offset _flash
 894  005D  0080     E  	mov _memset_2[0],a
 894  005E  0F03        	mov a,high offset _flash
 894  005F  0080     E  	mov _memset_2[1],a
 894  0060              	fcall _memset
 895  0067              #line 895 "f:\work\血糖仪\a_bh45f67-旧版\4g\美国客户\make_lib\v1.0.01（5000套出货)-02\g-777g-usa-bg95eseye-2022-2-20\runTask.c"
 895  0067              	fcall _show_display
 896  006E              #line 896 "f:\work\血糖仪\a_bh45f67-旧版\4g\美国客户\make_lib\v1.0.01（5000套出货)-02\g-777g-usa-bg95eseye-2022-2-20\runTask.c"
 896  006E  0F81        	mov a,129
 896  006F  00E7        	mov [103],a
 897  0070              #line 897 "f:\work\血糖仪\a_bh45f67-旧版\4g\美国客户\make_lib\v1.0.01（5000套出货)-02\g-777g-usa-bg95eseye-2022-2-20\runTask.c"
 897  0070  0F80        	mov a,-128
 897  0071  0080     E  	mov _memset_2[4],a
 897  0072  1F00     E  	clr _memset_2[5]
 897  0073  1F00     E  	clr _memset_2[2]
 897  0074  1F00     E  	clr _memset_2[3]
 897  0075  0F80        	mov a,low offset _BLOOD_Package
 897  0076  0080     E  	mov _memset_2[0],a
 897  0077  0F02        	mov a,high offset _BLOOD_Package
 897  0078  0080     E  	mov _memset_2[1],a
 897  0079              	fcall _memset
 898  0080              #line 898 "f:\work\血糖仪\a_bh45f67-旧版\4g\美国客户\make_lib\v1.0.01（5000套出货)-02\g-777g-usa-bg95eseye-2022-2-20\runTask.c"
 898  0080  0F80        	mov a,-128
 898  0081  0080     E  	mov _fun_read_page_2[0],a
 898  0082  0F7F        	mov a,127
 898  0083  0080     E  	mov _fun_read_page_2[1],a
文件：runTask.c    编译器版本 HGASM 0202 页次80

 898  0084  1F00     E  	clr _fun_read_page_2[2]
 898  0085  1F00     E  	clr _fun_read_page_2[3]
 898  0086              	fcall _fun_read_page
 899  008D              #line 899 "f:\work\血糖仪\a_bh45f67-旧版\4g\美国客户\make_lib\v1.0.01（5000套出货)-02\g-777g-usa-bg95eseye-2022-2-20\runTask.c"
 899  008D  0F8B        	mov a,low (offset _BLOOD_Package+11)
 899  008E  0083        	mov mp,a
 899  008F  0F02        	mov a,high (offset _BLOOD_Package+11)
 899  0090  0081        	mov sbp,a
 899  0091  0701        	mov a,sbp
 899  0092  0D00     R  	or a,bank _Power_ON_OFF
 899  0093  0084        	mov bp,a
 899  0094  0702        	mov a,ir
 899  0095  00F3        	mov [115],a
 900  0096              #line 900 "f:\work\血糖仪\a_bh45f67-旧版\4g\美国客户\make_lib\v1.0.01（5000套出货)-02\g-777g-usa-bg95eseye-2022-2-20\runTask.c"
 900  0096  1483        	inc mp
 900  0097  3D0A        	sz z
 900  0098  1481        	inc sbp
 900  0099  0701        	mov a,sbp
 900  009A  0D00     R  	or a,bank _Power_ON_OFF
 900  009B  0084        	mov bp,a
 900  009C  0702        	mov a,ir
 900  009D  00F0        	mov [112],a
 901  009E              #line 901 "f:\work\血糖仪\a_bh45f67-旧版\4g\美国客户\make_lib\v1.0.01（5000套出货)-02\g-777g-usa-bg95eseye-2022-2-20\runTask.c"
 901  009E  1483        	inc mp
 901  009F  3D0A        	sz z
 901  00A0  1481        	inc sbp
 901  00A1  0701        	mov a,sbp
 901  00A2  0D00     R  	or a,bank _Power_ON_OFF
 901  00A3  0084        	mov bp,a
 901  00A4  0702        	mov a,ir
 901  00A5  00F1        	mov [113],a
 902  00A6              #line 902 "f:\work\血糖仪\a_bh45f67-旧版\4g\美国客户\make_lib\v1.0.01（5000套出货)-02\g-777g-usa-bg95eseye-2022-2-20\runTask.c"
 902  00A6  0F05        	mov a,5
 902  00A7  0383        	addm a,mp
 902  00A8  0F00        	mov a,0
 902  00A9  1381        	adcm a,sbp
 902  00AA  0701        	mov a,sbp
 902  00AB  0D00     R  	or a,bank _Power_ON_OFF
 902  00AC  0084        	mov bp,a
 902  00AD  0702        	mov a,ir
 902  00AE  00FE        	mov [126],a
 904  00AF              #line 904 "f:\work\血糖仪\a_bh45f67-旧版\4g\美国客户\make_lib\v1.0.01（5000套出货)-02\g-777g-usa-bg95eseye-2022-2-20\runTask.c"
 904  00AF  0FF8        	mov a,248
 904  00B0  0383        	addm a,mp
 904  00B1  0FFF        	mov a,255
 904  00B2  1381        	adcm a,sbp
 904  00B3  0701        	mov a,sbp
 904  00B4  0D00     R  	or a,bank _Power_ON_OFF
 904  00B5  0084        	mov bp,a
 904  00B6  0702        	mov a,ir
 904  00B7  0080     E  	mov rd,a
 904  00B8  1F00     E  	clr re
 904  00B9  1F00     E  	clr rf
 904  00BA  1F00     E  	clr rg
 904  00BB  0FB9        	mov a,low offset _Project_Sequence
 904  00BC  0083        	mov mp,a
 904  00BD  0F03        	mov a,high offset _Project_Sequence
 904  00BE  0081        	mov sbp,a
 904  00BF  0701        	mov a,sbp
 904  00C0  0D00     R  	or a,bank _Power_ON_OFF
文件：runTask.c    编译器版本 HGASM 0202 页次81

 904  00C1  0084        	mov bp,a
 904  00C2  0700     E  	mov a,rd
 904  00C3  0082        	mov ir,a
 904  00C4  1483        	inc mp
 904  00C5  0700     E  	mov a,re
 904  00C6  0082        	mov ir,a
 904  00C7  1483        	inc mp
 904  00C8  0700     E  	mov a,rf
 904  00C9  0082        	mov ir,a
 904  00CA  1483        	inc mp
 904  00CB  0700     E  	mov a,rg
 904  00CC  0082        	mov ir,a
 905  00CD              #line 905 "f:\work\血糖仪\a_bh45f67-旧版\4g\美国客户\make_lib\v1.0.01（5000套出货)-02\g-777g-usa-bg95eseye-2022-2-20\runTask.c"
 905  00CD  0FB9        	mov a,low offset _Project_Sequence
 905  00CE  0083        	mov mp,a
 905  00CF  0F03        	mov a,high offset _Project_Sequence
 905  00D0  0081        	mov sbp,a
 905  00D1  0701        	mov a,sbp
 905  00D2  0D00     R  	or a,bank _Power_ON_OFF
 905  00D3  0084        	mov bp,a
 905  00D4  0702        	mov a,ir
 905  00D5  0080     E  	mov rd,a
 905  00D6  1483        	inc mp
 905  00D7  0702        	mov a,ir
 905  00D8  0080     E  	mov re,a
 905  00D9  1483        	inc mp
 905  00DA  0702        	mov a,ir
 905  00DB  0080     E  	mov rf,a
 905  00DC  1483        	inc mp
 905  00DD  0702        	mov a,ir
 905  00DE  0080     E  	mov rg,a
 905  00DF  0700     E  	mov a,rf
 905  00E0  0080     E  	mov rg,a
 905  00E1  0700     E  	mov a,re
 905  00E2  0080     E  	mov rf,a
 905  00E3  0700     E  	mov a,rd
 905  00E4  0080     E  	mov re,a
 905  00E5  1F00     E  	clr rd
 905  00E6  0FB9        	mov a,low offset _Project_Sequence
 905  00E7  0083        	mov mp,a
 905  00E8  0F03        	mov a,high offset _Project_Sequence
 905  00E9  0081        	mov sbp,a
 905  00EA  0701        	mov a,sbp
 905  00EB  0D00     R  	or a,bank _Power_ON_OFF
 905  00EC  0084        	mov bp,a
 905  00ED  0700     E  	mov a,rd
 905  00EE  0082        	mov ir,a
 905  00EF  1483        	inc mp
 905  00F0  0700     E  	mov a,re
 905  00F1  0082        	mov ir,a
 905  00F2  1483        	inc mp
 905  00F3  0700     E  	mov a,rf
 905  00F4  0082        	mov ir,a
 905  00F5  1483        	inc mp
 905  00F6  0700     E  	mov a,rg
 905  00F7  0082        	mov ir,a
 906  00F8              #line 906 "f:\work\血糖仪\a_bh45f67-旧版\4g\美国客户\make_lib\v1.0.01（5000套出货)-02\g-777g-usa-bg95eseye-2022-2-20\runTask.c"
 906  00F8  0FB9        	mov a,low offset _Project_Sequence
 906  00F9  0083        	mov mp,a
 906  00FA  0F03        	mov a,high offset _Project_Sequence
文件：runTask.c    编译器版本 HGASM 0202 页次82

 906  00FB  0081        	mov sbp,a
 906  00FC  0701        	mov a,sbp
 906  00FD  0D00     R  	or a,bank _Power_ON_OFF
 906  00FE  0084        	mov bp,a
 906  00FF  0702        	mov a,ir
 906  0100  0080     E  	mov rd,a
 906  0101  1483        	inc mp
 906  0102  0702        	mov a,ir
 906  0103  0080     E  	mov re,a
 906  0104  1483        	inc mp
 906  0105  0702        	mov a,ir
 906  0106  0080     E  	mov rf,a
 906  0107  1483        	inc mp
 906  0108  0702        	mov a,ir
 906  0109  0080     E  	mov rg,a
 906  010A  0F89        	mov a,low (offset _BLOOD_Package+9)
 906  010B  0083        	mov mp,a
 906  010C  0F02        	mov a,high (offset _BLOOD_Package+9)
 906  010D  0081        	mov sbp,a
 906  010E  0701        	mov a,sbp
 906  010F  0D00     R  	or a,bank _Power_ON_OFF
 906  0110  0084        	mov bp,a
 906  0111  0702        	mov a,ir
 906  0112  0080     E  	mov ra,a
 906  0113  0700     E  	mov a,ra
 906  0114  0080     R  	mov _Power_ON_OFF_2[0],a
 906  0115  1F00     R  	clr _Power_ON_OFF_2[1]
 906  0116  1F00     R  	clr _Power_ON_OFF_2[2]
 906  0117  1F00     R  	clr _Power_ON_OFF_2[3]
 906  0118  0700     R  	mov a,_Power_ON_OFF_2[3]
 906  0119  0580     E  	orm a,rg
 906  011A  0700     R  	mov a,_Power_ON_OFF_2[2]
 906  011B  0580     E  	orm a,rf
 906  011C  0700     R  	mov a,_Power_ON_OFF_2[1]
 906  011D  0580     E  	orm a,re
 906  011E  0700     R  	mov a,_Power_ON_OFF_2[0]
 906  011F  0580     E  	orm a,rd
 906  0120  0FB9        	mov a,low offset _Project_Sequence
 906  0121  0083        	mov mp,a
 906  0122  0F03        	mov a,high offset _Project_Sequence
 906  0123  0081        	mov sbp,a
 906  0124  0701        	mov a,sbp
 906  0125  0D00     R  	or a,bank _Power_ON_OFF
 906  0126  0084        	mov bp,a
 906  0127  0700     E  	mov a,rd
 906  0128  0082        	mov ir,a
 906  0129  1483        	inc mp
 906  012A  0700     E  	mov a,re
 906  012B  0082        	mov ir,a
 906  012C  1483        	inc mp
 906  012D  0700     E  	mov a,rf
 906  012E  0082        	mov ir,a
 906  012F  1483        	inc mp
 906  0130  0700     E  	mov a,rg
 906  0131  0082        	mov ir,a
 907  0132              #line 907 "f:\work\血糖仪\a_bh45f67-旧版\4g\美国客户\make_lib\v1.0.01（5000套出货)-02\g-777g-usa-bg95eseye-2022-2-20\runTask.c"
 907  0132  0FB9        	mov a,low offset _Project_Sequence
 907  0133  0083        	mov mp,a
 907  0134  0F03        	mov a,high offset _Project_Sequence
 907  0135  0081        	mov sbp,a
文件：runTask.c    编译器版本 HGASM 0202 页次83

 907  0136  0701        	mov a,sbp
 907  0137  0D00     R  	or a,bank _Power_ON_OFF
 907  0138  0084        	mov bp,a
 907  0139  0702        	mov a,ir
 907  013A  0080     E  	mov rd,a
 907  013B  1483        	inc mp
 907  013C  0702        	mov a,ir
 907  013D  0080     E  	mov re,a
 907  013E  1483        	inc mp
 907  013F  0702        	mov a,ir
 907  0140  0080     E  	mov rf,a
 907  0141  1483        	inc mp
 907  0142  0702        	mov a,ir
 907  0143  0080     E  	mov rg,a
 907  0144  0700     E  	mov a,rf
 907  0145  0080     E  	mov rg,a
 907  0146  0700     E  	mov a,re
 907  0147  0080     E  	mov rf,a
 907  0148  0700     E  	mov a,rd
 907  0149  0080     E  	mov re,a
 907  014A  1F00     E  	clr rd
 907  014B  0FB9        	mov a,low offset _Project_Sequence
 907  014C  0083        	mov mp,a
 907  014D  0F03        	mov a,high offset _Project_Sequence
 907  014E  0081        	mov sbp,a
 907  014F  0701        	mov a,sbp
 907  0150  0D00     R  	or a,bank _Power_ON_OFF
 907  0151  0084        	mov bp,a
 907  0152  0700     E  	mov a,rd
 907  0153  0082        	mov ir,a
 907  0154  1483        	inc mp
 907  0155  0700     E  	mov a,re
 907  0156  0082        	mov ir,a
 907  0157  1483        	inc mp
 907  0158  0700     E  	mov a,rf
 907  0159  0082        	mov ir,a
 907  015A  1483        	inc mp
 907  015B  0700     E  	mov a,rg
 907  015C  0082        	mov ir,a
 908  015D              #line 908 "f:\work\血糖仪\a_bh45f67-旧版\4g\美国客户\make_lib\v1.0.01（5000套出货)-02\g-777g-usa-bg95eseye-2022-2-20\runTask.c"
 908  015D  0FB9        	mov a,low offset _Project_Sequence
 908  015E  0083        	mov mp,a
 908  015F  0F03        	mov a,high offset _Project_Sequence
 908  0160  0081        	mov sbp,a
 908  0161  0701        	mov a,sbp
 908  0162  0D00     R  	or a,bank _Power_ON_OFF
 908  0163  0084        	mov bp,a
 908  0164  0702        	mov a,ir
 908  0165  0080     E  	mov rd,a
 908  0166  1483        	inc mp
 908  0167  0702        	mov a,ir
 908  0168  0080     E  	mov re,a
 908  0169  1483        	inc mp
 908  016A  0702        	mov a,ir
 908  016B  0080     E  	mov rf,a
 908  016C  1483        	inc mp
 908  016D  0702        	mov a,ir
 908  016E  0080     E  	mov rg,a
 908  016F  0F88        	mov a,low (offset _BLOOD_Package+8)
 908  0170  0083        	mov mp,a
文件：runTask.c    编译器版本 HGASM 0202 页次84

 908  0171  0F02        	mov a,high (offset _BLOOD_Package+8)
 908  0172  0081        	mov sbp,a
 908  0173  0701        	mov a,sbp
 908  0174  0D00     R  	or a,bank _Power_ON_OFF
 908  0175  0084        	mov bp,a
 908  0176  0702        	mov a,ir
 908  0177  0080     E  	mov ra,a
 908  0178  0700     E  	mov a,ra
 908  0179  0080     R  	mov _Power_ON_OFF_2[0],a
 908  017A  1F00     R  	clr _Power_ON_OFF_2[1]
 908  017B  1F00     R  	clr _Power_ON_OFF_2[2]
 908  017C  1F00     R  	clr _Power_ON_OFF_2[3]
 908  017D  0700     R  	mov a,_Power_ON_OFF_2[3]
 908  017E  0580     E  	orm a,rg
 908  017F  0700     R  	mov a,_Power_ON_OFF_2[2]
 908  0180  0580     E  	orm a,rf
 908  0181  0700     R  	mov a,_Power_ON_OFF_2[1]
 908  0182  0580     E  	orm a,re
 908  0183  0700     R  	mov a,_Power_ON_OFF_2[0]
 908  0184  0580     E  	orm a,rd
 908  0185  0FB9        	mov a,low offset _Project_Sequence
 908  0186  0083        	mov mp,a
 908  0187  0F03        	mov a,high offset _Project_Sequence
 908  0188  0081        	mov sbp,a
 908  0189  0701        	mov a,sbp
 908  018A  0D00     R  	or a,bank _Power_ON_OFF
 908  018B  0084        	mov bp,a
 908  018C  0700     E  	mov a,rd
 908  018D  0082        	mov ir,a
 908  018E  1483        	inc mp
 908  018F  0700     E  	mov a,re
 908  0190  0082        	mov ir,a
 908  0191  1483        	inc mp
 908  0192  0700     E  	mov a,rf
 908  0193  0082        	mov ir,a
 908  0194  1483        	inc mp
 908  0195  0700     E  	mov a,rg
 908  0196  0082        	mov ir,a
 909  0197              #line 909 "f:\work\血糖仪\a_bh45f67-旧版\4g\美国客户\make_lib\v1.0.01（5000套出货)-02\g-777g-usa-bg95eseye-2022-2-20\runTask.c"
 909  0197  0FB9        	mov a,low offset _Project_Sequence
 909  0198  0083        	mov mp,a
 909  0199  0F03        	mov a,high offset _Project_Sequence
 909  019A  0081        	mov sbp,a
 909  019B  0701        	mov a,sbp
 909  019C  0D00     R  	or a,bank _Power_ON_OFF
 909  019D  0084        	mov bp,a
 909  019E  0702        	mov a,ir
 909  019F  0080     E  	mov rd,a
 909  01A0  1483        	inc mp
 909  01A1  0702        	mov a,ir
 909  01A2  0080     E  	mov re,a
 909  01A3  1483        	inc mp
 909  01A4  0702        	mov a,ir
 909  01A5  0080     E  	mov rf,a
 909  01A6  1483        	inc mp
 909  01A7  0702        	mov a,ir
 909  01A8  0080     E  	mov rg,a
 909  01A9  0700     E  	mov a,rf
 909  01AA  0080     E  	mov rg,a
 909  01AB  0700     E  	mov a,re
文件：runTask.c    编译器版本 HGASM 0202 页次85

 909  01AC  0080     E  	mov rf,a
 909  01AD  0700     E  	mov a,rd
 909  01AE  0080     E  	mov re,a
 909  01AF  1F00     E  	clr rd
 909  01B0  0FB9        	mov a,low offset _Project_Sequence
 909  01B1  0083        	mov mp,a
 909  01B2  0F03        	mov a,high offset _Project_Sequence
 909  01B3  0081        	mov sbp,a
 909  01B4  0701        	mov a,sbp
 909  01B5  0D00     R  	or a,bank _Power_ON_OFF
 909  01B6  0084        	mov bp,a
 909  01B7  0700     E  	mov a,rd
 909  01B8  0082        	mov ir,a
 909  01B9  1483        	inc mp
 909  01BA  0700     E  	mov a,re
 909  01BB  0082        	mov ir,a
 909  01BC  1483        	inc mp
 909  01BD  0700     E  	mov a,rf
 909  01BE  0082        	mov ir,a
 909  01BF  1483        	inc mp
 909  01C0  0700     E  	mov a,rg
 909  01C1  0082        	mov ir,a
 910  01C2              #line 910 "f:\work\血糖仪\a_bh45f67-旧版\4g\美国客户\make_lib\v1.0.01（5000套出货)-02\g-777g-usa-bg95eseye-2022-2-20\runTask.c"
 910  01C2  0FB9        	mov a,low offset _Project_Sequence
 910  01C3  0083        	mov mp,a
 910  01C4  0F03        	mov a,high offset _Project_Sequence
 910  01C5  0081        	mov sbp,a
 910  01C6  0701        	mov a,sbp
 910  01C7  0D00     R  	or a,bank _Power_ON_OFF
 910  01C8  0084        	mov bp,a
 910  01C9  0702        	mov a,ir
 910  01CA  0080     E  	mov rd,a
 910  01CB  1483        	inc mp
 910  01CC  0702        	mov a,ir
 910  01CD  0080     E  	mov re,a
 910  01CE  1483        	inc mp
 910  01CF  0702        	mov a,ir
 910  01D0  0080     E  	mov rf,a
 910  01D1  1483        	inc mp
 910  01D2  0702        	mov a,ir
 910  01D3  0080     E  	mov rg,a
 910  01D4  0F87        	mov a,low (offset _BLOOD_Package+7)
 910  01D5  0083        	mov mp,a
 910  01D6  0F02        	mov a,high (offset _BLOOD_Package+7)
 910  01D7  0081        	mov sbp,a
 910  01D8  0701        	mov a,sbp
 910  01D9  0D00     R  	or a,bank _Power_ON_OFF
 910  01DA  0084        	mov bp,a
 910  01DB  0702        	mov a,ir
 910  01DC  0080     E  	mov ra,a
 910  01DD  0700     E  	mov a,ra
 910  01DE  0080     R  	mov _Power_ON_OFF_2[0],a
 910  01DF  1F00     R  	clr _Power_ON_OFF_2[1]
 910  01E0  1F00     R  	clr _Power_ON_OFF_2[2]
 910  01E1  1F00     R  	clr _Power_ON_OFF_2[3]
 910  01E2  0700     R  	mov a,_Power_ON_OFF_2[3]
 910  01E3  0580     E  	orm a,rg
 910  01E4  0700     R  	mov a,_Power_ON_OFF_2[2]
 910  01E5  0580     E  	orm a,rf
 910  01E6  0700     R  	mov a,_Power_ON_OFF_2[1]
文件：runTask.c    编译器版本 HGASM 0202 页次86

 910  01E7  0580     E  	orm a,re
 910  01E8  0700     R  	mov a,_Power_ON_OFF_2[0]
 910  01E9  0580     E  	orm a,rd
 910  01EA  0FB9        	mov a,low offset _Project_Sequence
 910  01EB  0083        	mov mp,a
 910  01EC  0F03        	mov a,high offset _Project_Sequence
 910  01ED  0081        	mov sbp,a
 910  01EE  0701        	mov a,sbp
 910  01EF  0D00     R  	or a,bank _Power_ON_OFF
 910  01F0  0084        	mov bp,a
 910  01F1  0700     E  	mov a,rd
 910  01F2  0082        	mov ir,a
 910  01F3  1483        	inc mp
 910  01F4  0700     E  	mov a,re
 910  01F5  0082        	mov ir,a
 910  01F6  1483        	inc mp
 910  01F7  0700     E  	mov a,rf
 910  01F8  0082        	mov ir,a
 910  01F9  1483        	inc mp
 910  01FA  0700     E  	mov a,rg
 910  01FB  0082        	mov ir,a
 912  01FC              #line 912 "f:\work\血糖仪\a_bh45f67-旧版\4g\美国客户\make_lib\v1.0.01（5000套出货)-02\g-777g-usa-bg95eseye-2022-2-20\runTask.c"
 912  01FC  0FC8        	mov a,low (offset _BLOOD_Package+72)
 912  01FD  0083        	mov mp,a
 912  01FE  0F02        	mov a,high (offset _BLOOD_Package+72)
 912  01FF  0081        	mov sbp,a
 912  0200  0701        	mov a,sbp
 912  0201  0D00     R  	or a,bank _Power_ON_OFF
 912  0202  0084        	mov bp,a
 912  0203  0702        	mov a,ir
 912  0204  0080     E  	mov rb,a
 912  0205  1F00     E  	clr rc
 912  0206  0FF8        	mov a,low offset _Pub_temp
 912  0207  0083        	mov mp,a
 912  0208  0F03        	mov a,high offset _Pub_temp
 912  0209  0081        	mov sbp,a
 912  020A  0701        	mov a,sbp
 912  020B  0D00     R  	or a,bank _Power_ON_OFF
 912  020C  0084        	mov bp,a
 912  020D  0700     E  	mov a,rb
 912  020E  0082        	mov ir,a
 912  020F  1483        	inc mp
 912  0210  0700     E  	mov a,rc
 912  0211  0082        	mov ir,a
 913  0212              #line 913 "f:\work\血糖仪\a_bh45f67-旧版\4g\美国客户\make_lib\v1.0.01（5000套出货)-02\g-777g-usa-bg95eseye-2022-2-20\runTask.c"
 913  0212  0FF8        	mov a,low offset _Pub_temp
 913  0213  0083        	mov mp,a
 913  0214  0F03        	mov a,high offset _Pub_temp
 913  0215  0081        	mov sbp,a
 913  0216  0701        	mov a,sbp
 913  0217  0D00     R  	or a,bank _Power_ON_OFF
 913  0218  0084        	mov bp,a
 913  0219  0702        	mov a,ir
 913  021A  0080     E  	mov rb,a
 913  021B  1483        	inc mp
 913  021C  0702        	mov a,ir
 913  021D  0080     E  	mov rc,a
 913  021E  0700     E  	mov a,rb
 913  021F  0080     E  	mov rc,a
 913  0220  1F00     E  	clr rb
文件：runTask.c    编译器版本 HGASM 0202 页次87

 913  0221  0FF8        	mov a,low offset _Pub_temp
 913  0222  0083        	mov mp,a
 913  0223  0F03        	mov a,high offset _Pub_temp
 913  0224  0081        	mov sbp,a
 913  0225  0701        	mov a,sbp
 913  0226  0D00     R  	or a,bank _Power_ON_OFF
 913  0227  0084        	mov bp,a
 913  0228  0700     E  	mov a,rb
 913  0229  0082        	mov ir,a
 913  022A  1483        	inc mp
 913  022B  0700     E  	mov a,rc
 913  022C  0082        	mov ir,a
 914  022D              #line 914 "f:\work\血糖仪\a_bh45f67-旧版\4g\美国客户\make_lib\v1.0.01（5000套出货)-02\g-777g-usa-bg95eseye-2022-2-20\runTask.c"
 914  022D  0FF8        	mov a,low offset _Pub_temp
 914  022E  0083        	mov mp,a
 914  022F  0F03        	mov a,high offset _Pub_temp
 914  0230  0081        	mov sbp,a
 914  0231  0701        	mov a,sbp
 914  0232  0D00     R  	or a,bank _Power_ON_OFF
 914  0233  0084        	mov bp,a
 914  0234  0702        	mov a,ir
 914  0235  0080     E  	mov rb,a
 914  0236  1483        	inc mp
 914  0237  0702        	mov a,ir
 914  0238  0080     E  	mov rc,a
 914  0239  0FC7        	mov a,low (offset _BLOOD_Package+71)
 914  023A  0083        	mov mp,a
 914  023B  0F02        	mov a,high (offset _BLOOD_Package+71)
 914  023C  0081        	mov sbp,a
 914  023D  0701        	mov a,sbp
 914  023E  0D00     R  	or a,bank _Power_ON_OFF
 914  023F  0084        	mov bp,a
 914  0240  0702        	mov a,ir
 914  0241  0080     E  	mov ra,a
 914  0242  0700     E  	mov a,ra
 914  0243  0580     E  	orm a,rb
 914  0244  0FF8        	mov a,low offset _Pub_temp
 914  0245  0083        	mov mp,a
 914  0246  0F03        	mov a,high offset _Pub_temp
 914  0247  0081        	mov sbp,a
 914  0248  0701        	mov a,sbp
 914  0249  0D00     R  	or a,bank _Power_ON_OFF
 914  024A  0084        	mov bp,a
 914  024B  0700     E  	mov a,rb
 914  024C  0082        	mov ir,a
 914  024D  1483        	inc mp
 914  024E  0700     E  	mov a,rc
 914  024F  0082        	mov ir,a
 915  0250              #line 915 "f:\work\血糖仪\a_bh45f67-旧版\4g\美国客户\make_lib\v1.0.01（5000套出货)-02\g-777g-usa-bg95eseye-2022-2-20\runTask.c"
 915  0250  0FC9        	mov a,low (offset _BLOOD_Package+73)
 915  0251  0083        	mov mp,a
 915  0252  0F02        	mov a,high (offset _BLOOD_Package+73)
 915  0253  0081        	mov sbp,a
 915  0254  0701        	mov a,sbp
 915  0255  0D00     R  	or a,bank _Power_ON_OFF
 915  0256  0084        	mov bp,a
 915  0257  0702        	mov a,ir
 915  0258  0080     E  	mov ra,a
 915  0259  0F01        	mov a,1
 915  025A  0680     E  	andm a,ra
文件：runTask.c    编译器版本 HGASM 0202 页次88

 915  025B  0700     E  	mov a,ra
 915  025C  0300     E  	add a,ra
 915  025D  0080     E  	mov rb,a
 915  025E  0F83        	mov a,low (offset _SystemFlags+3)
 915  025F  0083        	mov mp,a
 915  0260  0F03        	mov a,high (offset _SystemFlags+3)
 915  0261  0081        	mov sbp,a
 915  0262  0701        	mov a,sbp
 915  0263  0D00     R  	or a,bank _Power_ON_OFF
 915  0264  0084        	mov bp,a
 915  0265  0702        	mov a,ir
 915  0266  0080     E  	mov ra,a
 915  0267  3400     E  	clr ra.1
 915  0268  0700     E  	mov a,rb
 915  0269  0580     E  	orm a,ra
 915  026A  0701        	mov a,sbp
 915  026B  0D00     R  	or a,bank _Power_ON_OFF
 915  026C  0084        	mov bp,a
 915  026D  0700     E  	mov a,ra
 915  026E  0082        	mov ir,a
 916  026F              #line 916 "f:\work\血糖仪\a_bh45f67-旧版\4g\美国客户\make_lib\v1.0.01（5000套出货)-02\g-777g-usa-bg95eseye-2022-2-20\runTask.c"
 916  026F              ;# 916 "f:\work\血糖仪\a_bh45f67-旧版\4g\美国客户\make_lib\v1.0.01（5000套出货)-02\g-777g-usa-bg95eseye-2022-2-20\runTask.c" 1
 916  026F  0001        	clr wdt
 917  0270              #line 917 "f:\work\血糖仪\a_bh45f67-旧版\4g\美国客户\make_lib\v1.0.01（5000套出货)-02\g-777g-usa-bg95eseye-2022-2-20\runTask.c"
 917  0270  0FF4        	mov a,-12
 917  0271  0080     E  	mov _me_delay_ms_2[0],a
 917  0272  0F01        	mov a,1
 917  0273  0080     E  	mov _me_delay_ms_2[1],a
 917  0274              	fcall _me_delay_ms
 918  027B              #line 918 "f:\work\血糖仪\a_bh45f67-旧版\4g\美国客户\make_lib\v1.0.01（5000套出货)-02\g-777g-usa-bg95eseye-2022-2-20\runTask.c"
 918  027B              ;# 918 "f:\work\血糖仪\a_bh45f67-旧版\4g\美国客户\make_lib\v1.0.01（5000套出货)-02\g-777g-usa-bg95eseye-2022-2-20\runTask.c" 1
 918  027B  0001        	clr wdt
 919  027C              #line 919 "f:\work\血糖仪\a_bh45f67-旧版\4g\美国客户\make_lib\v1.0.01（5000套出货)-02\g-777g-usa-bg95eseye-2022-2-20\runTask.c"
 919  027C  0FF4        	mov a,-12
 919  027D  0080     E  	mov _me_delay_ms_2[0],a
 919  027E  0F01        	mov a,1
 919  027F  0080     E  	mov _me_delay_ms_2[1],a
 919  0280              	fcall _me_delay_ms
 920  0287              #line 920 "f:\work\血糖仪\a_bh45f67-旧版\4g\美国客户\make_lib\v1.0.01（5000套出货)-02\g-777g-usa-bg95eseye-2022-2-20\runTask.c"
 920  0287              ;# 920 "f:\work\血糖仪\a_bh45f67-旧版\4g\美国客户\make_lib\v1.0.01（5000套出货)-02\g-777g-usa-bg95eseye-2022-2-20\runTask.c" 1
 920  0287  0001        	clr wdt
 928  0288              #line 928 "f:\work\血糖仪\a_bh45f67-旧版\4g\美国客户\make_lib\v1.0.01（5000套出货)-02\g-777g-usa-bg95eseye-2022-2-20\runTask.c"
 928  0288  0F10        	mov a,16
 928  0289  0080     E  	mov _memset_2[4],a
 928  028A  1F00     E  	clr _memset_2[5]
 928  028B  1F00     E  	clr _memset_2[2]
 928  028C  1F00     E  	clr _memset_2[3]
 928  028D  0F9E        	mov a,low offset _disp_buff
 928  028E  0080     E  	mov _memset_2[0],a
 928  028F  0F03        	mov a,high offset _disp_buff
 928  0290  0080     E  	mov _memset_2[1],a
 928  0291              	fcall _memset
 929  0298              #line 929 "f:\work\血糖仪\a_bh45f67-旧版\4g\美国客户\make_lib\v1.0.01（5000套出货)-02\g-777g-usa-bg95eseye-2022-2-20\runTask.c"
 929  0298              	fcall _show_display
 930  029F              #line 930 "f:\work\血糖仪\a_bh45f67-旧版\4g\美国客户\make_lib\v1.0.01（5000套出货)-02\g-777g-usa-bg95eseye-2022-2-20\runTask.c"
 930  029F              	fcall _Get_Battery
 931  02A6              #line 931 "f:\work\血糖仪\a_bh45f67-旧版\4g\美国客户\make_lib\v1.0.01（5000套出货)-02\g-777g-usa-bg95eseye-2022-2-20\runTask.c"
 931  02A6  0F86        	mov a,low (offset _SystemFlags+6)
 931  02A7  0083        	mov mp,a
 931  02A8  0F03        	mov a,high (offset _SystemFlags+6)
文件：runTask.c    编译器版本 HGASM 0202 页次89

 931  02A9  0081        	mov sbp,a
 931  02AA  0701        	mov a,sbp
 931  02AB  0D00     R  	or a,bank _Power_ON_OFF
 931  02AC  0084        	mov bp,a
 931  02AD  0702        	mov a,ir
 931  02AE  0080     E  	mov ra,a
 931  02AF  1080     E  	sz ra
 931  02B0  2800     R  	jmp _L133
 933  02B1              #line 933 "f:\work\血糖仪\a_bh45f67-旧版\4g\美国客户\make_lib\v1.0.01（5000套出货)-02\g-777g-usa-bg95eseye-2022-2-20\runTask.c"
 933  02B1              	fcall _uart_close
 934  02B8              #line 934 "f:\work\血糖仪\a_bh45f67-旧版\4g\美国客户\make_lib\v1.0.01（5000套出货)-02\g-777g-usa-bg95eseye-2022-2-20\runTask.c"
 934  02B8              	fcall _displey_EB
 935  02BF              #line 935 "f:\work\血糖仪\a_bh45f67-旧版\4g\美国客户\make_lib\v1.0.01（5000套出货)-02\g-777g-usa-bg95eseye-2022-2-20\runTask.c"
 935  02BF              ;# 935 "f:\work\血糖仪\a_bh45f67-旧版\4g\美国客户\make_lib\v1.0.01（5000套出货)-02\g-777g-usa-bg95eseye-2022-2-20\runTask.c" 1
 935  02BF  0001        	clr wdt
 936  02C0              #line 936 "f:\work\血糖仪\a_bh45f67-旧版\4g\美国客户\make_lib\v1.0.01（5000套出货)-02\g-777g-usa-bg95eseye-2022-2-20\runTask.c"
 936  02C0  0FF4        	mov a,-12
 936  02C1  0080     E  	mov _me_delay_ms_2[0],a
 936  02C2  0F01        	mov a,1
 936  02C3  0080     E  	mov _me_delay_ms_2[1],a
 936  02C4              	fcall _me_delay_ms
 937  02CB              #line 937 "f:\work\血糖仪\a_bh45f67-旧版\4g\美国客户\make_lib\v1.0.01（5000套出货)-02\g-777g-usa-bg95eseye-2022-2-20\runTask.c"
 937  02CB              ;# 937 "f:\work\血糖仪\a_bh45f67-旧版\4g\美国客户\make_lib\v1.0.01（5000套出货)-02\g-777g-usa-bg95eseye-2022-2-20\runTask.c" 1
 937  02CB  0001        	clr wdt
 938  02CC              #line 938 "f:\work\血糖仪\a_bh45f67-旧版\4g\美国客户\make_lib\v1.0.01（5000套出货)-02\g-777g-usa-bg95eseye-2022-2-20\runTask.c"
 938  02CC  0FF4        	mov a,-12
 938  02CD  0080     E  	mov _me_delay_ms_2[0],a
 938  02CE  0F01        	mov a,1
 938  02CF  0080     E  	mov _me_delay_ms_2[1],a
 938  02D0              	fcall _me_delay_ms
 939  02D7              #line 939 "f:\work\血糖仪\a_bh45f67-旧版\4g\美国客户\make_lib\v1.0.01（5000套出货)-02\g-777g-usa-bg95eseye-2022-2-20\runTask.c"
 939  02D7              ;# 939 "f:\work\血糖仪\a_bh45f67-旧版\4g\美国客户\make_lib\v1.0.01（5000套出货)-02\g-777g-usa-bg95eseye-2022-2-20\runTask.c" 1
 939  02D7  0001        	clr wdt
 940  02D8              #line 940 "f:\work\血糖仪\a_bh45f67-旧版\4g\美国客户\make_lib\v1.0.01（5000套出货)-02\g-777g-usa-bg95eseye-2022-2-20\runTask.c"
 940  02D8              	fcall _Show_OFF
 941  02DF              #line 941 "f:\work\血糖仪\a_bh45f67-旧版\4g\美国客户\make_lib\v1.0.01（5000套出货)-02\g-777g-usa-bg95eseye-2022-2-20\runTask.c"
 941  02DF              ;# 941 "f:\work\血糖仪\a_bh45f67-旧版\4g\美国客户\make_lib\v1.0.01（5000套出货)-02\g-777g-usa-bg95eseye-2022-2-20\runTask.c" 1
 941  02DF  0001        	clr wdt
 942  02E0              #line 942 "f:\work\血糖仪\a_bh45f67-旧版\4g\美国客户\make_lib\v1.0.01（5000套出货)-02\g-777g-usa-bg95eseye-2022-2-20\runTask.c"
 942  02E0  0FF4        	mov a,-12
 942  02E1  0080     E  	mov _me_delay_ms_2[0],a
 942  02E2  0F01        	mov a,1
 942  02E3  0080     E  	mov _me_delay_ms_2[1],a
 942  02E4              	fcall _me_delay_ms
 943  02EB              #line 943 "f:\work\血糖仪\a_bh45f67-旧版\4g\美国客户\make_lib\v1.0.01（5000套出货)-02\g-777g-usa-bg95eseye-2022-2-20\runTask.c"
 943  02EB              ;# 943 "f:\work\血糖仪\a_bh45f67-旧版\4g\美国客户\make_lib\v1.0.01（5000套出货)-02\g-777g-usa-bg95eseye-2022-2-20\runTask.c" 1
 943  02EB  0001        	clr wdt
 944  02EC              #line 944 "f:\work\血糖仪\a_bh45f67-旧版\4g\美国客户\make_lib\v1.0.01（5000套出货)-02\g-777g-usa-bg95eseye-2022-2-20\runTask.c"
 944  02EC  0FF4        	mov a,-12
 944  02ED  0080     E  	mov _me_delay_ms_2[0],a
 944  02EE  0F01        	mov a,1
 944  02EF  0080     E  	mov _me_delay_ms_2[1],a
 944  02F0              	fcall _me_delay_ms
 945  02F7              #line 945 "f:\work\血糖仪\a_bh45f67-旧版\4g\美国客户\make_lib\v1.0.01（5000套出货)-02\g-777g-usa-bg95eseye-2022-2-20\runTask.c"
 945  02F7              ;# 945 "f:\work\血糖仪\a_bh45f67-旧版\4g\美国客户\make_lib\v1.0.01（5000套出货)-02\g-777g-usa-bg95eseye-2022-2-20\runTask.c" 1
 945  02F7  0001        	clr wdt
 946  02F8              #line 946 "f:\work\血糖仪\a_bh45f67-旧版\4g\美国客户\make_lib\v1.0.01（5000套出货)-02\g-777g-usa-bg95eseye-2022-2-20\runTask.c"
 946  02F8  1F00     E  	clr ra
 946  02F9  2800     R  	jmp _L130
 946  02FA              _L133:
文件：runTask.c    编译器版本 HGASM 0202 页次90

 948  02FA              #line 948 "f:\work\血糖仪\a_bh45f67-旧版\4g\美国客户\make_lib\v1.0.01（5000套出货)-02\g-777g-usa-bg95eseye-2022-2-20\runTask.c"
 948  02FA  3D1A        	sz [26].2
 948  02FB  2800     R  	jmp _L140
 950  02FC              #line 950 "f:\work\血糖仪\a_bh45f67-旧版\4g\美国客户\make_lib\v1.0.01（5000套出货)-02\g-777g-usa-bg95eseye-2022-2-20\runTask.c"
 950  02FC              ;# 950 "f:\work\血糖仪\a_bh45f67-旧版\4g\美国客户\make_lib\v1.0.01（5000套出货)-02\g-777g-usa-bg95eseye-2022-2-20\runTask.c" 1
 950  02FC  0001        	clr wdt
 950  02FD  2800     R  	jmp _L133
 950  02FE              _L140:
 952  02FE              #line 952 "f:\work\血糖仪\a_bh45f67-旧版\4g\美国客户\make_lib\v1.0.01（5000套出货)-02\g-777g-usa-bg95eseye-2022-2-20\runTask.c"
 952  02FE  0F80        	mov a,-128
 952  02FF  0080     E  	mov _memset_2[4],a
 952  0300  1F00     E  	clr _memset_2[5]
 952  0301  1F00     E  	clr _memset_2[2]
 952  0302  1F00     E  	clr _memset_2[3]
 952  0303  0F80        	mov a,low offset _BLOOD_Package
 952  0304  0080     E  	mov _memset_2[0],a
 952  0305  0F02        	mov a,high offset _BLOOD_Package
 952  0306  0080     E  	mov _memset_2[1],a
 952  0307              	fcall _memset
 953  030E              #line 953 "f:\work\血糖仪\a_bh45f67-旧版\4g\美国客户\make_lib\v1.0.01（5000套出货)-02\g-777g-usa-bg95eseye-2022-2-20\runTask.c"
 953  030E  0F80        	mov a,-128
 953  030F  0080     E  	mov _fun_read_page_2[0],a
 953  0310  0F7F        	mov a,127
 953  0311  0080     E  	mov _fun_read_page_2[1],a
 953  0312  1F00     E  	clr _fun_read_page_2[2]
 953  0313  1F00     E  	clr _fun_read_page_2[3]
 953  0314              	fcall _fun_read_page
 954  031B              #line 954 "f:\work\血糖仪\a_bh45f67-旧版\4g\美国客户\make_lib\v1.0.01（5000套出货)-02\g-777g-usa-bg95eseye-2022-2-20\runTask.c"
 954  031B  0F94        	mov a,low (offset _BLOOD_Package+20)
 954  031C  0083        	mov mp,a
 954  031D  0F02        	mov a,high (offset _BLOOD_Package+20)
 954  031E  0081        	mov sbp,a
 954  031F  0701        	mov a,sbp
 954  0320  0D00     R  	or a,bank _Power_ON_OFF
 954  0321  0084        	mov bp,a
 954  0322  0702        	mov a,ir
 954  0323  0080     E  	mov rb,a
 954  0324  1F00     E  	clr rc
 954  0325  0FBD        	mov a,low offset _Mem_sequence
 954  0326  0083        	mov mp,a
 954  0327  0F03        	mov a,high offset _Mem_sequence
 954  0328  0081        	mov sbp,a
 954  0329  0701        	mov a,sbp
 954  032A  0D00     R  	or a,bank _Power_ON_OFF
 954  032B  0084        	mov bp,a
 954  032C  0700     E  	mov a,rb
 954  032D  0082        	mov ir,a
 954  032E  1483        	inc mp
 954  032F  0700     E  	mov a,rc
 954  0330  0082        	mov ir,a
 955  0331              #line 955 "f:\work\血糖仪\a_bh45f67-旧版\4g\美国客户\make_lib\v1.0.01（5000套出货)-02\g-777g-usa-bg95eseye-2022-2-20\runTask.c"
 955  0331  0FBD        	mov a,low offset _Mem_sequence
 955  0332  0083        	mov mp,a
 955  0333  0F03        	mov a,high offset _Mem_sequence
 955  0334  0081        	mov sbp,a
 955  0335  0701        	mov a,sbp
 955  0336  0D00     R  	or a,bank _Power_ON_OFF
 955  0337  0084        	mov bp,a
 955  0338  0702        	mov a,ir
 955  0339  0080     E  	mov rb,a
文件：runTask.c    编译器版本 HGASM 0202 页次91

 955  033A  1483        	inc mp
 955  033B  0702        	mov a,ir
 955  033C  0080     E  	mov rc,a
 955  033D  0700     E  	mov a,rb
 955  033E  0080     E  	mov rc,a
 955  033F  1F00     E  	clr rb
 955  0340  0FBD        	mov a,low offset _Mem_sequence
 955  0341  0083        	mov mp,a
 955  0342  0F03        	mov a,high offset _Mem_sequence
 955  0343  0081        	mov sbp,a
 955  0344  0701        	mov a,sbp
 955  0345  0D00     R  	or a,bank _Power_ON_OFF
 955  0346  0084        	mov bp,a
 955  0347  0700     E  	mov a,rb
 955  0348  0082        	mov ir,a
 955  0349  1483        	inc mp
 955  034A  0700     E  	mov a,rc
 955  034B  0082        	mov ir,a
 956  034C              #line 956 "f:\work\血糖仪\a_bh45f67-旧版\4g\美国客户\make_lib\v1.0.01（5000套出货)-02\g-777g-usa-bg95eseye-2022-2-20\runTask.c"
 956  034C  0FBD        	mov a,low offset _Mem_sequence
 956  034D  0083        	mov mp,a
 956  034E  0F03        	mov a,high offset _Mem_sequence
 956  034F  0081        	mov sbp,a
 956  0350  0701        	mov a,sbp
 956  0351  0D00     R  	or a,bank _Power_ON_OFF
 956  0352  0084        	mov bp,a
 956  0353  0702        	mov a,ir
 956  0354  0080     E  	mov rb,a
 956  0355  1483        	inc mp
 956  0356  0702        	mov a,ir
 956  0357  0080     E  	mov rc,a
 956  0358  0F93        	mov a,low (offset _BLOOD_Package+19)
 956  0359  0083        	mov mp,a
 956  035A  0F02        	mov a,high (offset _BLOOD_Package+19)
 956  035B  0081        	mov sbp,a
 956  035C  0701        	mov a,sbp
 956  035D  0D00     R  	or a,bank _Power_ON_OFF
 956  035E  0084        	mov bp,a
 956  035F  0702        	mov a,ir
 956  0360  0080     E  	mov ra,a
 956  0361  0700     E  	mov a,ra
 956  0362  0580     E  	orm a,rb
 956  0363  0FBD        	mov a,low offset _Mem_sequence
 956  0364  0083        	mov mp,a
 956  0365  0F03        	mov a,high offset _Mem_sequence
 956  0366  0081        	mov sbp,a
 956  0367  0701        	mov a,sbp
 956  0368  0D00     R  	or a,bank _Power_ON_OFF
 956  0369  0084        	mov bp,a
 956  036A  0700     E  	mov a,rb
 956  036B  0082        	mov ir,a
 956  036C  1483        	inc mp
 956  036D  0700     E  	mov a,rc
 956  036E  0082        	mov ir,a
 957  036F              #line 957 "f:\work\血糖仪\a_bh45f67-旧版\4g\美国客户\make_lib\v1.0.01（5000套出货)-02\g-777g-usa-bg95eseye-2022-2-20\runTask.c"
 957  036F  0F84        	mov a,low (offset _SystemFlags+4)
 957  0370  0083        	mov mp,a
 957  0371  0F03        	mov a,high (offset _SystemFlags+4)
 957  0372  0081        	mov sbp,a
 957  0373  0701        	mov a,sbp
文件：runTask.c    编译器版本 HGASM 0202 页次92

 957  0374  0D00     R  	or a,bank _Power_ON_OFF
 957  0375  0084        	mov bp,a
 957  0376  0F01        	mov a,1
 957  0377  0082        	mov ir,a
 959  0378              #line 959 "f:\work\血糖仪\a_bh45f67-旧版\4g\美国客户\make_lib\v1.0.01（5000套出货)-02\g-777g-usa-bg95eseye-2022-2-20\runTask.c"
 959  0378  0FFE        	mov a,254
 959  0379  0383        	addm a,mp
 959  037A  0FFF        	mov a,255
 959  037B  1381        	adcm a,sbp
 959  037C  0701        	mov a,sbp
 959  037D  0D00     R  	or a,bank _Power_ON_OFF
 959  037E  0084        	mov bp,a
 959  037F  3082        	set ir.1
 960  0380              #line 960 "f:\work\血糖仪\a_bh45f67-旧版\4g\美国客户\make_lib\v1.0.01（5000套出货)-02\g-777g-usa-bg95eseye-2022-2-20\runTask.c"
 960  0380  0F80        	mov a,low offset _SystemFlags
 960  0381  0083        	mov mp,a
 960  0382  0F03        	mov a,high offset _SystemFlags
 960  0383  0081        	mov sbp,a
 960  0384  0701        	mov a,sbp
 960  0385  0D00     R  	or a,bank _Power_ON_OFF
 960  0386  0084        	mov bp,a
 960  0387  3202        	set ir.4
 961  0388              #line 961 "f:\work\血糖仪\a_bh45f67-旧版\4g\美国客户\make_lib\v1.0.01（5000套出货)-02\g-777g-usa-bg95eseye-2022-2-20\runTask.c"
 961  0388  0F05        	mov a,5
 961  0389  0383        	addm a,mp
 961  038A  0F00        	mov a,0
 961  038B  1381        	adcm a,sbp
 961  038C  0701        	mov a,sbp
 961  038D  0D00     R  	or a,bank _Power_ON_OFF
 961  038E  0084        	mov bp,a
 961  038F  0F00        	mov a,0
 961  0390  0082        	mov ir,a
 962  0391              #line 962 "f:\work\血糖仪\a_bh45f67-旧版\4g\美国客户\make_lib\v1.0.01（5000套出货)-02\g-777g-usa-bg95eseye-2022-2-20\runTask.c"
 962  0391  0FFC        	mov a,252
 962  0392  0383        	addm a,mp
 962  0393  0FFF        	mov a,255
 962  0394  1381        	adcm a,sbp
 962  0395  0701        	mov a,sbp
 962  0396  0D00     R  	or a,bank _Power_ON_OFF
 962  0397  0084        	mov bp,a
 962  0398  0702        	mov a,ir
 962  0399  0080     E  	mov ra,a
 962  039A  3400     E  	clr ra.4
 963  039B              #line 963 "f:\work\血糖仪\a_bh45f67-旧版\4g\美国客户\make_lib\v1.0.01（5000套出货)-02\g-777g-usa-bg95eseye-2022-2-20\runTask.c"
 963  039B  3000     E  	set ra.7
 963  039C  0701        	mov a,sbp
 963  039D  0D00     R  	or a,bank _Power_ON_OFF
 963  039E  0084        	mov bp,a
 963  039F  0700     E  	mov a,ra
 963  03A0  0082        	mov ir,a
 964  03A1              #line 964 "f:\work\血糖仪\a_bh45f67-旧版\4g\美国客户\make_lib\v1.0.01（5000套出货)-02\g-777g-usa-bg95eseye-2022-2-20\runTask.c"
 964  03A1              	fcall _Get_Temperature
 964  03A8  0080     E  	mov ra,a
 964  03A9  0FFD        	mov a,low offset _staic_Temperature
 964  03AA  0083        	mov mp,a
 964  03AB  0F03        	mov a,high offset _staic_Temperature
 964  03AC  0081        	mov sbp,a
 964  03AD  0701        	mov a,sbp
 964  03AE  0D00     R  	or a,bank _Power_ON_OFF
 964  03AF  0084        	mov bp,a
文件：runTask.c    编译器版本 HGASM 0202 页次93

 964  03B0  0700     E  	mov a,ra
 964  03B1  0082        	mov ir,a
 965  03B2              #line 965 "f:\work\血糖仪\a_bh45f67-旧版\4g\美国客户\make_lib\v1.0.01（5000套出货)-02\g-777g-usa-bg95eseye-2022-2-20\runTask.c"
 965  03B2  0F81        	mov a,low (offset _SystemFlags+1)
 965  03B3  0083        	mov mp,a
 965  03B4  0F03        	mov a,high (offset _SystemFlags+1)
 965  03B5  0081        	mov sbp,a
 965  03B6  0701        	mov a,sbp
 965  03B7  0D00     R  	or a,bank _Power_ON_OFF
 965  03B8  0084        	mov bp,a
 965  03B9  3502        	clr ir.2
 966  03BA              #line 966 "f:\work\血糖仪\a_bh45f67-旧版\4g\美国客户\make_lib\v1.0.01（5000套出货)-02\g-777g-usa-bg95eseye-2022-2-20\runTask.c"
 966  03BA  0FBB        	mov a,low offset _Second
 966  03BB  0083        	mov mp,a
 966  03BC  0F04        	mov a,high offset _Second
 966  03BD  0081        	mov sbp,a
 966  03BE  0701        	mov a,sbp
 966  03BF  0D00     R  	or a,bank _Power_ON_OFF
 966  03C0  0084        	mov bp,a
 966  03C1  1F02        	clr ir
 966  03C2  1483        	inc mp
 966  03C3  1F02        	clr ir
 966  03C4  2800     R  	jmp _L130
 966  03C5              _L131:
 970  03C5              #line 970 "f:\work\血糖仪\a_bh45f67-旧版\4g\美国客户\make_lib\v1.0.01（5000套出货)-02\g-777g-usa-bg95eseye-2022-2-20\runTask.c"
 970  03C5  3A1A        	snz [26].4
 970  03C6  2800     R  	jmp _L130
 975  03C7              #line 975 "f:\work\血糖仪\a_bh45f67-旧版\4g\美国客户\make_lib\v1.0.01（5000套出货)-02\g-777g-usa-bg95eseye-2022-2-20\runTask.c"
 975  03C7  0FBB        	mov a,low offset _Second
 975  03C8  0083        	mov mp,a
 975  03C9  0F04        	mov a,high offset _Second
 975  03CA  0081        	mov sbp,a
 975  03CB  0701        	mov a,sbp
 975  03CC  0D00     R  	or a,bank _Power_ON_OFF
 975  03CD  0084        	mov bp,a
 975  03CE  1F02        	clr ir
 975  03CF  1483        	inc mp
 975  03D0  1F02        	clr ir
 976  03D1              #line 976 "f:\work\血糖仪\a_bh45f67-旧版\4g\美国客户\make_lib\v1.0.01（5000套出货)-02\g-777g-usa-bg95eseye-2022-2-20\runTask.c"
 976  03D1              	fcall _Show_OFF
 977  03D8              #line 977 "f:\work\血糖仪\a_bh45f67-旧版\4g\美国客户\make_lib\v1.0.01（5000套出货)-02\g-777g-usa-bg95eseye-2022-2-20\runTask.c"
 977  03D8              	fcall _show_display
 978  03DF              #line 978 "f:\work\血糖仪\a_bh45f67-旧版\4g\美国客户\make_lib\v1.0.01（5000套出货)-02\g-777g-usa-bg95eseye-2022-2-20\runTask.c"
 978  03DF              ;# 978 "f:\work\血糖仪\a_bh45f67-旧版\4g\美国客户\make_lib\v1.0.01（5000套出货)-02\g-777g-usa-bg95eseye-2022-2-20\runTask.c" 1
 978  03DF  0001        	clr wdt
 979  03E0              #line 979 "f:\work\血糖仪\a_bh45f67-旧版\4g\美国客户\make_lib\v1.0.01（5000套出货)-02\g-777g-usa-bg95eseye-2022-2-20\runTask.c"
 979  03E0  0FF4        	mov a,-12
 979  03E1  0080     E  	mov _me_delay_ms_2[0],a
 979  03E2  0F01        	mov a,1
 979  03E3  0080     E  	mov _me_delay_ms_2[1],a
 979  03E4              	fcall _me_delay_ms
 980  03EB              #line 980 "f:\work\血糖仪\a_bh45f67-旧版\4g\美国客户\make_lib\v1.0.01（5000套出货)-02\g-777g-usa-bg95eseye-2022-2-20\runTask.c"
 980  03EB              ;# 980 "f:\work\血糖仪\a_bh45f67-旧版\4g\美国客户\make_lib\v1.0.01（5000套出货)-02\g-777g-usa-bg95eseye-2022-2-20\runTask.c" 1
 980  03EB  0001        	clr wdt
 981  03EC              #line 981 "f:\work\血糖仪\a_bh45f67-旧版\4g\美国客户\make_lib\v1.0.01（5000套出货)-02\g-777g-usa-bg95eseye-2022-2-20\runTask.c"
 981  03EC  0FF4        	mov a,-12
 981  03ED  0080     E  	mov _me_delay_ms_2[0],a
 981  03EE  0F01        	mov a,1
 981  03EF  0080     E  	mov _me_delay_ms_2[1],a
 981  03F0              	fcall _me_delay_ms
文件：runTask.c    编译器版本 HGASM 0202 页次94

 982  03F7              #line 982 "f:\work\血糖仪\a_bh45f67-旧版\4g\美国客户\make_lib\v1.0.01（5000套出货)-02\g-777g-usa-bg95eseye-2022-2-20\runTask.c"
 982  03F7              ;# 982 "f:\work\血糖仪\a_bh45f67-旧版\4g\美国客户\make_lib\v1.0.01（5000套出货)-02\g-777g-usa-bg95eseye-2022-2-20\runTask.c" 1
 982  03F7  0001        	clr wdt
 983  03F8              #line 983 "f:\work\血糖仪\a_bh45f67-旧版\4g\美国客户\make_lib\v1.0.01（5000套出货)-02\g-777g-usa-bg95eseye-2022-2-20\runTask.c"
 983  03F8  0F81        	mov a,low (offset _SystemFlags+1)
 983  03F9  0083        	mov mp,a
 983  03FA  0F03        	mov a,high (offset _SystemFlags+1)
 983  03FB  0081        	mov sbp,a
 983  03FC  0701        	mov a,sbp
 983  03FD  0D00     R  	or a,bank _Power_ON_OFF
 983  03FE  0084        	mov bp,a
 983  03FF  3782        	clr ir.7
 984  0400              #line 984 "f:\work\血糖仪\a_bh45f67-旧版\4g\美国客户\make_lib\v1.0.01（5000套出货)-02\g-777g-usa-bg95eseye-2022-2-20\runTask.c"
 984  0400  0FFA        	mov a,low offset _Mem_sequence_count
 984  0401  0083        	mov mp,a
 984  0402  0F03        	mov a,high offset _Mem_sequence_count
 984  0403  0081        	mov sbp,a
 984  0404  0701        	mov a,sbp
 984  0405  0D00     R  	or a,bank _Power_ON_OFF
 984  0406  0084        	mov bp,a
 984  0407  1F02        	clr ir
 984  0408  1483        	inc mp
 984  0409  1F02        	clr ir
 985  040A              #line 985 "f:\work\血糖仪\a_bh45f67-旧版\4g\美国客户\make_lib\v1.0.01（5000套出货)-02\g-777g-usa-bg95eseye-2022-2-20\runTask.c"
 985  040A  0F10        	mov a,16
 985  040B  0080     E  	mov _memset_2[4],a
 985  040C  1F00     E  	clr _memset_2[5]
 985  040D  1F80     E  	set _memset_2[2]
 985  040E  1F00     E  	clr _memset_2[3]
 985  040F  0F8E        	mov a,low offset _flash
 985  0410  0080     E  	mov _memset_2[0],a
 985  0411  0F03        	mov a,high offset _flash
 985  0412  0080     E  	mov _memset_2[1],a
 985  0413              	fcall _memset
 986  041A              #line 986 "f:\work\血糖仪\a_bh45f67-旧版\4g\美国客户\make_lib\v1.0.01（5000套出货)-02\g-777g-usa-bg95eseye-2022-2-20\runTask.c"
 986  041A  0F10        	mov a,16
 986  041B  0080     E  	mov _memset_2[4],a
 986  041C  1F00     E  	clr _memset_2[5]
 986  041D  1F00     E  	clr _memset_2[2]
 986  041E  1F00     E  	clr _memset_2[3]
 986  041F  0F9E        	mov a,low offset _disp_buff
 986  0420  0080     E  	mov _memset_2[0],a
 986  0421  0F03        	mov a,high offset _disp_buff
 986  0422  0080     E  	mov _memset_2[1],a
 986  0423              	fcall _memset
 986  042A              _L130:
 989  042A              #line 989 "f:\work\血糖仪\a_bh45f67-旧版\4g\美国客户\make_lib\v1.0.01（5000套出货)-02\g-777g-usa-bg95eseye-2022-2-20\runTask.c"
 989  042A  0700     E  	mov a,ra
 989  042B  0003        	ret
 989  042C              _Power_ON_OFF endp
 989  042C              #line 989 "f:\work\血糖仪\a_bh45f67-旧版\4g\美国客户\make_lib\v1.0.01（5000套出货)-02\g-777g-usa-bg95eseye-2022-2-20\runTask.c"
 989  042C              #pragma debug scope 1 1
 989  042C              public _check_sys_Year
 989  042C              #pragma debug scope 16 1
 991  042C              #line 991 "f:\work\血糖仪\a_bh45f67-旧版\4g\美国客户\make_lib\v1.0.01（5000套出货)-02\g-777g-usa-bg95eseye-2022-2-20\runTask.c"
 991  0000              _check_sys_Year .section 'code'
 991  0000              _check_sys_Year proc
 994  0000              #line 994 "f:\work\血糖仪\a_bh45f67-旧版\4g\美国客户\make_lib\v1.0.01（5000套出货)-02\g-777g-usa-bg95eseye-2022-2-20\runTask.c"
 994  0000  0FB0        	mov a,low offset _sys_Year
 994  0001  0083        	mov mp,a
文件：runTask.c    编译器版本 HGASM 0202 页次95

 994  0002  0F03        	mov a,high offset _sys_Year
 994  0003  0081        	mov sbp,a
 994  0004  0701        	mov a,sbp
 994  0005  0D00     R  	or a,bank _check_sys_Year
 994  0006  0084        	mov bp,a
 994  0007  0702        	mov a,ir
 994  0008  0080     E  	mov rb,a
 994  0009  1483        	inc mp
 994  000A  0702        	mov a,ir
 994  000B  0080     E  	mov rc,a
 994  000C  0700     E  	mov a,rc
 994  000D  0080     E  	mov _builtin_holtek_mant1[1],a
 994  000E  0700     E  	mov a,rb
 994  000F  0080     E  	mov _builtin_holtek_mant1[0],a
 994  0010  3400     E  	clr _builtin_holtek_signs.0
 994  0011              	fcall _builtin_holtek_uitof
 994  0018  0700     E  	mov a,_builtin_holtek_mant1[2]
 994  0019  0080     E  	mov re,a
 994  001A  0700     E  	mov a,_builtin_holtek_mant1[1]
 994  001B  0080     E  	mov rd,a
 994  001C  0700     E  	mov a,_builtin_holtek_mant1[0]
 994  001D  0080     E  	mov rc,a
 995  001E              #line 995 "f:\work\血糖仪\a_bh45f67-旧版\4g\美国客户\make_lib\v1.0.01（5000套出货)-02\g-777g-usa-bg95eseye-2022-2-20\runTask.c"
 995  001E  0700     E  	mov a,re
 995  001F  0080     E  	mov _builtin_holtek_mant1[2],a
 995  0020  0700     E  	mov a,rd
 995  0021  0080     E  	mov _builtin_holtek_mant1[1],a
 995  0022  0700     E  	mov a,rc
 995  0023  0080     E  	mov _builtin_holtek_mant1[0],a
 995  0024  0F43        	mov a,67
 995  0025  0080     E  	mov _builtin_holtek_mant2[2],a
 995  0026  0FC8        	mov a,200
 995  0027  0080     E  	mov _builtin_holtek_mant2[1],a
 995  0028  0F00        	mov a,0
 995  0029  0080     E  	mov _builtin_holtek_mant2[0],a
 995  002A              	fcall _builtin_holtek_ftdiv
 995  0031  0700     E  	mov a,_builtin_holtek_mant1[2]
 995  0032  0080     E  	mov rc,a
 995  0033  0700     E  	mov a,_builtin_holtek_mant1[1]
 995  0034  0080     E  	mov rb,a
 995  0035  0700     E  	mov a,_builtin_holtek_mant1[0]
 995  0036  0080     E  	mov ra,a
 997  0037              #line 997 "f:\work\血糖仪\a_bh45f67-旧版\4g\美国客户\make_lib\v1.0.01（5000套出货)-02\g-777g-usa-bg95eseye-2022-2-20\runTask.c"
 997  0037  1F00     E  	clr _builtin_holtek_mant12p[0]
 997  0038  0700     E  	mov a,rc
 997  0039  0080     E  	mov _builtin_holtek_mant1[2],a
 997  003A  0700     E  	mov a,rb
 997  003B  0080     E  	mov _builtin_holtek_mant1[1],a
 997  003C  0700     E  	mov a,ra
 997  003D  0080     E  	mov _builtin_holtek_mant1[0],a
 997  003E              	fcall _builtin_holtek_ftol
 997  0045  0700     E  	mov a,_builtin_holtek_mant12p[0]
 997  0046  0080     E  	mov rg,a
 997  0047  0700     E  	mov a,_builtin_holtek_mant1[2]
 997  0048  0080     E  	mov rf,a
 997  0049  0700     E  	mov a,_builtin_holtek_mant1[1]
 997  004A  0080     E  	mov re,a
 997  004B  0700     E  	mov a,_builtin_holtek_mant1[0]
 997  004C  0080     E  	mov rd,a
 997  004D  0700     E  	mov a,rd
文件：runTask.c    编译器版本 HGASM 0202 页次96

 997  004E  0080     E  	mov rd,a
 997  004F  0700     E  	mov a,re
 997  0050  0080     E  	mov re,a
 997  0051  1F05        	clr acc
 997  0052  3C00     E  	sz re.7
 997  0053  1F85        	set acc
 997  0054  0080     E  	mov rf,a
 997  0055  0080     E  	mov rg,a
 998  0056              #line 998 "f:\work\血糖仪\a_bh45f67-旧版\4g\美国客户\make_lib\v1.0.01（5000套出货)-02\g-777g-usa-bg95eseye-2022-2-20\runTask.c"
 998  0056  0700     E  	mov a,rg
 998  0057  0080     E  	mov _builtin_holtek_mant12p[0],a
 998  0058  0700     E  	mov a,rf
 998  0059  0080     E  	mov _builtin_holtek_mant1[2],a
 998  005A  0700     E  	mov a,re
 998  005B  0080     E  	mov _builtin_holtek_mant1[1],a
 998  005C  0700     E  	mov a,rd
 998  005D  0080     E  	mov _builtin_holtek_mant1[0],a
 998  005E  3400     E  	clr _builtin_holtek_signs.0
 998  005F              	fcall _builtin_holtek_ultof
 998  0066  0700     E  	mov a,_builtin_holtek_mant1[2]
 998  0067  0080     E  	mov rh,a
 998  0068  0700     E  	mov a,_builtin_holtek_mant1[1]
 998  0069  0080     E  	mov rg,a
 998  006A  0700     E  	mov a,_builtin_holtek_mant1[0]
 998  006B  0080     E  	mov rf,a
 998  006C  0700     E  	mov a,rc
 998  006D  0080     E  	mov _builtin_holtek_mant1[2],a
 998  006E  0700     E  	mov a,rb
 998  006F  0080     E  	mov _builtin_holtek_mant1[1],a
 998  0070  0700     E  	mov a,ra
 998  0071  0080     E  	mov _builtin_holtek_mant1[0],a
 998  0072  0700     E  	mov a,rh
 998  0073  0080     E  	mov _builtin_holtek_mant2[2],a
 998  0074  0700     E  	mov a,rg
 998  0075  0080     E  	mov _builtin_holtek_mant2[1],a
 998  0076  0700     E  	mov a,rf
 998  0077  0080     E  	mov _builtin_holtek_mant2[0],a
 998  0078              	fcall _builtin_holtek_ftsub
 998  007F  0700     E  	mov a,_builtin_holtek_mant1[2]
 998  0080  0080     E  	mov re,a
 998  0081  0700     E  	mov a,_builtin_holtek_mant1[1]
 998  0082  0080     E  	mov rd,a
 998  0083  0700     E  	mov a,_builtin_holtek_mant1[0]
 998  0084  0080     E  	mov rc,a
 998  0085  0700     E  	mov a,re
 998  0086  0080     E  	mov _builtin_holtek_mant1[2],a
 998  0087  0700     E  	mov a,rd
 998  0088  0080     E  	mov _builtin_holtek_mant1[1],a
 998  0089  0700     E  	mov a,rc
 998  008A  0080     E  	mov _builtin_holtek_mant1[0],a
 998  008B  0F42        	mov a,66
 998  008C  0080     E  	mov _builtin_holtek_mant2[2],a
 998  008D  0FC8        	mov a,200
 998  008E  0080     E  	mov _builtin_holtek_mant2[1],a
 998  008F  0F00        	mov a,0
 998  0090  0080     E  	mov _builtin_holtek_mant2[0],a
 998  0091              	fcall _builtin_holtek_ftmul
 998  0098  0700     E  	mov a,_builtin_holtek_mant1[2]
 998  0099  0080     E  	mov re,a
 998  009A  0700     E  	mov a,_builtin_holtek_mant1[1]
文件：runTask.c    编译器版本 HGASM 0202 页次97

 998  009B  0080     E  	mov rd,a
 998  009C  0700     E  	mov a,_builtin_holtek_mant1[0]
 998  009D  0080     E  	mov rc,a
 998  009E  0700     E  	mov a,rc
 998  009F  0C00        	xor a,0
 998  00A0  0700     E  	mov a,rd
 998  00A1  3D0A        	sz z
 998  00A2  0C00        	xor a,0
 998  00A3  0700     E  	mov a,re
 998  00A4  3D0A        	sz z
 998  00A5  0C00        	xor a,0
 998  00A6  3D0A        	sz z
 998  00A7  2800     R  	jmp _L145
1003  00A8              #line 1003 "f:\work\血糖仪\a_bh45f67-旧版\4g\美国客户\make_lib\v1.0.01（5000套出货)-02\g-777g-usa-bg95eseye-2022-2-20\runTask.c"
1003  00A8  0FB0        	mov a,low offset _sys_Year
1003  00A9  0083        	mov mp,a
1003  00AA  0F03        	mov a,high offset _sys_Year
1003  00AB  0081        	mov sbp,a
1003  00AC  0701        	mov a,sbp
1003  00AD  0D00     R  	or a,bank _check_sys_Year
1003  00AE  0084        	mov bp,a
1003  00AF  0702        	mov a,ir
1003  00B0  0080     E  	mov rb,a
1003  00B1  1483        	inc mp
1003  00B2  0702        	mov a,ir
1003  00B3  0080     E  	mov rc,a
1003  00B4  0700     E  	mov a,rc
1003  00B5  0080     E  	mov _builtin_holtek_mant1[1],a
1003  00B6  0700     E  	mov a,rb
1003  00B7  0080     E  	mov _builtin_holtek_mant1[0],a
1003  00B8  3400     E  	clr _builtin_holtek_signs.0
1003  00B9              	fcall _builtin_holtek_uitof
1003  00C0  0700     E  	mov a,_builtin_holtek_mant1[2]
1003  00C1  0080     E  	mov re,a
1003  00C2  0700     E  	mov a,_builtin_holtek_mant1[1]
1003  00C3  0080     E  	mov rd,a
1003  00C4  0700     E  	mov a,_builtin_holtek_mant1[0]
1003  00C5  0080     E  	mov rc,a
1004  00C6              #line 1004 "f:\work\血糖仪\a_bh45f67-旧版\4g\美国客户\make_lib\v1.0.01（5000套出货)-02\g-777g-usa-bg95eseye-2022-2-20\runTask.c"
1004  00C6  0700     E  	mov a,re
1004  00C7  0080     E  	mov _builtin_holtek_mant1[2],a
1004  00C8  0700     E  	mov a,rd
1004  00C9  0080     E  	mov _builtin_holtek_mant1[1],a
1004  00CA  0700     E  	mov a,rc
1004  00CB  0080     E  	mov _builtin_holtek_mant1[0],a
1004  00CC  0F42        	mov a,66
1004  00CD  0080     E  	mov _builtin_holtek_mant2[2],a
1004  00CE  0FC8        	mov a,200
1004  00CF  0080     E  	mov _builtin_holtek_mant2[1],a
1004  00D0  0F00        	mov a,0
1004  00D1  0080     E  	mov _builtin_holtek_mant2[0],a
1004  00D2              	fcall _builtin_holtek_ftdiv
1004  00D9  0700     E  	mov a,_builtin_holtek_mant1[2]
1004  00DA  0080     E  	mov rc,a
1004  00DB  0700     E  	mov a,_builtin_holtek_mant1[1]
1004  00DC  0080     E  	mov rb,a
1004  00DD  0700     E  	mov a,_builtin_holtek_mant1[0]
1004  00DE  0080     E  	mov ra,a
1006  00DF              #line 1006 "f:\work\血糖仪\a_bh45f67-旧版\4g\美国客户\make_lib\v1.0.01（5000套出货)-02\g-777g-usa-bg95eseye-2022-2-20\runTask.c"
1006  00DF  1F00     E  	clr _builtin_holtek_mant12p[0]
文件：runTask.c    编译器版本 HGASM 0202 页次98

1006  00E0  0700     E  	mov a,rc
1006  00E1  0080     E  	mov _builtin_holtek_mant1[2],a
1006  00E2  0700     E  	mov a,rb
1006  00E3  0080     E  	mov _builtin_holtek_mant1[1],a
1006  00E4  0700     E  	mov a,ra
1006  00E5  0080     E  	mov _builtin_holtek_mant1[0],a
1006  00E6              	fcall _builtin_holtek_ftol
1006  00ED  0700     E  	mov a,_builtin_holtek_mant12p[0]
1006  00EE  0080     E  	mov rg,a
1006  00EF  0700     E  	mov a,_builtin_holtek_mant1[2]
1006  00F0  0080     E  	mov rf,a
1006  00F1  0700     E  	mov a,_builtin_holtek_mant1[1]
1006  00F2  0080     E  	mov re,a
1006  00F3  0700     E  	mov a,_builtin_holtek_mant1[0]
1006  00F4  0080     E  	mov rd,a
1006  00F5  0700     E  	mov a,rd
1006  00F6  0080     E  	mov rd,a
1006  00F7  0700     E  	mov a,re
1006  00F8  0080     E  	mov re,a
1006  00F9  1F05        	clr acc
1006  00FA  3C00     E  	sz re.7
1006  00FB  1F85        	set acc
1006  00FC  0080     E  	mov rf,a
1006  00FD  0080     E  	mov rg,a
1007  00FE              #line 1007 "f:\work\血糖仪\a_bh45f67-旧版\4g\美国客户\make_lib\v1.0.01（5000套出货)-02\g-777g-usa-bg95eseye-2022-2-20\runTask.c"
1007  00FE  0700     E  	mov a,rg
1007  00FF  0080     E  	mov _builtin_holtek_mant12p[0],a
1007  0100  0700     E  	mov a,rf
1007  0101  0080     E  	mov _builtin_holtek_mant1[2],a
1007  0102  0700     E  	mov a,re
1007  0103  0080     E  	mov _builtin_holtek_mant1[1],a
1007  0104  0700     E  	mov a,rd
1007  0105  0080     E  	mov _builtin_holtek_mant1[0],a
1007  0106  3400     E  	clr _builtin_holtek_signs.0
1007  0107              	fcall _builtin_holtek_ultof
1007  010E  0700     E  	mov a,_builtin_holtek_mant1[2]
1007  010F  0080     E  	mov rh,a
1007  0110  0700     E  	mov a,_builtin_holtek_mant1[1]
1007  0111  0080     E  	mov rg,a
1007  0112  0700     E  	mov a,_builtin_holtek_mant1[0]
1007  0113  0080     E  	mov rf,a
1007  0114  0700     E  	mov a,rc
1007  0115  0080     E  	mov _builtin_holtek_mant1[2],a
1007  0116  0700     E  	mov a,rb
1007  0117  0080     E  	mov _builtin_holtek_mant1[1],a
1007  0118  0700     E  	mov a,ra
1007  0119  0080     E  	mov _builtin_holtek_mant1[0],a
1007  011A  0700     E  	mov a,rh
1007  011B  0080     E  	mov _builtin_holtek_mant2[2],a
1007  011C  0700     E  	mov a,rg
1007  011D  0080     E  	mov _builtin_holtek_mant2[1],a
1007  011E  0700     E  	mov a,rf
1007  011F  0080     E  	mov _builtin_holtek_mant2[0],a
1007  0120              	fcall _builtin_holtek_ftsub
1007  0127  0700     E  	mov a,_builtin_holtek_mant1[2]
1007  0128  0080     E  	mov re,a
1007  0129  0700     E  	mov a,_builtin_holtek_mant1[1]
1007  012A  0080     E  	mov rd,a
1007  012B  0700     E  	mov a,_builtin_holtek_mant1[0]
1007  012C  0080     E  	mov rc,a
文件：runTask.c    编译器版本 HGASM 0202 页次99

1007  012D  0700     E  	mov a,re
1007  012E  0080     E  	mov _builtin_holtek_mant1[2],a
1007  012F  0700     E  	mov a,rd
1007  0130  0080     E  	mov _builtin_holtek_mant1[1],a
1007  0131  0700     E  	mov a,rc
1007  0132  0080     E  	mov _builtin_holtek_mant1[0],a
1007  0133  0F42        	mov a,66
1007  0134  0080     E  	mov _builtin_holtek_mant2[2],a
1007  0135  0FC8        	mov a,200
1007  0136  0080     E  	mov _builtin_holtek_mant2[1],a
1007  0137  0F00        	mov a,0
1007  0138  0080     E  	mov _builtin_holtek_mant2[0],a
1007  0139              	fcall _builtin_holtek_ftmul
1007  0140  0700     E  	mov a,_builtin_holtek_mant1[2]
1007  0141  0080     E  	mov re,a
1007  0142  0700     E  	mov a,_builtin_holtek_mant1[1]
1007  0143  0080     E  	mov rd,a
1007  0144  0700     E  	mov a,_builtin_holtek_mant1[0]
1007  0145  0080     E  	mov rc,a
1007  0146  0700     E  	mov a,rc
1007  0147  0C00        	xor a,0
1007  0148  0700     E  	mov a,rd
1007  0149  3D0A        	sz z
1007  014A  0C00        	xor a,0
1007  014B  0700     E  	mov a,re
1007  014C  3D0A        	sz z
1007  014D  0C00        	xor a,0
1007  014E  390A        	snz z
1007  014F  2800     R  	jmp _L143
1007  0150              _L144:
1018  0150              #line 1018 "f:\work\血糖仪\a_bh45f67-旧版\4g\美国客户\make_lib\v1.0.01（5000套出货)-02\g-777g-usa-bg95eseye-2022-2-20\runTask.c"
1018  0150  1F00     E  	clr ra
1018  0151  2800     R  	jmp _L142
1018  0152              _L143:
1009  0152              #line 1009 "f:\work\血糖仪\a_bh45f67-旧版\4g\美国客户\make_lib\v1.0.01（5000套出货)-02\g-777g-usa-bg95eseye-2022-2-20\runTask.c"
1009  0152  0FB0        	mov a,low offset _sys_Year
1009  0153  0083        	mov mp,a
1009  0154  0F03        	mov a,high offset _sys_Year
1009  0155  0081        	mov sbp,a
1009  0156  0701        	mov a,sbp
1009  0157  0D00     R  	or a,bank _check_sys_Year
1009  0158  0084        	mov bp,a
1009  0159  0702        	mov a,ir
1009  015A  0080     E  	mov rb,a
1009  015B  1483        	inc mp
1009  015C  0702        	mov a,ir
1009  015D  0080     E  	mov rc,a
1009  015E  0700     E  	mov a,rc
1009  015F  0080     E  	mov _builtin_holtek_mant1[1],a
1009  0160  0700     E  	mov a,rb
1009  0161  0080     E  	mov _builtin_holtek_mant1[0],a
1009  0162  3400     E  	clr _builtin_holtek_signs.0
1009  0163              	fcall _builtin_holtek_uitof
1009  016A  0700     E  	mov a,_builtin_holtek_mant1[2]
1009  016B  0080     E  	mov re,a
1009  016C  0700     E  	mov a,_builtin_holtek_mant1[1]
1009  016D  0080     E  	mov rd,a
1009  016E  0700     E  	mov a,_builtin_holtek_mant1[0]
1009  016F  0080     E  	mov rc,a
1010  0170              #line 1010 "f:\work\血糖仪\a_bh45f67-旧版\4g\美国客户\make_lib\v1.0.01（5000套出货)-02\g-777g-usa-bg95eseye-2022-2-20\runTask.c"
文件：runTask.c    编译器版本 HGASM 0202 页次100

1010  0170  0700     E  	mov a,re
1010  0171  0080     E  	mov _builtin_holtek_mant1[2],a
1010  0172  0700     E  	mov a,rd
1010  0173  0080     E  	mov _builtin_holtek_mant1[1],a
1010  0174  0700     E  	mov a,rc
1010  0175  0080     E  	mov _builtin_holtek_mant1[0],a
1010  0176  0F3E        	mov a,62
1010  0177  0080     E  	mov _builtin_holtek_mant2[2],a
1010  0178  0F80        	mov a,128
1010  0179  0080     E  	mov _builtin_holtek_mant2[1],a
1010  017A  0F00        	mov a,0
1010  017B  0080     E  	mov _builtin_holtek_mant2[0],a
1010  017C              	fcall _builtin_holtek_ftmul
1010  0183  0700     E  	mov a,_builtin_holtek_mant1[2]
1010  0184  0080     E  	mov rc,a
1010  0185  0700     E  	mov a,_builtin_holtek_mant1[1]
1010  0186  0080     E  	mov rb,a
1010  0187  0700     E  	mov a,_builtin_holtek_mant1[0]
1010  0188  0080     E  	mov ra,a
1012  0189              #line 1012 "f:\work\血糖仪\a_bh45f67-旧版\4g\美国客户\make_lib\v1.0.01（5000套出货)-02\g-777g-usa-bg95eseye-2022-2-20\runTask.c"
1012  0189  1F00     E  	clr _builtin_holtek_mant12p[0]
1012  018A  0700     E  	mov a,rc
1012  018B  0080     E  	mov _builtin_holtek_mant1[2],a
1012  018C  0700     E  	mov a,rb
1012  018D  0080     E  	mov _builtin_holtek_mant1[1],a
1012  018E  0700     E  	mov a,ra
1012  018F  0080     E  	mov _builtin_holtek_mant1[0],a
1012  0190              	fcall _builtin_holtek_ftol
1012  0197  0700     E  	mov a,_builtin_holtek_mant12p[0]
1012  0198  0080     E  	mov rg,a
1012  0199  0700     E  	mov a,_builtin_holtek_mant1[2]
1012  019A  0080     E  	mov rf,a
1012  019B  0700     E  	mov a,_builtin_holtek_mant1[1]
1012  019C  0080     E  	mov re,a
1012  019D  0700     E  	mov a,_builtin_holtek_mant1[0]
1012  019E  0080     E  	mov rd,a
1012  019F  0700     E  	mov a,rd
1012  01A0  0080     E  	mov rd,a
1012  01A1  0700     E  	mov a,re
1012  01A2  0080     E  	mov re,a
1012  01A3  1F05        	clr acc
1012  01A4  3C00     E  	sz re.7
1012  01A5  1F85        	set acc
1012  01A6  0080     E  	mov rf,a
1012  01A7  0080     E  	mov rg,a
1013  01A8              #line 1013 "f:\work\血糖仪\a_bh45f67-旧版\4g\美国客户\make_lib\v1.0.01（5000套出货)-02\g-777g-usa-bg95eseye-2022-2-20\runTask.c"
1013  01A8  0700     E  	mov a,rg
1013  01A9  0080     E  	mov _builtin_holtek_mant12p[0],a
1013  01AA  0700     E  	mov a,rf
1013  01AB  0080     E  	mov _builtin_holtek_mant1[2],a
1013  01AC  0700     E  	mov a,re
1013  01AD  0080     E  	mov _builtin_holtek_mant1[1],a
1013  01AE  0700     E  	mov a,rd
1013  01AF  0080     E  	mov _builtin_holtek_mant1[0],a
1013  01B0  3400     E  	clr _builtin_holtek_signs.0
1013  01B1              	fcall _builtin_holtek_ultof
1013  01B8  0700     E  	mov a,_builtin_holtek_mant1[2]
1013  01B9  0080     E  	mov rh,a
1013  01BA  0700     E  	mov a,_builtin_holtek_mant1[1]
1013  01BB  0080     E  	mov rg,a
文件：runTask.c    编译器版本 HGASM 0202 页次101

1013  01BC  0700     E  	mov a,_builtin_holtek_mant1[0]
1013  01BD  0080     E  	mov rf,a
1013  01BE  0700     E  	mov a,rc
1013  01BF  0080     E  	mov _builtin_holtek_mant1[2],a
1013  01C0  0700     E  	mov a,rb
1013  01C1  0080     E  	mov _builtin_holtek_mant1[1],a
1013  01C2  0700     E  	mov a,ra
1013  01C3  0080     E  	mov _builtin_holtek_mant1[0],a
1013  01C4  0700     E  	mov a,rh
1013  01C5  0080     E  	mov _builtin_holtek_mant2[2],a
1013  01C6  0700     E  	mov a,rg
1013  01C7  0080     E  	mov _builtin_holtek_mant2[1],a
1013  01C8  0700     E  	mov a,rf
1013  01C9  0080     E  	mov _builtin_holtek_mant2[0],a
1013  01CA              	fcall _builtin_holtek_ftsub
1013  01D1  0700     E  	mov a,_builtin_holtek_mant1[2]
1013  01D2  0080     E  	mov re,a
1013  01D3  0700     E  	mov a,_builtin_holtek_mant1[1]
1013  01D4  0080     E  	mov rd,a
1013  01D5  0700     E  	mov a,_builtin_holtek_mant1[0]
1013  01D6  0080     E  	mov rc,a
1013  01D7  0700     E  	mov a,re
1013  01D8  0080     E  	mov _builtin_holtek_mant1[2],a
1013  01D9  0700     E  	mov a,rd
1013  01DA  0080     E  	mov _builtin_holtek_mant1[1],a
1013  01DB  0700     E  	mov a,rc
1013  01DC  0080     E  	mov _builtin_holtek_mant1[0],a
1013  01DD  0F42        	mov a,66
1013  01DE  0080     E  	mov _builtin_holtek_mant2[2],a
1013  01DF  0FC8        	mov a,200
1013  01E0  0080     E  	mov _builtin_holtek_mant2[1],a
1013  01E1  0F00        	mov a,0
1013  01E2  0080     E  	mov _builtin_holtek_mant2[0],a
1013  01E3              	fcall _builtin_holtek_ftmul
1013  01EA  0700     E  	mov a,_builtin_holtek_mant1[2]
1013  01EB  0080     E  	mov re,a
1013  01EC  0700     E  	mov a,_builtin_holtek_mant1[1]
1013  01ED  0080     E  	mov rd,a
1013  01EE  0700     E  	mov a,_builtin_holtek_mant1[0]
1013  01EF  0080     E  	mov rc,a
1013  01F0  0700     E  	mov a,rc
1013  01F1  0C00        	xor a,0
1013  01F2  0700     E  	mov a,rd
1013  01F3  3D0A        	sz z
1013  01F4  0C00        	xor a,0
1013  01F5  0700     E  	mov a,re
1013  01F6  3D0A        	sz z
1013  01F7  0C00        	xor a,0
1013  01F8  390A        	snz z
1013  01F9  2800     R  	jmp _L144
1013  01FA              _L145:
1000  01FA              #line 1000 "f:\work\血糖仪\a_bh45f67-旧版\4g\美国客户\make_lib\v1.0.01（5000套出货)-02\g-777g-usa-bg95eseye-2022-2-20\runTask.c"
1000  01FA  0F01        	mov a,1
1000  01FB  0080     E  	mov ra,a
1000  01FC              _L142:
1019  01FC              #line 1019 "f:\work\血糖仪\a_bh45f67-旧版\4g\美国客户\make_lib\v1.0.01（5000套出货)-02\g-777g-usa-bg95eseye-2022-2-20\runTask.c"
1019  01FC  0700     E  	mov a,ra
1019  01FD  0003        	ret
1019  01FE              _check_sys_Year endp
1019  01FE              #line 1019 "f:\work\血糖仪\a_bh45f67-旧版\4g\美国客户\make_lib\v1.0.01（5000套出货)-02\g-777g-usa-bg95eseye-2022-2-20\runTask.c"
文件：runTask.c    编译器版本 HGASM 0202 页次102

1019  01FE              #pragma debug scope 1 1
1019  01FE              public _run_time
1019  01FE              #pragma debug scope 17 1
1021  01FE              #line 1021 "f:\work\血糖仪\a_bh45f67-旧版\4g\美国客户\make_lib\v1.0.01（5000套出货)-02\g-777g-usa-bg95eseye-2022-2-20\runTask.c"
1021  0000              _run_time .section 'code'
1021  0000              _run_time proc
1021  0000  00              local _run_time_2 db 1 dup(?)	; 0,1
1022  0001              #line 1022 "f:\work\血糖仪\a_bh45f67-旧版\4g\美国客户\make_lib\v1.0.01（5000套出货)-02\g-777g-usa-bg95eseye-2022-2-20\runTask.c"
1022  0000  0FB6        	mov a,low offset _sys_Second
1022  0001  0083        	mov mp,a
1022  0002  0F03        	mov a,high offset _sys_Second
1022  0003  0081        	mov sbp,a
1022  0004  0701        	mov a,sbp
1022  0005  0D00     R  	or a,bank _run_time
1022  0006  0084        	mov bp,a
1022  0007  0702        	mov a,ir
1022  0008  0080     R  	mov _run_time_2[0],a
1022  0009  1400     R  	inca _run_time_2[0]
1022  000A  0080     E  	mov ra,a
1022  000B  0701        	mov a,sbp
1022  000C  0D00     R  	or a,bank _run_time
1022  000D  0084        	mov bp,a
1022  000E  0700     E  	mov a,ra
1022  000F  0082        	mov ir,a
1023  0010              #line 1023 "f:\work\血糖仪\a_bh45f67-旧版\4g\美国客户\make_lib\v1.0.01（5000套出货)-02\g-777g-usa-bg95eseye-2022-2-20\runTask.c"
1023  0010  0F3B        	mov a,59
1023  0011  0200     E  	sub a,ra
1023  0012  3C0A        	sz c
1023  0013  2800     R  	jmp _L146
1025  0014              #line 1025 "f:\work\血糖仪\a_bh45f67-旧版\4g\美国客户\make_lib\v1.0.01（5000套出货)-02\g-777g-usa-bg95eseye-2022-2-20\runTask.c"
1025  0014  0701        	mov a,sbp
1025  0015  0D00     R  	or a,bank _run_time
1025  0016  0084        	mov bp,a
1025  0017  0F00        	mov a,0
1025  0018  0082        	mov ir,a
1026  0019              #line 1026 "f:\work\血糖仪\a_bh45f67-旧版\4g\美国客户\make_lib\v1.0.01（5000套出货)-02\g-777g-usa-bg95eseye-2022-2-20\runTask.c"
1026  0019  0FB5        	mov a,low offset _sys_Minute
1026  001A  0083        	mov mp,a
1026  001B  0F03        	mov a,high offset _sys_Minute
1026  001C  0081        	mov sbp,a
1026  001D  0701        	mov a,sbp
1026  001E  0D00     R  	or a,bank _run_time
1026  001F  0084        	mov bp,a
1026  0020  0702        	mov a,ir
1026  0021  0080     R  	mov _run_time_2[0],a
1026  0022  1400     R  	inca _run_time_2[0]
1026  0023  0080     E  	mov ra,a
1026  0024  0701        	mov a,sbp
1026  0025  0D00     R  	or a,bank _run_time
1026  0026  0084        	mov bp,a
1026  0027  0700     E  	mov a,ra
1026  0028  0082        	mov ir,a
1027  0029              #line 1027 "f:\work\血糖仪\a_bh45f67-旧版\4g\美国客户\make_lib\v1.0.01（5000套出货)-02\g-777g-usa-bg95eseye-2022-2-20\runTask.c"
1027  0029  0F3B        	mov a,59
1027  002A  0200     E  	sub a,ra
1027  002B  3C0A        	sz c
1027  002C  2800     R  	jmp _L146
1029  002D              #line 1029 "f:\work\血糖仪\a_bh45f67-旧版\4g\美国客户\make_lib\v1.0.01（5000套出货)-02\g-777g-usa-bg95eseye-2022-2-20\runTask.c"
1029  002D  0701        	mov a,sbp
1029  002E  0D00     R  	or a,bank _run_time
文件：runTask.c    编译器版本 HGASM 0202 页次103

1029  002F  0084        	mov bp,a
1029  0030  0F00        	mov a,0
1029  0031  0082        	mov ir,a
1030  0032              #line 1030 "f:\work\血糖仪\a_bh45f67-旧版\4g\美国客户\make_lib\v1.0.01（5000套出货)-02\g-777g-usa-bg95eseye-2022-2-20\runTask.c"
1030  0032  0FB4        	mov a,low offset _sys_Hour
1030  0033  0083        	mov mp,a
1030  0034  0F03        	mov a,high offset _sys_Hour
1030  0035  0081        	mov sbp,a
1030  0036  0701        	mov a,sbp
1030  0037  0D00     R  	or a,bank _run_time
1030  0038  0084        	mov bp,a
1030  0039  0702        	mov a,ir
1030  003A  0080     R  	mov _run_time_2[0],a
1030  003B  1400     R  	inca _run_time_2[0]
1030  003C  0080     E  	mov ra,a
1030  003D  0701        	mov a,sbp
1030  003E  0D00     R  	or a,bank _run_time
1030  003F  0084        	mov bp,a
1030  0040  0700     E  	mov a,ra
1030  0041  0082        	mov ir,a
1031  0042              #line 1031 "f:\work\血糖仪\a_bh45f67-旧版\4g\美国客户\make_lib\v1.0.01（5000套出货)-02\g-777g-usa-bg95eseye-2022-2-20\runTask.c"
1031  0042  0F17        	mov a,23
1031  0043  0200     E  	sub a,ra
1031  0044  3C0A        	sz c
1031  0045  2800     R  	jmp _L146
1033  0046              #line 1033 "f:\work\血糖仪\a_bh45f67-旧版\4g\美国客户\make_lib\v1.0.01（5000套出货)-02\g-777g-usa-bg95eseye-2022-2-20\runTask.c"
1033  0046  0701        	mov a,sbp
1033  0047  0D00     R  	or a,bank _run_time
1033  0048  0084        	mov bp,a
1033  0049  0F00        	mov a,0
1033  004A  0082        	mov ir,a
1034  004B              #line 1034 "f:\work\血糖仪\a_bh45f67-旧版\4g\美国客户\make_lib\v1.0.01（5000套出货)-02\g-777g-usa-bg95eseye-2022-2-20\runTask.c"
1034  004B  0FB3        	mov a,low offset _sys_Day
1034  004C  0083        	mov mp,a
1034  004D  0F03        	mov a,high offset _sys_Day
1034  004E  0081        	mov sbp,a
1034  004F  0701        	mov a,sbp
1034  0050  0D00     R  	or a,bank _run_time
1034  0051  0084        	mov bp,a
1034  0052  0702        	mov a,ir
1034  0053  0080     R  	mov _run_time_2[0],a
1034  0054  1400     R  	inca _run_time_2[0]
1034  0055  0080     E  	mov ra,a
1034  0056  0701        	mov a,sbp
1034  0057  0D00     R  	or a,bank _run_time
1034  0058  0084        	mov bp,a
1034  0059  0700     E  	mov a,ra
1034  005A  0082        	mov ir,a
1035  005B              #line 1035 "f:\work\血糖仪\a_bh45f67-旧版\4g\美国客户\make_lib\v1.0.01（5000套出货)-02\g-777g-usa-bg95eseye-2022-2-20\runTask.c"
1035  005B              	fcall _check_sys_Year
1035  0062  0080     E  	mov ra,a
1037  0063              #line 1037 "f:\work\血糖仪\a_bh45f67-旧版\4g\美国客户\make_lib\v1.0.01（5000套出货)-02\g-777g-usa-bg95eseye-2022-2-20\runTask.c"
1037  0063  0FB3        	mov a,low offset _sys_Day
1037  0064  0083        	mov mp,a
1037  0065  0F03        	mov a,high offset _sys_Day
1037  0066  0081        	mov sbp,a
1037  0067  0701        	mov a,sbp
1037  0068  0D00     R  	or a,bank _run_time
1037  0069  0084        	mov bp,a
1037  006A  0702        	mov a,ir
文件：runTask.c    编译器版本 HGASM 0202 页次104

1037  006B  0080     E  	mov rb,a
1037  006C  0FB2        	mov a,low offset _sys_Month
1037  006D  0083        	mov mp,a
1037  006E  0F03        	mov a,high offset _sys_Month
1037  006F  0081        	mov sbp,a
1035  0070              #line 1035 "f:\work\血糖仪\a_bh45f67-旧版\4g\美国客户\make_lib\v1.0.01（5000套出货)-02\g-777g-usa-bg95eseye-2022-2-20\runTask.c"
1035  0070  1080     E  	sz ra
1035  0071  2800     R  	jmp _LI16
1035  0072  2800     R  	jmp _L150
1035  0073              _LI16:
1037  0073              #line 1037 "f:\work\血糖仪\a_bh45f67-旧版\4g\美国客户\make_lib\v1.0.01（5000套出货)-02\g-777g-usa-bg95eseye-2022-2-20\runTask.c"
1037  0073  0701        	mov a,sbp
1037  0074  0D00     R  	or a,bank _run_time
1037  0075  0084        	mov bp,a
1037  0076  0702        	mov a,ir
1037  0077  0080     E  	mov ra,a
1037  0078  0F00     R  	mov a,low offset _data_time1
1037  0079  0300     E  	add a,ra
1037  007A  0083        	mov mp,a
1037  007B  0F00     R  	mov a,high offset _data_time1
1037  007C  1F01        	clr sbp
1037  007D  1381        	adcm a,sbp
1037  007E              	fcall _Crom2Prom
1037  0085  0080     E  	mov ra,a
1037  0086  0700     E  	mov a,ra
1037  0087  0200     E  	sub a,rb
1037  0088  3C0A        	sz c
1037  0089  2800     R  	jmp _L146
1039  008A              #line 1039 "f:\work\血糖仪\a_bh45f67-旧版\4g\美国客户\make_lib\v1.0.01（5000套出货)-02\g-777g-usa-bg95eseye-2022-2-20\runTask.c"
1039  008A  0FB3        	mov a,low offset _sys_Day
1039  008B  0083        	mov mp,a
1039  008C  0F03        	mov a,high offset _sys_Day
1039  008D  0081        	mov sbp,a
1039  008E  0701        	mov a,sbp
1039  008F  0D00     R  	or a,bank _run_time
1039  0090  0084        	mov bp,a
1039  0091  0F01        	mov a,1
1039  0092  0082        	mov ir,a
1040  0093              #line 1040 "f:\work\血糖仪\a_bh45f67-旧版\4g\美国客户\make_lib\v1.0.01（5000套出货)-02\g-777g-usa-bg95eseye-2022-2-20\runTask.c"
1040  0093  0FB2        	mov a,low offset _sys_Month
1040  0094  0083        	mov mp,a
1040  0095  0F03        	mov a,high offset _sys_Month
1040  0096  0081        	mov sbp,a
1040  0097  0701        	mov a,sbp
1040  0098  0D00     R  	or a,bank _run_time
1040  0099  0084        	mov bp,a
1040  009A  0702        	mov a,ir
1040  009B  0080     R  	mov _run_time_2[0],a
1040  009C  1400     R  	inca _run_time_2[0]
1040  009D  0080     E  	mov ra,a
1040  009E  0701        	mov a,sbp
1040  009F  0D00     R  	or a,bank _run_time
1040  00A0  0084        	mov bp,a
1040  00A1  0700     E  	mov a,ra
1040  00A2  0082        	mov ir,a
1041  00A3              #line 1041 "f:\work\血糖仪\a_bh45f67-旧版\4g\美国客户\make_lib\v1.0.01（5000套出货)-02\g-777g-usa-bg95eseye-2022-2-20\runTask.c"
1041  00A3  0F0C        	mov a,12
1041  00A4  0200     E  	sub a,ra
1041  00A5  3C0A        	sz c
1041  00A6  2800     R  	jmp _L146
文件：runTask.c    编译器版本 HGASM 0202 页次105

1041  00A7  2800     R  	jmp _L151
1041  00A8              _L150:
1050  00A8              #line 1050 "f:\work\血糖仪\a_bh45f67-旧版\4g\美国客户\make_lib\v1.0.01（5000套出货)-02\g-777g-usa-bg95eseye-2022-2-20\runTask.c"
1050  00A8  0701        	mov a,sbp
1050  00A9  0D00     R  	or a,bank _run_time
1050  00AA  0084        	mov bp,a
1050  00AB  0702        	mov a,ir
1050  00AC  0080     E  	mov ra,a
1050  00AD  0F00     R  	mov a,low offset _data_time2
1050  00AE  0300     E  	add a,ra
1050  00AF  0083        	mov mp,a
1050  00B0  0F00     R  	mov a,high offset _data_time2
1050  00B1  1F01        	clr sbp
1050  00B2  1381        	adcm a,sbp
1050  00B3              	fcall _Crom2Prom
1050  00BA  0080     E  	mov ra,a
1050  00BB  0700     E  	mov a,ra
1050  00BC  0200     E  	sub a,rb
1050  00BD  3C0A        	sz c
1050  00BE  2800     R  	jmp _L146
1052  00BF              #line 1052 "f:\work\血糖仪\a_bh45f67-旧版\4g\美国客户\make_lib\v1.0.01（5000套出货)-02\g-777g-usa-bg95eseye-2022-2-20\runTask.c"
1052  00BF  0FB3        	mov a,low offset _sys_Day
1052  00C0  0083        	mov mp,a
1052  00C1  0F03        	mov a,high offset _sys_Day
1052  00C2  0081        	mov sbp,a
1052  00C3  0701        	mov a,sbp
1052  00C4  0D00     R  	or a,bank _run_time
1052  00C5  0084        	mov bp,a
1052  00C6  0F01        	mov a,1
1052  00C7  0082        	mov ir,a
1053  00C8              #line 1053 "f:\work\血糖仪\a_bh45f67-旧版\4g\美国客户\make_lib\v1.0.01（5000套出货)-02\g-777g-usa-bg95eseye-2022-2-20\runTask.c"
1053  00C8  0FB2        	mov a,low offset _sys_Month
1053  00C9  0083        	mov mp,a
1053  00CA  0F03        	mov a,high offset _sys_Month
1053  00CB  0081        	mov sbp,a
1053  00CC  0701        	mov a,sbp
1053  00CD  0D00     R  	or a,bank _run_time
1053  00CE  0084        	mov bp,a
1053  00CF  0702        	mov a,ir
1053  00D0  0080     R  	mov _run_time_2[0],a
1053  00D1  1400     R  	inca _run_time_2[0]
1053  00D2  0080     E  	mov ra,a
1053  00D3  0701        	mov a,sbp
1053  00D4  0D00     R  	or a,bank _run_time
1053  00D5  0084        	mov bp,a
1053  00D6  0700     E  	mov a,ra
1053  00D7  0082        	mov ir,a
1054  00D8              #line 1054 "f:\work\血糖仪\a_bh45f67-旧版\4g\美国客户\make_lib\v1.0.01（5000套出货)-02\g-777g-usa-bg95eseye-2022-2-20\runTask.c"
1054  00D8  0F0C        	mov a,12
1054  00D9  0200     E  	sub a,ra
1054  00DA  3C0A        	sz c
1054  00DB  2800     R  	jmp _L146
1054  00DC              _L151:
1056  00DC              #line 1056 "f:\work\血糖仪\a_bh45f67-旧版\4g\美国客户\make_lib\v1.0.01（5000套出货)-02\g-777g-usa-bg95eseye-2022-2-20\runTask.c"
1056  00DC  0701        	mov a,sbp
1056  00DD  0D00     R  	or a,bank _run_time
1056  00DE  0084        	mov bp,a
1056  00DF  0F01        	mov a,1
1056  00E0  0082        	mov ir,a
1057  00E1              #line 1057 "f:\work\血糖仪\a_bh45f67-旧版\4g\美国客户\make_lib\v1.0.01（5000套出货)-02\g-777g-usa-bg95eseye-2022-2-20\runTask.c"
文件：runTask.c    编译器版本 HGASM 0202 页次106

1057  00E1  0FB0        	mov a,low offset _sys_Year
1057  00E2  0083        	mov mp,a
1057  00E3  0F03        	mov a,high offset _sys_Year
1057  00E4  0081        	mov sbp,a
1057  00E5  0701        	mov a,sbp
1057  00E6  0D00     R  	or a,bank _run_time
1057  00E7  0084        	mov bp,a
1057  00E8  0702        	mov a,ir
1057  00E9  0080     E  	mov rb,a
1057  00EA  1483        	inc mp
1057  00EB  0702        	mov a,ir
1057  00EC  0080     E  	mov rc,a
1057  00ED  1480     E  	inc rb
1057  00EE  3D0A        	sz z
1057  00EF  1480     E  	inc rc
1057  00F0  0FB0        	mov a,low offset _sys_Year
1057  00F1  0083        	mov mp,a
1057  00F2  0F03        	mov a,high offset _sys_Year
1057  00F3  0081        	mov sbp,a
1057  00F4  0701        	mov a,sbp
1057  00F5  0D00     R  	or a,bank _run_time
1057  00F6  0084        	mov bp,a
1057  00F7  0700     E  	mov a,rb
1057  00F8  0082        	mov ir,a
1057  00F9  1483        	inc mp
1057  00FA  0700     E  	mov a,rc
1057  00FB  0082        	mov ir,a
1057  00FC              _L146:
1057  00FC  0003        	ret
1057  00FD              _run_time endp
1057  00FD              #line 1057 "f:\work\血糖仪\a_bh45f67-旧版\4g\美国客户\make_lib\v1.0.01（5000套出货)-02\g-777g-usa-bg95eseye-2022-2-20\runTask.c"
1057  00FD              #pragma debug scope 1 1
1057  00FD              public _data_time2
1057  0000              @crom	.section 'crom'
 109  0000              #line 109 "f:\work\血糖仪\a_bh45f67-旧版\4g\美国客户\make_lib\v1.0.01（5000套出货)-02\g-777g-usa-bg95eseye-2022-2-20\runTask.c"
 109  0000              @crom	.section	'crom'
 109  0000              _data_time2:
 109  0000              #pragma debug array 44 8 13 1
 109  0000              #pragma debug array 44 8 13 1
 109  0000              #pragma debug variable 44 1 _data_time2 "data_time2"
 109  0000              	db 31
 109  0001              	db 31
 109  0001              	db 28
 109  0002              	db 31
 109  0002              	db 30
 109  0003              	db 31
 109  0003              	db 30
 109  0004              	db 31
 109  0004              	db 31
 109  0005              	db 30
 109  0005              	db 31
 109  0006              	db 30
 109  0006              	db 31
 109  0007              public _data_time1
 108  0007              #line 108 "f:\work\血糖仪\a_bh45f67-旧版\4g\美国客户\make_lib\v1.0.01（5000套出货)-02\g-777g-usa-bg95eseye-2022-2-20\runTask.c"
 108  0007              @crom	.section	'crom'
 108  0007              _data_time1:
 108  0007              #pragma debug variable 44 1 _data_time1 "data_time1"
 108  0007              	db 31
 108  0007              	db 31
文件：runTask.c    编译器版本 HGASM 0202 页次107

 108  0008              	db 29
 108  0008              	db 31
 108  0009              	db 30
 108  0009              	db 31
 108  000A              	db 30
 108  000A              	db 31
 108  000B              	db 31
 108  000B              	db 30
 108  000C              	db 31
 108  000C              	db 30
 108  000D              	db 31
 108  000D              public _SoundGroups
  18  000D              #line 18 "f:\work\血糖仪\a_bh45f67-旧版\4g\美国客户\make_lib\v1.0.01（5000套出货)-02\g-777g-usa-bg95eseye-2022-2-20\runTask.c"
  18  000D              @crom	.section	'crom'
  18  000D              _SoundGroups:
  18  000D              #pragma debug struct_end
  18  000D              #pragma debug struct_end
  18  000D              #pragma debug array 46 45 43 1
  18  000D              #pragma debug array 46 45 43 1
  18  000D              #pragma debug variable 46 1 _SoundGroups "SoundGroups"
  18  000D  0904        	dc 2308
  18  000E              	db 50
  18  000F              	db 121
  18  000F              	db 124
  18  0010  08A2        	dc 2210
  18  0011              	db 0
  18  0011              	db 120
  18  0012              	db 123
  18  0012  0850        	dc 2128
  18  0013              	db 1
  18  0014              	db 119
  18  0014              	db 122
  18  0015  0819        	dc 2073
  18  0016              	db 2
  18  0016              	db 118
  18  0017              	db 121
  18  0017  07DD        	dc 2013
  18  0018              	db 3
  18  0019              	db 117
  18  0019              	db 120
  18  001A  07A4        	dc 1956
  18  001B              	db 4
  18  001B              	db 116
  18  001C              	db 119
  18  001C  0776        	dc 1910
  18  001D              	db 5
  18  001E              	db 115
  18  001E              	db 118
  18  001F  0736        	dc 1846
  18  0020              	db 6
  18  0020              	db 114
  18  0021              	db 117
  18  0021  0700        	dc 1792
  18  0022              	db 7
  18  0023              	db 113
  18  0023              	db 116
  18  0024  06CB        	dc 1739
  18  0025              	db 8
  18  0025              	db 112
  18  0026              	db 115
文件：runTask.c    编译器版本 HGASM 0202 页次108

  18  0026  069B        	dc 1691
  18  0027              	db 9
  18  0028              	db 112
  18  0028              	db 115
  18  0029  0670        	dc 1648
  18  002A              	db 10
  18  002A              	db 111
  18  002B              	db 114
  18  002B  063E        	dc 1598
  18  002C              	db 11
  18  002D              	db 110
  18  002D              	db 114
  18  002E  060B        	dc 1547
  18  002F              	db 12
  18  002F              	db 108
  18  0030              	db 113
  18  0030  05D9        	dc 1497
  18  0031              	db 13
  18  0032              	db 107
  18  0032              	db 112
  18  0033  05AB        	dc 1451
  18  0034              	db 14
  18  0034              	db 106
  18  0035              	db 110
  18  0035  0582        	dc 1410
  18  0036              	db 15
  18  0037              	db 106
  18  0037              	db 109
  18  0038  055B        	dc 1371
  18  0039              	db 16
  18  0039              	db 105
  18  003A              	db 108
  18  003A  0534        	dc 1332
  18  003B              	db 17
  18  003C              	db 105
  18  003C              	db 105
  18  003D  050E        	dc 1294
  18  003E              	db 18
  18  003E              	db 104
  18  003F              	db 102
  18  003F  04E1        	dc 1249
  18  0040              	db 19
  18  0041              	db 103
  18  0041              	db 101
  18  0042  04BA        	dc 1210
  18  0043              	db 20
  18  0043              	db 103
  18  0044              	db 100
  18  0044  0491        	dc 1169
  18  0045              	db 21
  18  0046              	db 102
  18  0046              	db 100
  18  0047  0472        	dc 1138
  18  0048              	db 22
  18  0048              	db 102
  18  0049              	db 100
  18  0049  0454        	dc 1108
  18  004A              	db 23
  18  004B              	db 101
  18  004B              	db 100
文件：runTask.c    编译器版本 HGASM 0202 页次109

  18  004C  0432        	dc 1074
  18  004D              	db 24
  18  004D              	db 100
  18  004E              	db 100
  18  004E  0410        	dc 1040
  18  004F              	db 25
  18  0050              	db 100
  18  0050              	db 100
  18  0051  03EB        	dc 1003
  18  0052              	db 26
  18  0052              	db 100
  18  0053              	db 98
  18  0053  03CE        	dc 974
  18  0054              	db 27
  18  0055              	db 100
  18  0055              	db 97
  18  0056  03B4        	dc 948
  18  0057              	db 28
  18  0057              	db 100
  18  0058              	db 95
  18  0058  0396        	dc 918
  18  0059              	db 29
  18  005A              	db 100
  18  005A              	db 94
  18  005B  037A        	dc 890
  18  005C              	db 30
  18  005C              	db 100
  18  005D              	db 92
  18  005D  035F        	dc 863
  18  005E              	db 31
  18  005F              	db 100
  18  005F              	db 90
  18  0060  0345        	dc 837
  18  0061              	db 32
  18  0061              	db 100
  18  0062              	db 89
  18  0062  032D        	dc 813
  18  0063              	db 33
  18  0064              	db 100
  18  0064              	db 87
  18  0065  0313        	dc 787
  18  0066              	db 34
  18  0066              	db 100
  18  0067              	db 86
  18  0067  02FB        	dc 763
  18  0068              	db 35
  18  0069              	db 100
  18  0069              	db 84
  18  006A  02E2        	dc 738
  18  006B              	db 36
  18  006B              	db 100
  18  006C              	db 83
  18  006C  02CD        	dc 717
  18  006D              	db 37
  18  006E              	db 100
  18  006E              	db 82
  18  006F  02BA        	dc 698
  18  0070              	db 38
  18  0070              	db 100
  18  0071              	db 81
文件：runTask.c    编译器版本 HGASM 0202 页次110

  18  0071  02A4        	dc 676
  18  0072              	db 39
  18  0073              	db 100
  18  0073              	db 79
  18  0074  028C        	dc 652
  18  0075              	db 40
  18  0075              	db 100
  18  0076              	db 78
  18  0076  0278        	dc 632
  18  0077              	db 41
  18  0078              	db 100
  18  0078              	db 77
  18  0079              #pragma debug struct_end
  18  0079              #pragma debug struct_end
  18  0079              #pragma debug union_end
  18  0079              #pragma debug union_end
  18  0079              #pragma debug variable 48 1 ___pa "__pa" 1
  18  0079              #pragma debug struct_end
  18  0079              #pragma debug struct_end
  18  0079              #pragma debug union_end
  18  0079              #pragma debug union_end
  18  0079              #pragma debug variable 50 1 ___pbpu "__pbpu" 1
  18  0079              #pragma debug struct_end
  18  0079              #pragma debug struct_end
  18  0079              #pragma debug union_end
  18  0079              #pragma debug union_end
  18  0079              #pragma debug variable 52 1 ___pb "__pb" 1
  18  0079              #pragma debug struct_end
  18  0079              #pragma debug struct_end
  18  0079              #pragma debug union_end
  18  0079              #pragma debug union_end
  18  0079              #pragma debug variable 54 1 ___pbc "__pbc" 1
  18  0079              #pragma debug struct_end
  18  0079              #pragma debug struct_end
  18  0079              #pragma debug union_end
  18  0079              #pragma debug union_end
  18  0079              #pragma debug variable 56 1 ___ph "__ph" 1
  18  0079              #pragma debug struct_end
  18  0079              #pragma debug struct_end
  18  0079              #pragma debug union_end
  18  0079              #pragma debug union_end
  18  0079              #pragma debug variable 58 1 ___adcr0 "__adcr0" 1
  18  0079              #pragma debug struct_end
  18  0079              #pragma debug struct_end
  18  0079              #pragma debug union_end
  18  0079              #pragma debug union_end
  18  0079              #pragma debug variable 60 1 ___lcdc "__lcdc" 1
  18  0079              #pragma debug struct_end
  18  0079              #pragma debug struct_end
  18  0079              #pragma debug union_end
  18  0079              #pragma debug union_end
  18  0079              #pragma debug variable 62 1 ___dac "__dac" 1
  18  0079              #pragma debug variable 8 1 ___dal "__dal" 1
  18  0079              #pragma debug variable 8 1 ___dah "__dah" 1
  18  0079              #pragma debug struct_end
  18  0079              #pragma debug struct_end
  18  0079              #pragma debug union_end
  18  0079              #pragma debug union_end
  18  0079              #pragma debug variable 64 1 ___tsc "__tsc" 1
  18  0079              #pragma debug variable 8 1 ___pvref "__pvref" 1
文件：runTask.c    编译器版本 HGASM 0202 页次111

  18  0079              #pragma debug struct_end
  18  0079              #pragma debug struct_end
  18  0079              #pragma debug union_end
  18  0079              #pragma debug union_end
  18  0079              #pragma debug variable 66 1 ___opc1 "__opc1" 1
  18  0079              #pragma debug struct_end
  18  0079              #pragma debug struct_end
  18  0079              #pragma debug struct_end
  18  0079              #pragma debug struct_end
  18  0079              #pragma debug struct_end
  18  0079              #pragma debug struct_end
  18  0079              #pragma debug struct_end
  18  0079              #pragma debug struct_end
  18  0079              #pragma debug union_end
  18  0079              #pragma debug union_end
  18  0079              #pragma debug variable 71 1 _BLOOD_Package "BLOOD_Package" 128
  18  0079              #pragma debug struct_end
  18  0079              #pragma debug struct_end
  18  0079              #pragma debug union_end
  18  0079              #pragma debug union_end
  18  0079              #pragma debug struct_end
  18  0079              #pragma debug struct_end
  18  0079              #pragma debug union_end
  18  0079              #pragma debug union_end
  18  0079              #pragma debug variable 75 1 _SystemFlags "SystemFlags" 14
  18  0079              #pragma debug array 76 8 16 1
  18  0079              #pragma debug array 76 8 16 1
  18  0079              #pragma debug variable 76 1 _flash "flash" 16
  18  0079              #pragma debug variable 76 1 _disp_buff "disp_buff" 16
  18  0079              #pragma debug variable 10 1 _sys_Year "sys_Year" 2
  18  0079              #pragma debug variable 8 1 _sys_Month "sys_Month" 1
  18  0079              #pragma debug variable 8 1 _sys_Day "sys_Day" 1
  18  0079              #pragma debug variable 8 1 _sys_Hour "sys_Hour" 1
  18  0079              #pragma debug variable 8 1 _sys_Minute "sys_Minute" 1
  18  0079              #pragma debug variable 8 1 _sys_Second "sys_Second" 1
  18  0079              #pragma debug variable 14 1 _Project_Sequence "Project_Sequence" 4
  18  0079              #pragma debug variable 10 1 _Mem_sequence "Mem_sequence" 2
  18  0079              #pragma debug variable 14 1 _Blood_Sequence "Blood_Sequence" 4
  18  0079              #pragma debug variable 14 1 _Blood_glucose "Blood_glucose" 4
  18  0079              #pragma debug array 77 8 22 1
  18  0079              #pragma debug array 77 8 22 1
  18  0079              #pragma debug variable 77 1 _test_buff "test_buff" 22
  18  0079              #pragma debug variable 14 1 _AD_value "AD_value" 4
  18  0079              #pragma debug variable 8 1 _Temperature_coefficient "Temperature_coefficient" 1
  18  0079              #pragma debug variable 8 1 _Temperature_CTL_coefficient "Temperature_CTL_coefficient" 1
  18  0079              #pragma debug variable 10 1 _Pub_temp "Pub_temp" 2
  18  0079              #pragma debug variable 10 1 _Mem_sequence_count "Mem_sequence_count" 2
  18  0079              #pragma debug variable 8 1 _staic_Temperature "staic_Temperature" 1
  18  0079              #pragma debug variable 10 1 _Second "Second" 2
  18  0079              extern _get_lowPwd_2:byte
  18  0079              extern _get_lowPwd:near
  18  0079              extern _me_delay_100us:near
  18  0079              extern _me_delay_ms_2:byte
  18  0079              extern _me_delay_ms:near
  18  0079              extern _uart_init_2:byte
  18  0079              extern _uart_init:near
  18  0079              extern _builtin_holtek_udivmodhi4_2:byte
  18  0079              extern _builtin_holtek_udivmodhi4:near
  18  0079              extern _fun_read_page_2:byte
  18  0079              extern _fun_read_page:near
文件：runTask.c    编译器版本 HGASM 0202 页次112

  18  0079              extern _fun_enable_fwen:near
  18  0079              extern _fun_erase_page_2:byte
  18  0079              extern _fun_erase_page:near
  18  0079              extern _fun_write_cpage_2:byte
  18  0079              extern _fun_write_cpage:near
  18  0079              extern _memset_2:byte
  18  0079              extern _memset:near
  18  0079              extern _wait_return_2:byte
  18  0079              extern _wait_return:near
  18  0079              extern _Send_GSM2_2:byte
  18  0079              extern _Send_GSM2:near
  18  0079              extern _uart_close:near
  18  0079              extern _Uart_Receice_9600_2:byte
  18  0079              extern _Uart_Receice_9600:near
  18  0079              extern _Uart_Send_9600_2:byte
  18  0079              extern _Uart_Send_9600:near
  18  0079              extern _builtin_holtek_mulhi3_2:byte
  18  0079              extern _builtin_holtek_mulhi3:near
  18  0079              extern _AD_set:near
  18  0079              extern _test_OP:near
  18  0079              extern _builtin_holtek_mant1:byte
  18  0079              extern _builtin_holtek_mant12p:byte
  18  0079              extern _builtin_holtek_signs:byte
  18  0079              extern _builtin_holtek_ultof:near
  18  0079              extern _builtin_holtek_mant2:byte
  18  0079              extern _builtin_holtek_ftdiv:near
  18  0079              extern _builtin_holtek_ftmul:near
  18  0079              extern _builtin_holtek_ftol:near
  18  0079              extern _OP_set:near
  18  0079              extern _show_display:near
  18  0079              extern _displey_EB:near
  18  0079              extern _Show_OFF:near
  18  0079              extern _builtin_holtek_uitof:near
  18  0079              extern _builtin_holtek_ftsub:near
  18  0079              
  18  0079              ; 
  18  0079              ; Generated by holtek-gcc v3.19, Thu Jul 21 09:11:11 2022
  18  0079              ; Rebuild 718
  18  0079              ; end of file


        0 Errors, 0