文件：ADC.c        编译器版本 HGASM 0202 页次1


   1  0000              ; Generated by holtek-gcc v3.19, Tue Jul 26 12:07:02 2022
   2  0000              ; 
   3  0000              ; Configuration:
   4  0000              ;       with long instruction
   5  0000              ;       Multi-ROM, Multi-RAM
   6  0000              ;       bits_per_rom_unit:16
   7  0000              ;       with mp1
   8  0000              ;       with tbhp, address(0x9)
   9  0000              ;          Use tabrd-const
  10  0000              ;       
  11  0000              ; SFR address of long-instruction arch:
  12  0000              ;    mp0 = -1,1,0
  13  0000              ;    mp1 = 4,3,2
  14  0000              ;    mp2 = 14,13,12
  15  0000              ;    tbp = 9,7,8
  16  0000              ;    acc = 5
  17  0000              ;    pcl = 6
  18  0000              ;    status = 10
  19  0000              ;    bp = 11
  20  0000              ;    intc = 32
  21  0000              ;       
  22  0000              ;       
  23  0000              ; use 'tabrdc' instead of 'tabrd'
  24  0000              ;       
  25  0000              
  26  0000              #pragma translator "holtek-gcc 4.6.4" "3.19" "build 20130711"
  27  0000              ; Rebuild 718
  28  0000              
  29  0000              ir equ [2]
  30  0000              mp equ [3]
  31  0000              sbp equ [4]
  32  0000              acc equ [5]
  33  0000              bp equ [11]
  34  0000              tblp equ [7]
  35  0000              tbhp equ [9]
  36  0000              status equ [10]
  37  0000              c equ [10].0
  38  0000              ac equ [10].1
  39  0000              z equ [10].2
  40  0000              ov equ [10].3
  41  0000              cz equ [10].6
  42  0000              sc equ [10].7
  43  0000              intc equ [32]
  44  0000              
  45  0000              extern ra:byte
  46  0000              extern rb:byte
  47  0000              extern rc:byte
  48  0000              extern rd:byte
  49  0000              extern re:byte
  50  0000              extern rf:byte
  51  0000              extern rg:byte
  52  0000              extern rh:byte
  53  0000              extern _Crom2Prom:near
  54  0000              extern _Crom2PromNext:near
  55  0000              
  56  0000              RAMBANK 0 @BITDATASEC, @BITDATASEC1
  57  0000              @HCCINIT	.section 'data'
  58  0000              @HCCINIT0	.section 'data'
  59  0000              @BITDATASEC	 .section 'data'
文件：ADC.ASM      编译器版本 HGASM 0202 页次2

  60  0000              @BITDATASEC1	 .section 'data'
  61  0000              
  62  0000              #pragma debug scope 1 1
  63  0000              	extern __DELAY3:near
  64  0000              	extern __DELAYX3:near
  65  0000              	extern __DELAYX6:near
  66  0000              	extern __DELAYY5:near
  67  0000              	extern __DELAYY3:near
  68  0000              	extern _builtin_holtek_delay_2:byte
  69  0000              ___intc0 equ [32]
  70  0000              ___sadc0 equ [109]
  71  0000              ___sadc1 equ [110]
  72  0000              ___pcs0 equ [343]
  73  0000              ___sadol equ [107]
  74  0000              ___sadoh equ [108]
  75  0000              public _Samlpe_Adc1
  76  0000              #pragma debug scope 2 1

  14  0000              #line 14 "k:\55555555555555\test\saier-a600n-2260-usa4g-aal-bg95-ui-v1.0-6\ADC.c"
  14  0000              _Samlpe_Adc1 .section 'code'
  14  0000              _Samlpe_Adc1 proc
  14  0000  00              local _Samlpe_Adc1_2 db 1 dup(?)	; 0,1
  14  0000  0080     R  	mov _Samlpe_Adc1_2[0],a
  14  0001              #pragma debug variable 8 2 _Samlpe_Adc1_2+0 "ch"
  18  0001              #line 18 "k:\55555555555555\test\saier-a600n-2260-usa4g-aal-bg95-ui-v1.0-6\ADC.c"
  18  0001  0720        	mov a,[32]
  18  0002  0E01        	and a,1
  18  0003  0080     E  	mov ra,a
  19  0004              #line 19 "k:\55555555555555\test\saier-a600n-2260-usa4g-aal-bg95-ui-v1.0-6\ADC.c"
  19  0004  3420        	clr [32].0
  21  0005              #line 21 "k:\55555555555555\test\saier-a600n-2260-usa4g-aal-bg95-ui-v1.0-6\ADC.c"
  21  0005  0F3F        	mov a,63
  21  0006  00ED        	mov [109],a
  22  0007              #line 22 "k:\55555555555555\test\saier-a600n-2260-usa4g-aal-bg95-ui-v1.0-6\ADC.c"
  22  0007  0FEF        	mov a,239
  22  0008  00EE        	mov [110],a
  25  0009              #line 25 "k:\55555555555555\test\saier-a600n-2260-usa4g-aal-bg95-ui-v1.0-6\ADC.c"
  25  0009  0700     R  	mov a,_Samlpe_Adc1_2[0]
  25  000A  0A00        	sub a,0
  25  000B  3D0A        	sz z
  25  000C  2800     R  	jmp _L3
  25  000D  0A01        	sub a,(1)-(0)
  25  000E  3D0A        	sz z
  25  000F  2800     R  	jmp _L4
  25  0010              #line 25 "k:\55555555555555\test\saier-a600n-2260-usa4g-aal-bg95-ui-v1.0-6\ADC.c"
  25  0010  0700     R  	mov a,_Samlpe_Adc1_2[0]
  25  0011  0A02        	sub a,2
  25  0012  3D0A        	sz z
  25  0013  2800     R  	jmp _L5
  25  0014  0A01        	sub a,(3)-(2)
  25  0015  3D0A        	sz z
  25  0016  2800     R  	jmp _L6
  25  0017  0700     R  	mov a,_Samlpe_Adc1_2[0]
  25  0018  0A04        	sub a,4
  25  0019  3D0A        	sz z
  25  001A  2800     R  	jmp _L7
  25  001B  0A01        	sub a,(5)-(4)
  25  001C  3D0A        	sz z
  25  001D  2800     R  	jmp _L8
  25  001E  0700     R  	mov a,_Samlpe_Adc1_2[0]
文件：ADC.c        编译器版本 HGASM 0202 页次3

  25  001F  0A06        	sub a,6
  25  0020  3D0A        	sz z
  25  0021  2800     R  	jmp _L9
  25  0022  0700     R  	mov a,_Samlpe_Adc1_2[0]
  25  0023  0A07        	sub a,7
  25  0024  390A        	snz z
  25  0025  2800     R  	jmp _L2
  35  0026              #line 35 "k:\55555555555555\test\saier-a600n-2260-usa4g-aal-bg95-ui-v1.0-6\ADC.c"
  35  0026  0F9F        	mov a,159
  35  0027  06EE        	andm a,[110]
  35  0028  2800     R  	jmp _L2
  35  0029              _L3:
  28  0029              #line 28 "k:\55555555555555\test\saier-a600n-2260-usa4g-aal-bg95-ui-v1.0-6\ADC.c"
  28  0029  0FF0        	mov a,240
  28  002A  06ED        	andm a,[109]
  28  002B  B2D7 0001   	lset [343].5
  28  002D  B257 0001   	lset [343].4
  28  002F  2800     R  	jmp _L2
  28  0030              _L4:
  29  0030              #line 29 "k:\55555555555555\test\saier-a600n-2260-usa4g-aal-bg95-ui-v1.0-6\ADC.c"
  29  0030  0FF1        	mov a,241
  29  0031  06ED        	andm a,[109]
  29  0032  B3D7 0001   	lset [343].7
  29  0034  B357 0001   	lset [343].6
  29  0036  2800     R  	jmp _L2
  29  0037              _L5:
  30  0037              #line 30 "k:\55555555555555\test\saier-a600n-2260-usa4g-aal-bg95-ui-v1.0-6\ADC.c"
  30  0037  0FF2        	mov a,242
  30  0038  06ED        	andm a,[109]
  30  0039  B0D7 0001   	lset [343].1
  30  003B  B057 0001   	lset [343].0
  30  003D  2800     R  	jmp _L2
  30  003E              _L6:
  31  003E              #line 31 "k:\55555555555555\test\saier-a600n-2260-usa4g-aal-bg95-ui-v1.0-6\ADC.c"
  31  003E  0FF3        	mov a,243
  31  003F  06ED        	andm a,[109]
  31  0040  B1D7 0001   	lset [343].3
  31  0042  B157 0001   	lset [343].2
  31  0044  2800     R  	jmp _L2
  31  0045              _L7:
  32  0045              #line 32 "k:\55555555555555\test\saier-a600n-2260-usa4g-aal-bg95-ui-v1.0-6\ADC.c"
  32  0045  0F3F        	mov a,63
  32  0046  06EE        	andm a,[110]
  32  0047  2800     R  	jmp _L2
  32  0048              _L8:
  33  0048              #line 33 "k:\55555555555555\test\saier-a600n-2260-usa4g-aal-bg95-ui-v1.0-6\ADC.c"
  33  0048  0F5F        	mov a,95
  33  0049  06EE        	andm a,[110]
  33  004A  2800     R  	jmp _L2
  33  004B              _L9:
  34  004B              #line 34 "k:\55555555555555\test\saier-a600n-2260-usa4g-aal-bg95-ui-v1.0-6\ADC.c"
  34  004B  37EE        	clr [110].7
  34  004C              _L2:
  37  004C              #line 37 "k:\55555555555555\test\saier-a600n-2260-usa4g-aal-bg95-ui-v1.0-6\ADC.c"
  37  004C  37ED        	clr [109].7
  38  004D              #line 38 "k:\55555555555555\test\saier-a600n-2260-usa4g-aal-bg95-ui-v1.0-6\ADC.c"
  38  004D  33ED        	set [109].7
  39  004E              #line 39 "k:\55555555555555\test\saier-a600n-2260-usa4g-aal-bg95-ui-v1.0-6\ADC.c"
  39  004E  37ED        	clr [109].7
  39  004F              _L12:
文件：ADC.c        编译器版本 HGASM 0202 页次4

  40  004F              #line 40 "k:\55555555555555\test\saier-a600n-2260-usa4g-aal-bg95-ui-v1.0-6\ADC.c"
  40  004F  3F6D        	sz [109].6
  40  0050  2800     R  	jmp _L12
  46  0051              #line 46 "k:\55555555555555\test\saier-a600n-2260-usa4g-aal-bg95-ui-v1.0-6\ADC.c"
  46  0051  076C        	mov a,[108]
  46  0052  0080     E  	mov rc,a
  46  0053  1F00     E  	clr rb
  47  0054              #line 47 "k:\55555555555555\test\saier-a600n-2260-usa4g-aal-bg95-ui-v1.0-6\ADC.c"
  47  0054  076B        	mov a,[107]
  47  0055  0380     E  	addm a,rb
  47  0056  3C0A        	sz c
  47  0057  1480     E  	inc rc
  48  0058              #line 48 "k:\55555555555555\test\saier-a600n-2260-usa4g-aal-bg95-ui-v1.0-6\ADC.c"
  48  0058  0700     E  	mov a,rb
  48  0059  0080     E  	mov rd,a
  48  005A  0700     E  	mov a,rc
  48  005B  0080     E  	mov re,a
  48  005C  340A        	clr c
  48  005D  1B80     E  	rrc re
  48  005E  1B80     E  	rrc rd
  48  005F  340A        	clr c
  48  0060  1B80     E  	rrc re
  48  0061  1B80     E  	rrc rd
  48  0062  0700     E  	mov a,rd
  48  0063  0080     E  	mov _ADCVALV[0],a
  48  0064  0700     E  	mov a,re
  48  0065  0080     E  	mov _ADCVALV[1],a
  49  0066              #line 49 "k:\55555555555555\test\saier-a600n-2260-usa4g-aal-bg95-ui-v1.0-6\ADC.c"
  49  0066  3420        	clr [32].0
  49  0067  0700     E  	mov a,ra
  49  0068  05A0        	orm a,[32]
  51  0069              #line 51 "k:\55555555555555\test\saier-a600n-2260-usa4g-aal-bg95-ui-v1.0-6\ADC.c"
  51  0069  0700     E  	mov a,_ADCVALV[0]
  51  006A  0080     E  	mov ra,a
  51  006B  0700     E  	mov a,_ADCVALV[1]
  51  006C  0080     E  	mov rb,a
  51  006D  0003        	ret
  51  006E              _Samlpe_Adc1 endp
  51  006E              #line 51 "k:\55555555555555\test\saier-a600n-2260-usa4g-aal-bg95-ui-v1.0-6\ADC.c"
  51  006E              #pragma debug scope 1 1
  51  006E              public _Samlpe_Adc
  51  006E              #pragma debug scope 3 1
  60  006E              #line 60 "k:\55555555555555\test\saier-a600n-2260-usa4g-aal-bg95-ui-v1.0-6\ADC.c"
  60  0000              _Samlpe_Adc .section 'code'
  60  0000              _Samlpe_Adc proc
  60  0000  00              local _Samlpe_Adc_2 db 1 dup(?)	; 0,1
  60  0000  0080     E  	mov ra,a
  60  0001  0080     R  	mov _Samlpe_Adc_2[0],a
  60  0002              #pragma debug variable 8 3 _Samlpe_Adc_2+0 "ch"
  63  0002              #line 63 "k:\55555555555555\test\saier-a600n-2260-usa4g-aal-bg95-ui-v1.0-6\ADC.c"
  63  0002  0F3F        	mov a,63
  63  0003  00ED        	mov [109],a
  64  0004              #line 64 "k:\55555555555555\test\saier-a600n-2260-usa4g-aal-bg95-ui-v1.0-6\ADC.c"
  64  0004  0FEF        	mov a,239
  64  0005  00EE        	mov [110],a
  67  0006              #line 67 "k:\55555555555555\test\saier-a600n-2260-usa4g-aal-bg95-ui-v1.0-6\ADC.c"
  67  0006  0700     E  	mov a,ra
  67  0007  0A00        	sub a,0
  67  0008  3D0A        	sz z
  67  0009  2800     R  	jmp _L16
文件：ADC.c        编译器版本 HGASM 0202 页次5

  67  000A  0A01        	sub a,(1)-(0)
  67  000B  3D0A        	sz z
  67  000C  2800     R  	jmp _L17
  67  000D              #line 67 "k:\55555555555555\test\saier-a600n-2260-usa4g-aal-bg95-ui-v1.0-6\ADC.c"
  67  000D  0700     E  	mov a,ra
  67  000E  0A02        	sub a,2
  67  000F  3D0A        	sz z
  67  0010  2800     R  	jmp _L18
  67  0011  0A01        	sub a,(3)-(2)
  67  0012  3D0A        	sz z
  67  0013  2800     R  	jmp _L19
  67  0014  0700     E  	mov a,ra
  67  0015  0A04        	sub a,4
  67  0016  3D0A        	sz z
  67  0017  2800     R  	jmp _L20
  67  0018  0A01        	sub a,(5)-(4)
  67  0019  3D0A        	sz z
  67  001A  2800     R  	jmp _L21
  67  001B  0700     E  	mov a,ra
  67  001C  0A06        	sub a,6
  67  001D  3D0A        	sz z
  67  001E  2800     R  	jmp _L22
  67  001F  0700     E  	mov a,ra
  67  0020  0A07        	sub a,7
  67  0021  390A        	snz z
  67  0022  2800     R  	jmp _L15
  77  0023              #line 77 "k:\55555555555555\test\saier-a600n-2260-usa4g-aal-bg95-ui-v1.0-6\ADC.c"
  77  0023  0F9F        	mov a,159
  77  0024  06EE        	andm a,[110]
  77  0025  2800     R  	jmp _L15
  77  0026              _L16:
  70  0026              #line 70 "k:\55555555555555\test\saier-a600n-2260-usa4g-aal-bg95-ui-v1.0-6\ADC.c"
  70  0026  0FF0        	mov a,240
  70  0027  06ED        	andm a,[109]
  70  0028  B2D7 0001   	lset [343].5
  70  002A  B257 0001   	lset [343].4
  70  002C  2800     R  	jmp _L15
  70  002D              _L17:
  71  002D              #line 71 "k:\55555555555555\test\saier-a600n-2260-usa4g-aal-bg95-ui-v1.0-6\ADC.c"
  71  002D  0FF1        	mov a,241
  71  002E  06ED        	andm a,[109]
  71  002F  B3D7 0001   	lset [343].7
  71  0031  B357 0001   	lset [343].6
  71  0033  2800     R  	jmp _L15
  71  0034              _L18:
  72  0034              #line 72 "k:\55555555555555\test\saier-a600n-2260-usa4g-aal-bg95-ui-v1.0-6\ADC.c"
  72  0034  0FF2        	mov a,242
  72  0035  06ED        	andm a,[109]
  72  0036  B0D7 0001   	lset [343].1
  72  0038  B057 0001   	lset [343].0
  72  003A  2800     R  	jmp _L15
  72  003B              _L19:
  73  003B              #line 73 "k:\55555555555555\test\saier-a600n-2260-usa4g-aal-bg95-ui-v1.0-6\ADC.c"
  73  003B  0FF3        	mov a,243
  73  003C  06ED        	andm a,[109]
  73  003D  B1D7 0001   	lset [343].3
  73  003F  B157 0001   	lset [343].2
  73  0041  2800     R  	jmp _L15
  73  0042              _L20:
  74  0042              #line 74 "k:\55555555555555\test\saier-a600n-2260-usa4g-aal-bg95-ui-v1.0-6\ADC.c"
文件：ADC.c        编译器版本 HGASM 0202 页次6

  74  0042  0F3F        	mov a,63
  74  0043  06EE        	andm a,[110]
  74  0044  2800     R  	jmp _L15
  74  0045              _L21:
  75  0045              #line 75 "k:\55555555555555\test\saier-a600n-2260-usa4g-aal-bg95-ui-v1.0-6\ADC.c"
  75  0045  0F5F        	mov a,95
  75  0046  06EE        	andm a,[110]
  75  0047  2800     R  	jmp _L15
  75  0048              _L22:
  76  0048              #line 76 "k:\55555555555555\test\saier-a600n-2260-usa4g-aal-bg95-ui-v1.0-6\ADC.c"
  76  0048  37EE        	clr [110].7
  76  0049              _L15:
  79  0049              #line 79 "k:\55555555555555\test\saier-a600n-2260-usa4g-aal-bg95-ui-v1.0-6\ADC.c"
  79  0049  37ED        	clr [109].7
  80  004A              #line 80 "k:\55555555555555\test\saier-a600n-2260-usa4g-aal-bg95-ui-v1.0-6\ADC.c"
  80  004A  33ED        	set [109].7
  81  004B              #line 81 "k:\55555555555555\test\saier-a600n-2260-usa4g-aal-bg95-ui-v1.0-6\ADC.c"
  81  004B  37ED        	clr [109].7
  81  004C              _L25:
  82  004C              #line 82 "k:\55555555555555\test\saier-a600n-2260-usa4g-aal-bg95-ui-v1.0-6\ADC.c"
  82  004C  3F6D        	sz [109].6
  82  004D  2800     R  	jmp _L25
  88  004E              #line 88 "k:\55555555555555\test\saier-a600n-2260-usa4g-aal-bg95-ui-v1.0-6\ADC.c"
  88  004E  076C        	mov a,[108]
  88  004F  0080     E  	mov rc,a
  88  0050  1F00     E  	clr rb
  89  0051              #line 89 "k:\55555555555555\test\saier-a600n-2260-usa4g-aal-bg95-ui-v1.0-6\ADC.c"
  89  0051  076B        	mov a,[107]
  89  0052  0380     E  	addm a,rb
  89  0053  3C0A        	sz c
  89  0054  1480     E  	inc rc
  91  0055              #line 91 "k:\55555555555555\test\saier-a600n-2260-usa4g-aal-bg95-ui-v1.0-6\ADC.c"
  91  0055  0700     E  	mov a,rb
  91  0056  0080     E  	mov ra,a
  91  0057  0700     E  	mov a,rc
  91  0058  0080     E  	mov rb,a
  91  0059  340A        	clr c
  91  005A  1B80     E  	rrc rb
  91  005B  1B80     E  	rrc ra
  91  005C  340A        	clr c
  91  005D  1B80     E  	rrc rb
  91  005E  1B80     E  	rrc ra
  91  005F  0003        	ret
  91  0060              _Samlpe_Adc endp
  91  0060              #line 91 "k:\55555555555555\test\saier-a600n-2260-usa4g-aal-bg95-ui-v1.0-6\ADC.c"
  91  0060              #pragma debug scope 1 1
  91  0060              #pragma debug struct_end
  91  0060              #pragma debug struct_end
  91  0060              #pragma debug union_end
  91  0060              #pragma debug union_end
  91  0060              #pragma debug variable 43 1 ___intc0 "__intc0" 1
  91  0060              #pragma debug variable 8 1 ___sadol "__sadol" 1
  91  0060              #pragma debug variable 8 1 ___sadoh "__sadoh" 1
  91  0060              #pragma debug struct_end
  91  0060              #pragma debug struct_end
  91  0060              #pragma debug union_end
  91  0060              #pragma debug union_end
  91  0060              #pragma debug variable 45 1 ___sadc0 "__sadc0" 1
  91  0060              #pragma debug struct_end
  91  0060              #pragma debug struct_end
文件：ADC.c        编译器版本 HGASM 0202 页次7

  91  0060              #pragma debug union_end
  91  0060              #pragma debug union_end
  91  0060              #pragma debug variable 47 1 ___sadc1 "__sadc1" 1
  91  0060              #pragma debug struct_end
  91  0060              #pragma debug struct_end
  91  0060              #pragma debug union_end
  91  0060              #pragma debug union_end
  91  0060              #pragma debug variable 49 1 ___pcs0 "__pcs0" 1
  91  0060              
  91  0060              ; output external variables
  91  0060              extern _ADCVALV:byte
  91  0060              
  91  0060              ; 
  91  0060              ; Generated by holtek-gcc v3.19, Tue Jul 26 12:07:02 2022
  91  0060              ; Rebuild 718
  91  0060              ; end of file


        0 Errors, 0