文件：GSM.C        编译器版本 HGASM 0202 页次1


   1  0000              ; Generated by holtek-gcc v3.19, Tue Jul 26 12:07:02 2022
   2  0000              ; 
   3  0000              ; Configuration:
   4  0000              ;       with long instruction
   5  0000              ;       Multi-ROM, Multi-RAM
   6  0000              ;       bits_per_rom_unit:16
   7  0000              ;       with mp1
   8  0000              ;       with tbhp, address(0x9)
   9  0000              ;          Use tabrd-const
  10  0000              ;       
  11  0000              ; SFR address of long-instruction arch:
  12  0000              ;    mp0 = -1,1,0
  13  0000              ;    mp1 = 4,3,2
  14  0000              ;    mp2 = 14,13,12
  15  0000              ;    tbp = 9,7,8
  16  0000              ;    acc = 5
  17  0000              ;    pcl = 6
  18  0000              ;    status = 10
  19  0000              ;    bp = 11
  20  0000              ;    intc = 32
  21  0000              ;       
  22  0000              ;       
  23  0000              ; use 'tabrdc' instead of 'tabrd'
  24  0000              ;       
  25  0000              
  26  0000              #pragma translator "holtek-gcc 4.6.4" "3.19" "build 20130711"
  27  0000              ; Rebuild 718
  28  0000              
  29  0000              ir equ [2]
  30  0000              mp equ [3]
  31  0000              sbp equ [4]
  32  0000              acc equ [5]
  33  0000              bp equ [11]
  34  0000              tblp equ [7]
  35  0000              tbhp equ [9]
  36  0000              status equ [10]
  37  0000              c equ [10].0
  38  0000              ac equ [10].1
  39  0000              z equ [10].2
  40  0000              ov equ [10].3
  41  0000              cz equ [10].6
  42  0000              sc equ [10].7
  43  0000              intc equ [32]
  44  0000              
  45  0000              extern ra:byte
  46  0000              extern rb:byte
  47  0000              extern rc:byte
  48  0000              extern rd:byte
  49  0000              extern re:byte
  50  0000              extern rf:byte
  51  0000              extern rg:byte
  52  0000              extern rh:byte
  53  0000              extern _Crom2Prom:near
  54  0000              extern _Crom2PromNext:near
  55  0000              
  56  0000              RAMBANK 0 @BITDATASEC, @BITDATASEC1
  57  0000              @HCCINIT	.section 'data'
  58  0000              @HCCINIT0	.section 'data'
  59  0000              @BITDATASEC	 .section 'data'
文件：GSM.ASM      编译器版本 HGASM 0202 页次2

  60  0000              @BITDATASEC1	 .section 'data'
  61  0000              
  62  0000              #pragma debug scope 1 1
  63  0000              	extern __DELAY3:near
  64  0000              	extern __DELAYX3:near
  65  0000              	extern __DELAYX6:near
  66  0000              	extern __DELAYY5:near
  67  0000              	extern __DELAYY3:near
  68  0000              	extern _builtin_holtek_delay_2:byte
  69  0000              public _HEX_TO_Char
  70  0000              #pragma debug scope 2 1

  29  0000              #line 29 "k:\55555555555555\test\saier-a600n-2260-usa4g-aal-bg95-ui-v1.0-6\GSM.C"
  29  0000              _HEX_TO_Char .section 'code'
  29  0000              _HEX_TO_Char proc
  29  0000  00              local _HEX_TO_Char_2 db 1 dup(?)	; 0,1
  29  0000  0080     E  	mov ra,a
  29  0001  0080     R  	mov _HEX_TO_Char_2[0],a
  29  0002              #pragma debug variable 8 2 _HEX_TO_Char_2+0 "Hex"
  29  0002  0F0F        	mov a,15
  29  0003  0200     E  	sub a,ra
  29  0004  380A        	snz c
  29  0005  2800     R  	jmp _L3
  29  0006  0F00     R  	mov a,low offset ___CSWTCH_188
  29  0007  0300     E  	add a,ra
  29  0008  0083        	mov mp,a
  29  0009  0F00     R  	mov a,high offset ___CSWTCH_188
  29  000A  1F04        	clr sbp
  29  000B  1384        	adcm a,sbp
  29  000C              	fcall _Crom2Prom
  29  0013  0080     E  	mov ra,a
  29  0014  2800     R  	jmp _L2
  29  0015              _L3:
  29  0015              #line 29 "k:\55555555555555\test\saier-a600n-2260-usa4g-aal-bg95-ui-v1.0-6\GSM.C"
  29  0015  0F2A        	mov a,42
  29  0016  0080     E  	mov ra,a
  29  0017              _L2:
  50  0017              #line 50 "k:\55555555555555\test\saier-a600n-2260-usa4g-aal-bg95-ui-v1.0-6\GSM.C"
  50  0017  0700     E  	mov a,ra
  50  0018  0003        	ret
  50  0019              _HEX_TO_Char endp
  50  0019              #line 50 "k:\55555555555555\test\saier-a600n-2260-usa4g-aal-bg95-ui-v1.0-6\GSM.C"
  50  0019              #pragma debug scope 1 1
  50  0019              public _Char_TO_HEX
  50  0019              #pragma debug scope 3 1
  52  0019              #line 52 "k:\55555555555555\test\saier-a600n-2260-usa4g-aal-bg95-ui-v1.0-6\GSM.C"
  52  0000              _Char_TO_HEX .section 'code'
  52  0000              _Char_TO_HEX proc
  52  0000  00              local _Char_TO_HEX_2 db 1 dup(?)	; 0,1
  52  0000  0080     E  	mov ra,a
  52  0001  0080     R  	mov _Char_TO_HEX_2[0],a
  52  0002              #pragma debug variable 8 3 _Char_TO_HEX_2+0 "Hex"
  53  0002              #line 53 "k:\55555555555555\test\saier-a600n-2260-usa4g-aal-bg95-ui-v1.0-6\GSM.C"
  53  0002  0700     E  	mov a,ra
  53  0003  0A30        	sub a,48
  53  0004  3D0A        	sz z
  53  0005  2800     R  	jmp _L7
  53  0006  0A01        	sub a,(49)-(48)
  53  0007  3D0A        	sz z
  53  0008  2800     R  	jmp _L23
文件：GSM.C        编译器版本 HGASM 0202 页次3

  53  0009              #line 53 "k:\55555555555555\test\saier-a600n-2260-usa4g-aal-bg95-ui-v1.0-6\GSM.C"
  53  0009  0700     E  	mov a,ra
  53  000A  0A32        	sub a,50
  53  000B  3D0A        	sz z
  53  000C  2800     R  	jmp _L9
  53  000D  0A01        	sub a,(51)-(50)
  53  000E  3D0A        	sz z
  53  000F  2800     R  	jmp _L10
  53  0010  0700     E  	mov a,ra
  53  0011  0A34        	sub a,52
  53  0012  3D0A        	sz z
  53  0013  2800     R  	jmp _L11
  53  0014  0A01        	sub a,(53)-(52)
  53  0015  3D0A        	sz z
  53  0016  2800     R  	jmp _L12
  53  0017  0700     E  	mov a,ra
  53  0018  0A36        	sub a,54
  53  0019  3D0A        	sz z
  53  001A  2800     R  	jmp _L13
  53  001B  0A01        	sub a,(55)-(54)
  53  001C  3D0A        	sz z
  53  001D  2800     R  	jmp _L14
  53  001E  0700     E  	mov a,ra
  53  001F  0A38        	sub a,56
  53  0020  3D0A        	sz z
  53  0021  2800     R  	jmp _L15
  53  0022  0A01        	sub a,(57)-(56)
  53  0023  3D0A        	sz z
  53  0024  2800     R  	jmp _L16
  53  0025  0700     E  	mov a,ra
  53  0026  0A41        	sub a,65
  53  0027  3D0A        	sz z
  53  0028  2800     R  	jmp _L17
  53  0029  0A01        	sub a,(66)-(65)
  53  002A  3D0A        	sz z
  53  002B  2800     R  	jmp _L18
  53  002C  0700     E  	mov a,ra
  53  002D  0A43        	sub a,67
  53  002E  3D0A        	sz z
  53  002F  2800     R  	jmp _L19
  53  0030  0A01        	sub a,(68)-(67)
  53  0031  3D0A        	sz z
  53  0032  2800     R  	jmp _L20
  53  0033  0700     E  	mov a,ra
  53  0034  0A45        	sub a,69
  53  0035  3D0A        	sz z
  53  0036  2800     R  	jmp _L21
  53  0037  0700     E  	mov a,ra
  53  0038  0A46        	sub a,70
  53  0039  390A        	snz z
  53  003A  2800     R  	jmp _L24
  70  003B              #line 70 "k:\55555555555555\test\saier-a600n-2260-usa4g-aal-bg95-ui-v1.0-6\GSM.C"
  70  003B  0F0F        	mov a,15
  70  003C  0080     E  	mov ra,a
  70  003D  2800     R  	jmp _L8
  70  003E              _L7:
  55  003E              #line 55 "k:\55555555555555\test\saier-a600n-2260-usa4g-aal-bg95-ui-v1.0-6\GSM.C"
  55  003E  1F00     E  	clr ra
  55  003F  2800     R  	jmp _L8
  55  0040              _L9:
文件：GSM.C        编译器版本 HGASM 0202 页次4

  57  0040              #line 57 "k:\55555555555555\test\saier-a600n-2260-usa4g-aal-bg95-ui-v1.0-6\GSM.C"
  57  0040  0F02        	mov a,2
  57  0041  0080     E  	mov ra,a
  57  0042  2800     R  	jmp _L8
  57  0043              _L10:
  58  0043              #line 58 "k:\55555555555555\test\saier-a600n-2260-usa4g-aal-bg95-ui-v1.0-6\GSM.C"
  58  0043  0F03        	mov a,3
  58  0044  0080     E  	mov ra,a
  58  0045  2800     R  	jmp _L8
  58  0046              _L11:
  59  0046              #line 59 "k:\55555555555555\test\saier-a600n-2260-usa4g-aal-bg95-ui-v1.0-6\GSM.C"
  59  0046  0F04        	mov a,4
  59  0047  0080     E  	mov ra,a
  59  0048  2800     R  	jmp _L8
  59  0049              _L12:
  60  0049              #line 60 "k:\55555555555555\test\saier-a600n-2260-usa4g-aal-bg95-ui-v1.0-6\GSM.C"
  60  0049  0F05        	mov a,5
  60  004A  0080     E  	mov ra,a
  60  004B  2800     R  	jmp _L8
  60  004C              _L13:
  61  004C              #line 61 "k:\55555555555555\test\saier-a600n-2260-usa4g-aal-bg95-ui-v1.0-6\GSM.C"
  61  004C  0F06        	mov a,6
  61  004D  0080     E  	mov ra,a
  61  004E  2800     R  	jmp _L8
  61  004F              _L14:
  62  004F              #line 62 "k:\55555555555555\test\saier-a600n-2260-usa4g-aal-bg95-ui-v1.0-6\GSM.C"
  62  004F  0F07        	mov a,7
  62  0050  0080     E  	mov ra,a
  62  0051  2800     R  	jmp _L8
  62  0052              _L15:
  63  0052              #line 63 "k:\55555555555555\test\saier-a600n-2260-usa4g-aal-bg95-ui-v1.0-6\GSM.C"
  63  0052  0F08        	mov a,8
  63  0053  0080     E  	mov ra,a
  63  0054  2800     R  	jmp _L8
  63  0055              _L16:
  64  0055              #line 64 "k:\55555555555555\test\saier-a600n-2260-usa4g-aal-bg95-ui-v1.0-6\GSM.C"
  64  0055  0F09        	mov a,9
  64  0056  0080     E  	mov ra,a
  64  0057  2800     R  	jmp _L8
  64  0058              _L17:
  65  0058              #line 65 "k:\55555555555555\test\saier-a600n-2260-usa4g-aal-bg95-ui-v1.0-6\GSM.C"
  65  0058  0F0A        	mov a,10
  65  0059  0080     E  	mov ra,a
  65  005A  2800     R  	jmp _L8
  65  005B              _L18:
  66  005B              #line 66 "k:\55555555555555\test\saier-a600n-2260-usa4g-aal-bg95-ui-v1.0-6\GSM.C"
  66  005B  0F0B        	mov a,11
  66  005C  0080     E  	mov ra,a
  66  005D  2800     R  	jmp _L8
  66  005E              _L19:
  67  005E              #line 67 "k:\55555555555555\test\saier-a600n-2260-usa4g-aal-bg95-ui-v1.0-6\GSM.C"
  67  005E  0F0C        	mov a,12
  67  005F  0080     E  	mov ra,a
  67  0060  2800     R  	jmp _L8
  67  0061              _L20:
  68  0061              #line 68 "k:\55555555555555\test\saier-a600n-2260-usa4g-aal-bg95-ui-v1.0-6\GSM.C"
  68  0061  0F0D        	mov a,13
  68  0062  0080     E  	mov ra,a
  68  0063  2800     R  	jmp _L8
  68  0064              _L21:
文件：GSM.C        编译器版本 HGASM 0202 页次5

  69  0064              #line 69 "k:\55555555555555\test\saier-a600n-2260-usa4g-aal-bg95-ui-v1.0-6\GSM.C"
  69  0064  0F0E        	mov a,14
  69  0065  0080     E  	mov ra,a
  69  0066  2800     R  	jmp _L8
  69  0067              _L24:
  71  0067              #line 71 "k:\55555555555555\test\saier-a600n-2260-usa4g-aal-bg95-ui-v1.0-6\GSM.C"
  71  0067  0700     R  	mov a,_Char_TO_HEX_2[0]
  71  0068  0BD0        	add a,208
  71  0069  0080     E  	mov ra,a
  71  006A  2800     R  	jmp _L8
  71  006B              _L23:
  56  006B              #line 56 "k:\55555555555555\test\saier-a600n-2260-usa4g-aal-bg95-ui-v1.0-6\GSM.C"
  56  006B  0F01        	mov a,1
  56  006C  0080     E  	mov ra,a
  56  006D              _L8:
  73  006D              #line 73 "k:\55555555555555\test\saier-a600n-2260-usa4g-aal-bg95-ui-v1.0-6\GSM.C"
  73  006D  0700     E  	mov a,ra
  73  006E  0003        	ret
  73  006F              _Char_TO_HEX endp
  73  006F              #line 73 "k:\55555555555555\test\saier-a600n-2260-usa4g-aal-bg95-ui-v1.0-6\GSM.C"
  73  006F              #pragma debug scope 1 1
  73  006F              _up_data equ [384]
  73  006F              public _test_data_int
  73  006F              #pragma debug scope 4 1
  77  006F              #line 77 "k:\55555555555555\test\saier-a600n-2260-usa4g-aal-bg95-ui-v1.0-6\GSM.C"
  77  0000              _test_data_int .section 'code'
  77  0000              _test_data_int proc
  84  0000              #line 84 "k:\55555555555555\test\saier-a600n-2260-usa4g-aal-bg95-ui-v1.0-6\GSM.C"
  84  0000  0F30        	mov a,48
  84  0001  C083 0001   	lmov [387],a
  85  0003              #line 85 "k:\55555555555555\test\saier-a600n-2260-usa4g-aal-bg95-ui-v1.0-6\GSM.C"
  85  0003  0F31        	mov a,49
  85  0004  C084 0001   	lmov [388],a
  94  0006              #line 94 "k:\55555555555555\test\saier-a600n-2260-usa4g-aal-bg95-ui-v1.0-6\GSM.C"
  94  0006  0F30        	mov a,48
  94  0007  C085 0001   	lmov [389],a
  95  0009              #line 95 "k:\55555555555555\test\saier-a600n-2260-usa4g-aal-bg95-ui-v1.0-6\GSM.C"
  95  0009  0F31        	mov a,49
  95  000A  C086 0001   	lmov [390],a
  97  000C              #line 97 "k:\55555555555555\test\saier-a600n-2260-usa4g-aal-bg95-ui-v1.0-6\GSM.C"
  97  000C  0F22        	mov a,34
  97  000D  C087 0001   	lmov [391],a
 107  000F              #line 107 "k:\55555555555555\test\saier-a600n-2260-usa4g-aal-bg95-ui-v1.0-6\GSM.C"
 107  000F  0F22        	mov a,34
 107  0010  C091 0001   	lmov [401],a
 121  0012              #line 121 "k:\55555555555555\test\saier-a600n-2260-usa4g-aal-bg95-ui-v1.0-6\GSM.C"
 121  0012  0F32        	mov a,50
 121  0013  C09B 0001   	lmov [411],a
 122  0015              #line 122 "k:\55555555555555\test\saier-a600n-2260-usa4g-aal-bg95-ui-v1.0-6\GSM.C"
 122  0015  0F30        	mov a,48
 122  0016  C09C 0001   	lmov [412],a
 123  0018              #line 123 "k:\55555555555555\test\saier-a600n-2260-usa4g-aal-bg95-ui-v1.0-6\GSM.C"
 123  0018  0F32        	mov a,50
 123  0019  C09D 0001   	lmov [413],a
 124  001B              #line 124 "k:\55555555555555\test\saier-a600n-2260-usa4g-aal-bg95-ui-v1.0-6\GSM.C"
 124  001B  0F31        	mov a,49
 124  001C  C09E 0001   	lmov [414],a
 126  001E              #line 126 "k:\55555555555555\test\saier-a600n-2260-usa4g-aal-bg95-ui-v1.0-6\GSM.C"
 126  001E  0F30        	mov a,48
 126  001F  C09F 0001   	lmov [415],a
文件：GSM.C        编译器版本 HGASM 0202 页次6

 127  0021              #line 127 "k:\55555555555555\test\saier-a600n-2260-usa4g-aal-bg95-ui-v1.0-6\GSM.C"
 127  0021  0F33        	mov a,51
 127  0022  C0A0 0001   	lmov [416],a
 129  0024              #line 129 "k:\55555555555555\test\saier-a600n-2260-usa4g-aal-bg95-ui-v1.0-6\GSM.C"
 129  0024  0F33        	mov a,51
 129  0025  C0A1 0001   	lmov [417],a
 130  0027              #line 130 "k:\55555555555555\test\saier-a600n-2260-usa4g-aal-bg95-ui-v1.0-6\GSM.C"
 130  0027  0F31        	mov a,49
 130  0028  C0A2 0001   	lmov [418],a
 132  002A              #line 132 "k:\55555555555555\test\saier-a600n-2260-usa4g-aal-bg95-ui-v1.0-6\GSM.C"
 132  002A  0F30        	mov a,48
 132  002B  C0A3 0001   	lmov [419],a
 133  002D              #line 133 "k:\55555555555555\test\saier-a600n-2260-usa4g-aal-bg95-ui-v1.0-6\GSM.C"
 133  002D  0F39        	mov a,57
 133  002E  C0A4 0001   	lmov [420],a
 135  0030              #line 135 "k:\55555555555555\test\saier-a600n-2260-usa4g-aal-bg95-ui-v1.0-6\GSM.C"
 135  0030  0F30        	mov a,48
 135  0031  C0A5 0001   	lmov [421],a
 136  0033              #line 136 "k:\55555555555555\test\saier-a600n-2260-usa4g-aal-bg95-ui-v1.0-6\GSM.C"
 136  0033  0F33        	mov a,51
 136  0034  C0A6 0001   	lmov [422],a
 145  0036              #line 145 "k:\55555555555555\test\saier-a600n-2260-usa4g-aal-bg95-ui-v1.0-6\GSM.C"
 145  0036  0F22        	mov a,34
 145  0037  C0AB 0001   	lmov [427],a
 161  0039              #line 161 "k:\55555555555555\test\saier-a600n-2260-usa4g-aal-bg95-ui-v1.0-6\GSM.C"
 161  0039  0F22        	mov a,34
 161  003A  C0BB 0001   	lmov [443],a
 161  003C  0003        	ret
 161  003D              _test_data_int endp
 161  003D              #line 161 "k:\55555555555555\test\saier-a600n-2260-usa4g-aal-bg95-ui-v1.0-6\GSM.C"
 161  003D              #pragma debug scope 1 1
 161  003D              ___intc0 equ [32]
 161  003D              _Rx_Buff0 equ [640]
 161  003D              _R_TIME equ [896]
 161  003D              _Rx_Size equ [931]
 161  003D              public _gettime
 161  003D              #pragma debug scope 5 1
 187  003D              #line 187 "k:\55555555555555\test\saier-a600n-2260-usa4g-aal-bg95-ui-v1.0-6\GSM.C"
 187  0000              _gettime .section 'code'
 187  0000              _gettime proc
 187  0000  0018[           local _gettime_2 db 24 dup(?)	; 0,24
            00
            ]
 187  0018              #pragma debug array 42 8 18 5
 187  0018              #pragma debug array 42 8 18 5
 187  0018              #pragma debug variable 42 5 _gettime_2+0 "time"
 197  0018              #line 197 "k:\55555555555555\test\saier-a600n-2260-usa4g-aal-bg95-ui-v1.0-6\GSM.C"
 197  0000  3420        	clr [32].0
 198  0001              #line 198 "k:\55555555555555\test\saier-a600n-2260-usa4g-aal-bg95-ui-v1.0-6\GSM.C"
 198  0001  1F00     R  	clr _gettime_2[18]
 198  0002              _L27:
 198  0002              #line 198 "k:\55555555555555\test\saier-a600n-2260-usa4g-aal-bg95-ui-v1.0-6\GSM.C"
 198  0002  0700     R  	mov a,_gettime_2[18]
 198  0003  C223 0003   	lsub a,[931]
 198  0005  3C0A        	sz c
 198  0006  2800     R  	jmp _L40
 200  0007              #line 200 "k:\55555555555555\test\saier-a600n-2260-usa4g-aal-bg95-ui-v1.0-6\GSM.C"
 200  0007  0F80        	mov a,low offset _Rx_Buff0
 200  0008  0300     R  	add a,_gettime_2[18]
 200  0009  0083        	mov mp,a
文件：GSM.C        编译器版本 HGASM 0202 页次7

 200  000A  0F02        	mov a,high offset _Rx_Buff0
 200  000B  1F04        	clr sbp
 200  000C  1384        	adcm a,sbp
 200  000D              	fcall _Crom2Prom
 200  0014  0080     E  	mov ra,a
 200  0015  0700     E  	mov a,ra
 200  0016  0A22        	sub a,34
 200  0017  390A        	snz z
 200  0018  2800     R  	jmp _L28
 202  0019              #line 202 "k:\55555555555555\test\saier-a600n-2260-usa4g-aal-bg95-ui-v1.0-6\GSM.C"
 202  0019  0700     R  	mov a,_gettime_2[18]
 202  001A  0B03        	add a,3
 202  001B  0080     E  	mov rb,a
 202  001C  0F12        	mov a,18
 202  001D  0080     E  	mov ra,a
 203  001E              #line 203 "k:\55555555555555\test\saier-a600n-2260-usa4g-aal-bg95-ui-v1.0-6\GSM.C"
 203  001E  1F00     E  	clr rc
 203  001F              _L30:
 205  001F              #line 205 "k:\55555555555555\test\saier-a600n-2260-usa4g-aal-bg95-ui-v1.0-6\GSM.C"
 205  001F  0F80        	mov a,low offset _Rx_Buff0
 205  0020  0300     E  	add a,rb
 205  0021  0083        	mov mp,a
 205  0022  0F02        	mov a,high offset _Rx_Buff0
 205  0023  1F04        	clr sbp
 205  0024  1384        	adcm a,sbp
 205  0025              	fcall _Crom2Prom
 205  002C  0080     E  	mov rd,a
 205  002D  0F00     R  	mov a,low offset _gettime_2
 205  002E  0080     E  	mov re,a
 205  002F  0F00     R  	mov a,high offset _gettime_2
 205  0030  0080     E  	mov rf,a
 205  0031  0700     E  	mov a,rc
 205  0032  0300     E  	add a,re
 205  0033  0083        	mov mp,a
 205  0034  1F05        	clr acc
 205  0035  1300     E  	adc a,rf
 205  0036  0084        	mov sbp,a
 205  0037  0700     E  	mov a,rd
 205  0038  0082        	mov ir,a
 203  0039              #line 203 "k:\55555555555555\test\saier-a600n-2260-usa4g-aal-bg95-ui-v1.0-6\GSM.C"
 203  0039  1480     E  	inc rc
 203  003A  1480     E  	inc rb
 203  003B  1780     E  	sdz ra
 203  003C  2800     R  	jmp _L30
 203  003D  0F15        	mov a,21
 203  003E  0380     R  	addm a,_gettime_2[18]
 203  003F  0F12        	mov a,18
 203  0040  0080     R  	mov _gettime_2[20],a
 203  0041  1F00     R  	clr _gettime_2[19]
 203  0042              _L32:
 209  0042              #line 209 "k:\55555555555555\test\saier-a600n-2260-usa4g-aal-bg95-ui-v1.0-6\GSM.C"
 209  0042  0700     R  	mov a,_gettime_2[19]
 209  0043  0080     R  	mov _gettime_2[21],a
 209  0044  1F00     R  	clr _gettime_2[22]
 209  0045  0F00     R  	mov a,low(offset _gettime_2)
 209  0046  0300     R  	add a,_gettime_2[21]
 209  0047  0083        	mov mp,a
 209  0048  0F00     R  	mov a,high(offset _gettime_2)
 209  0049  1300     R  	adc a,_gettime_2[22]
 209  004A  0084        	mov sbp,a
文件：GSM.C        编译器版本 HGASM 0202 页次8

 209  004B              	fcall _Crom2Prom
 209  0052              	fcall _Char_TO_HEX
 209  0059  0080     E  	mov ra,a
 209  005A  0F00     R  	mov a,low(offset _gettime_2)
 209  005B  0300     R  	add a,_gettime_2[21]
 209  005C  0083        	mov mp,a
 209  005D  0F00     R  	mov a,high(offset _gettime_2)
 209  005E  1300     R  	adc a,_gettime_2[22]
 209  005F  0084        	mov sbp,a
 209  0060  0700     E  	mov a,ra
 209  0061  0082        	mov ir,a
 207  0062              #line 207 "k:\55555555555555\test\saier-a600n-2260-usa4g-aal-bg95-ui-v1.0-6\GSM.C"
 207  0062  1480     R  	inc _gettime_2[19]
 207  0063  1780     R  	sdz _gettime_2[20]
 207  0064  2800     R  	jmp _L32
 211  0065              #line 211 "k:\55555555555555\test\saier-a600n-2260-usa4g-aal-bg95-ui-v1.0-6\GSM.C"
 211  0065  0700     R  	mov a,_gettime_2[0]
 211  0066  0080     E  	mov ra,a
 211  0067  0700     E  	mov a,ra
 211  0068  0300     E  	add a,ra
 211  0069  0080     E  	mov rf,a
 211  006A  0700     E  	mov a,rf
 211  006B  0380     E  	addm a,rf
 211  006C  0700     E  	mov a,rf
 211  006D  0380     E  	addm a,ra
 211  006E  0700     E  	mov a,ra
 211  006F  0380     E  	addm a,ra
 211  0070  0700     E  	mov a,ra
 211  0071  0300     R  	add a,_gettime_2[1]
 211  0072  0080     E  	mov rf,a
 212  0073              #line 212 "k:\55555555555555\test\saier-a600n-2260-usa4g-aal-bg95-ui-v1.0-6\GSM.C"
 212  0073  0700     R  	mov a,_gettime_2[3]
 212  0074  0080     E  	mov re,a
 212  0075  0700     R  	mov a,_gettime_2[4]
 212  0076  0080     E  	mov rh,a
 213  0077              #line 213 "k:\55555555555555\test\saier-a600n-2260-usa4g-aal-bg95-ui-v1.0-6\GSM.C"
 213  0077  0700     R  	mov a,_gettime_2[6]
 213  0078  0080     E  	mov rd,a
 213  0079  0700     R  	mov a,_gettime_2[7]
 213  007A  0080     R  	mov _gettime_2[20],a
 214  007B              #line 214 "k:\55555555555555\test\saier-a600n-2260-usa4g-aal-bg95-ui-v1.0-6\GSM.C"
 214  007B  0700     R  	mov a,_gettime_2[9]
 214  007C  0080     E  	mov rc,a
 214  007D  0700     R  	mov a,_gettime_2[10]
 214  007E  0080     R  	mov _gettime_2[21],a
 215  007F              #line 215 "k:\55555555555555\test\saier-a600n-2260-usa4g-aal-bg95-ui-v1.0-6\GSM.C"
 215  007F  0700     R  	mov a,_gettime_2[12]
 215  0080  0080     E  	mov rb,a
 215  0081  0700     R  	mov a,_gettime_2[13]
 215  0082  0080     R  	mov _gettime_2[23],a
 216  0083              #line 216 "k:\55555555555555\test\saier-a600n-2260-usa4g-aal-bg95-ui-v1.0-6\GSM.C"
 216  0083  0700     R  	mov a,_gettime_2[15]
 216  0084  0080     E  	mov ra,a
 216  0085  0700     R  	mov a,_gettime_2[16]
 216  0086  0080     R  	mov _gettime_2[19],a
 217  0087              #line 217 "k:\55555555555555\test\saier-a600n-2260-usa4g-aal-bg95-ui-v1.0-6\GSM.C"
 217  0087  0700     E  	mov a,rf
 217  0088  0BEA        	add a,234
 217  0089  0080     E  	mov rg,a
 217  008A  0F39        	mov a,57
文件：GSM.C        编译器版本 HGASM 0202 页次9

 217  008B  0200     E  	sub a,rg
 217  008C  380A        	snz c
 217  008D  2800     R  	jmp _L28
 212  008E              #line 212 "k:\55555555555555\test\saier-a600n-2260-usa4g-aal-bg95-ui-v1.0-6\GSM.C"
 212  008E  0700     E  	mov a,re
 212  008F  0300     E  	add a,re
 212  0090  0080     E  	mov rg,a
 212  0091  0700     E  	mov a,rg
 212  0092  0380     E  	addm a,rg
 212  0093  0700     E  	mov a,re
 212  0094  0380     E  	addm a,rg
 212  0095  0700     E  	mov a,rg
 212  0096  0380     E  	addm a,rg
 212  0097  0700     E  	mov a,rg
 212  0098  0380     E  	addm a,rh
 217  0099              #line 217 "k:\55555555555555\test\saier-a600n-2260-usa4g-aal-bg95-ui-v1.0-6\GSM.C"
 217  0099  1500     E  	deca rh
 217  009A  0080     E  	mov re,a
 217  009B  0F0B        	mov a,11
 217  009C  0200     E  	sub a,re
 217  009D  380A        	snz c
 217  009E  2800     R  	jmp _L28
 213  009F              #line 213 "k:\55555555555555\test\saier-a600n-2260-usa4g-aal-bg95-ui-v1.0-6\GSM.C"
 213  009F  0700     E  	mov a,rd
 213  00A0  0300     E  	add a,rd
 213  00A1  0080     E  	mov re,a
 213  00A2  0700     E  	mov a,re
 213  00A3  0380     E  	addm a,re
 213  00A4  0700     E  	mov a,rd
 213  00A5  0380     E  	addm a,re
 213  00A6  0700     E  	mov a,re
 213  00A7  0380     E  	addm a,re
 213  00A8  0700     R  	mov a,_gettime_2[20]
 213  00A9  0380     E  	addm a,re
 217  00AA              #line 217 "k:\55555555555555\test\saier-a600n-2260-usa4g-aal-bg95-ui-v1.0-6\GSM.C"
 217  00AA  0F1F        	mov a,31
 217  00AB  0200     E  	sub a,re
 217  00AC  380A        	snz c
 217  00AD  2800     R  	jmp _L28
 214  00AE              #line 214 "k:\55555555555555\test\saier-a600n-2260-usa4g-aal-bg95-ui-v1.0-6\GSM.C"
 214  00AE  0700     E  	mov a,rc
 214  00AF  0300     E  	add a,rc
 214  00B0  0080     E  	mov rd,a
 214  00B1  0700     E  	mov a,rd
 214  00B2  0380     E  	addm a,rd
 214  00B3  0700     E  	mov a,rc
 214  00B4  0380     E  	addm a,rd
 214  00B5  0700     E  	mov a,rd
 214  00B6  0380     E  	addm a,rd
 214  00B7  0700     R  	mov a,_gettime_2[21]
 214  00B8  0380     E  	addm a,rd
 217  00B9              #line 217 "k:\55555555555555\test\saier-a600n-2260-usa4g-aal-bg95-ui-v1.0-6\GSM.C"
 217  00B9  0F18        	mov a,24
 217  00BA  0200     E  	sub a,rd
 217  00BB  380A        	snz c
 217  00BC  2800     R  	jmp _L28
 215  00BD              #line 215 "k:\55555555555555\test\saier-a600n-2260-usa4g-aal-bg95-ui-v1.0-6\GSM.C"
 215  00BD  0700     E  	mov a,rb
 215  00BE  0300     E  	add a,rb
 215  00BF  0080     E  	mov rc,a
文件：GSM.C        编译器版本 HGASM 0202 页次10

 215  00C0  0700     E  	mov a,rc
 215  00C1  0380     E  	addm a,rc
 215  00C2  0700     E  	mov a,rb
 215  00C3  0380     E  	addm a,rc
 215  00C4  0700     E  	mov a,rc
 215  00C5  0380     E  	addm a,rc
 215  00C6  0700     R  	mov a,_gettime_2[23]
 215  00C7  0380     E  	addm a,rc
 217  00C8              #line 217 "k:\55555555555555\test\saier-a600n-2260-usa4g-aal-bg95-ui-v1.0-6\GSM.C"
 217  00C8  0F3C        	mov a,60
 217  00C9  0200     E  	sub a,rc
 217  00CA  380A        	snz c
 217  00CB  2800     R  	jmp _L28
 220  00CC              #line 220 "k:\55555555555555\test\saier-a600n-2260-usa4g-aal-bg95-ui-v1.0-6\GSM.C"
 220  00CC  0700     E  	mov a,rf
 220  00CD  C080 0003   	lmov [896],a
 221  00CF              #line 221 "k:\55555555555555\test\saier-a600n-2260-usa4g-aal-bg95-ui-v1.0-6\GSM.C"
 221  00CF  0700     E  	mov a,rh
 221  00D0  C081 0003   	lmov [897],a
 222  00D2              #line 222 "k:\55555555555555\test\saier-a600n-2260-usa4g-aal-bg95-ui-v1.0-6\GSM.C"
 222  00D2  0700     E  	mov a,re
 222  00D3  C082 0003   	lmov [898],a
 223  00D5              #line 223 "k:\55555555555555\test\saier-a600n-2260-usa4g-aal-bg95-ui-v1.0-6\GSM.C"
 223  00D5  0700     E  	mov a,rd
 223  00D6  C083 0003   	lmov [899],a
 224  00D8              #line 224 "k:\55555555555555\test\saier-a600n-2260-usa4g-aal-bg95-ui-v1.0-6\GSM.C"
 224  00D8  0700     E  	mov a,rc
 224  00D9  C084 0003   	lmov [900],a
 216  00DB              #line 216 "k:\55555555555555\test\saier-a600n-2260-usa4g-aal-bg95-ui-v1.0-6\GSM.C"
 216  00DB  0700     E  	mov a,ra
 216  00DC  0300     E  	add a,ra
 216  00DD  0080     E  	mov rb,a
 216  00DE  0700     E  	mov a,rb
 216  00DF  0380     E  	addm a,rb
 216  00E0  0700     E  	mov a,rb
 216  00E1  0380     E  	addm a,ra
 216  00E2  0700     E  	mov a,ra
 216  00E3  0380     E  	addm a,ra
 225  00E4              #line 225 "k:\55555555555555\test\saier-a600n-2260-usa4g-aal-bg95-ui-v1.0-6\GSM.C"
 225  00E4  0700     E  	mov a,ra
 225  00E5  0300     R  	add a,_gettime_2[19]
 225  00E6  C085 0003   	lmov [901],a
 227  00E8              #line 227 "k:\55555555555555\test\saier-a600n-2260-usa4g-aal-bg95-ui-v1.0-6\GSM.C"
 227  00E8  0F03        	mov a,3
 227  00E9  C203 0003   	lsub a,[899]
 227  00EB  3C0A        	sz c
 227  00EC  2800     R  	jmp _L33
 229  00ED              #line 229 "k:\55555555555555\test\saier-a600n-2260-usa4g-aal-bg95-ui-v1.0-6\GSM.C"
 229  00ED  0FFC        	mov a,252
 229  00EE  C383 0003   	laddm a,[899]
 229  00F0  2800     R  	jmp _L34
 229  00F1              _L33:
 233  00F1              #line 233 "k:\55555555555555\test\saier-a600n-2260-usa4g-aal-bg95-ui-v1.0-6\GSM.C"
 233  00F1  0F14        	mov a,20
 233  00F2  C303 0003   	ladd a,[899]
 233  00F4  0080     E  	mov rb,a
 233  00F5  0F00        	mov a,0
 233  00F6  1F00     E  	clr rc
 233  00F7  1380     E  	adcm a,rc
 233  00F8  0700     E  	mov a,rb
文件：GSM.C        编译器版本 HGASM 0202 页次11

 233  00F9  0080     E  	mov _builtin_holtek_udivmodhi4_2[0],a
 233  00FA  0700     E  	mov a,rc
 233  00FB  0080     E  	mov _builtin_holtek_udivmodhi4_2[1],a
 233  00FC  0F18        	mov a,24
 233  00FD  0080     E  	mov _builtin_holtek_udivmodhi4_2[2],a
 233  00FE  0F00        	mov a,0
 233  00FF  0080     E  	mov _builtin_holtek_udivmodhi4_2[3],a
 233  0100              	fcall _builtin_holtek_divmodhi4
 233  0107  0700     E  	mov a,_builtin_holtek_udivmodhi4_2[4]
 233  0108  0080     E  	mov rb,a
 233  0109  0700     E  	mov a,_builtin_holtek_udivmodhi4_2[5]
 233  010A  0080     E  	mov rc,a
 233  010B  0700     E  	mov a,rb
 233  010C  C083 0003   	lmov [899],a
 234  010E              #line 234 "k:\55555555555555\test\saier-a600n-2260-usa4g-aal-bg95-ui-v1.0-6\GSM.C"
 234  010E  D782 0003   	lsdz [898]
 234  0110  2800     R  	jmp _L34
 237  0111              #line 237 "k:\55555555555555\test\saier-a600n-2260-usa4g-aal-bg95-ui-v1.0-6\GSM.C"
 237  0111  D781 0003   	lsdz [897]
 237  0113  2800     R  	jmp _L36
 240  0114              #line 240 "k:\55555555555555\test\saier-a600n-2260-usa4g-aal-bg95-ui-v1.0-6\GSM.C"
 240  0114  0F0C        	mov a,12
 240  0115  C081 0003   	lmov [897],a
 241  0117              #line 241 "k:\55555555555555\test\saier-a600n-2260-usa4g-aal-bg95-ui-v1.0-6\GSM.C"
 241  0117  D580 0003   	ldec [896]
 241  0119              _L36:
 243  0119              #line 243 "k:\55555555555555\test\saier-a600n-2260-usa4g-aal-bg95-ui-v1.0-6\GSM.C"
 243  0119  0F00     R  	mov a,low offset _data_time2
 243  011A  C301 0003   	ladd a,[897]
 243  011C  0083        	mov mp,a
 243  011D  0F00     R  	mov a,high offset _data_time2
 243  011E  1F04        	clr sbp
 243  011F  1384        	adcm a,sbp
 243  0120              	fcall _Crom2Prom
 243  0127  C082 0003   	lmov [898],a
 244  0129              #line 244 "k:\55555555555555\test\saier-a600n-2260-usa4g-aal-bg95-ui-v1.0-6\GSM.C"
 244  0129  C700 0003   	lmov a,[896]
 244  012B  0E03        	and a,3
 244  012C  0080     E  	mov ra,a
 244  012D  1080     E  	sz ra
 244  012E  2800     R  	jmp _L34
 244  012F  C701 0003   	lmov a,[897]
 244  0131  0A02        	sub a,2
 244  0132  390A        	snz z
 244  0133  2800     R  	jmp _L34
 245  0134              #line 245 "k:\55555555555555\test\saier-a600n-2260-usa4g-aal-bg95-ui-v1.0-6\GSM.C"
 245  0134  0F1D        	mov a,29
 245  0135  C082 0003   	lmov [898],a
 245  0137              _L34:
 248  0137              #line 248 "k:\55555555555555\test\saier-a600n-2260-usa4g-aal-bg95-ui-v1.0-6\GSM.C"
 248  0137  3000     E  	set _MODEFLAG[0].0
 249  0138              #line 249 "k:\55555555555555\test\saier-a600n-2260-usa4g-aal-bg95-ui-v1.0-6\GSM.C"
 249  0138              	fcall _SBR_UPDATE_TIME
 250  013F              #line 250 "k:\55555555555555\test\saier-a600n-2260-usa4g-aal-bg95-ui-v1.0-6\GSM.C"
 250  013F  0F01        	mov a,1
 250  0140  0080     E  	mov ra,a
 251  0141              #line 251 "k:\55555555555555\test\saier-a600n-2260-usa4g-aal-bg95-ui-v1.0-6\GSM.C"
 251  0141  2800     R  	jmp _L38
 251  0142              _L28:
 198  0142              #line 198 "k:\55555555555555\test\saier-a600n-2260-usa4g-aal-bg95-ui-v1.0-6\GSM.C"
文件：GSM.C        编译器版本 HGASM 0202 页次12

 198  0142  1480     R  	inc _gettime_2[18]
 198  0143  2800     R  	jmp _L27
 198  0144              _L40:
 196  0144              #line 196 "k:\55555555555555\test\saier-a600n-2260-usa4g-aal-bg95-ui-v1.0-6\GSM.C"
 196  0144  1F00     E  	clr ra
 196  0145              _L38:
 255  0145              #line 255 "k:\55555555555555\test\saier-a600n-2260-usa4g-aal-bg95-ui-v1.0-6\GSM.C"
 255  0145  3020        	set [32].0
 257  0146              #line 257 "k:\55555555555555\test\saier-a600n-2260-usa4g-aal-bg95-ui-v1.0-6\GSM.C"
 257  0146  0700     E  	mov a,ra
 257  0147  0003        	ret
 257  0148              _gettime endp
 257  0148              #line 257 "k:\55555555555555\test\saier-a600n-2260-usa4g-aal-bg95-ui-v1.0-6\GSM.C"
 257  0148              #pragma debug scope 1 1
 257  0148              ___txr_rxr0 equ [50]
 257  0148              public _DRV_PutChar
 257  0148              #pragma debug scope 6 1
1383  0148              #line 1383 "k:\55555555555555\test\saier-a600n-2260-usa4g-aal-bg95-ui-v1.0-6\GSM.C"
1383  0000              _DRV_PutChar .section 'code'
1383  0000              _DRV_PutChar proc
1383  0000  00              local _DRV_PutChar_2 db 1 dup(?)	; 0,1
1383  0000  0080     R  	mov _DRV_PutChar_2[0],a
1383  0001              #pragma debug variable 7 6 _DRV_PutChar_2+0 "u8Char"
1384  0001              #line 1384 "k:\55555555555555\test\saier-a600n-2260-usa4g-aal-bg95-ui-v1.0-6\GSM.C"
1384  0001  3400     E  	clr _gu8v_uart_flag[0].6
1385  0002              #line 1385 "k:\55555555555555\test\saier-a600n-2260-usa4g-aal-bg95-ui-v1.0-6\GSM.C"
1385  0002  3020        	set [32].0
1386  0003              #line 1386 "k:\55555555555555\test\saier-a600n-2260-usa4g-aal-bg95-ui-v1.0-6\GSM.C"
1386  0003  0700     R  	mov a,_DRV_PutChar_2[0]
1386  0004  00B2        	mov [50],a
1387  0005              #line 1387 "k:\55555555555555\test\saier-a600n-2260-usa4g-aal-bg95-ui-v1.0-6\GSM.C"
1387  0005  3400     E  	clr _Usflag[0].1
1388  0006              #line 1388 "k:\55555555555555\test\saier-a600n-2260-usa4g-aal-bg95-ui-v1.0-6\GSM.C"
1388  0006  3400     E  	clr _Usflag[0].2
1388  0007              _L43:
1389  0007              #line 1389 "k:\55555555555555\test\saier-a600n-2260-usa4g-aal-bg95-ui-v1.0-6\GSM.C"
1389  0007  3C00     E  	sz _gu8v_uart_flag[0].6
1389  0008  2800     R  	jmp _L42
1389  0009  3800     E  	snz _Usflag[0].2
1389  000A  2800     R  	jmp _L43
1389  000B              _L42:
1391  000B              #line 1391 "k:\55555555555555\test\saier-a600n-2260-usa4g-aal-bg95-ui-v1.0-6\GSM.C"
1391  000B  3400     E  	clr _gu8v_uart_flag[0].6
1391  000C  0003        	ret
1391  000D              _DRV_PutChar endp
1391  000D              #line 1391 "k:\55555555555555\test\saier-a600n-2260-usa4g-aal-bg95-ui-v1.0-6\GSM.C"
1391  000D              #pragma debug scope 1 1
1391  000D              public _print_with_Enter
1391  000D              #pragma debug scope 7 1
1198  000D              #line 1198 "k:\55555555555555\test\saier-a600n-2260-usa4g-aal-bg95-ui-v1.0-6\GSM.C"
1198  0000              _print_with_Enter .section 'code'
1198  0000              _print_with_Enter proc
1198  0000              public _print_with_Enter_2
1198  0000  0002[           local _print_with_Enter_2 db 2 dup(?)	; 2,0
            00
            ]
1198  0002              #pragma debug pointer 43 8 7
1198  0002              #pragma debug pointer 43 8 7
1198  0002              #pragma debug variable 43 7 _print_with_Enter_2+0 "t"
1198  0000              _L45:
文件：GSM.C        编译器版本 HGASM 0202 页次13

1199  0000              #line 1199 "k:\55555555555555\test\saier-a600n-2260-usa4g-aal-bg95-ui-v1.0-6\GSM.C"
1199  0000  0700     R  	mov a,_print_with_Enter_2[0]
1199  0001  0083        	mov mp,a
1199  0002  0700     R  	mov a,_print_with_Enter_2[1]
1199  0003  0084        	mov sbp,a
1199  0004              	fcall _Crom2Prom
1199  000B  0080     E  	mov ra,a
1199  000C  1E00     E  	snz ra
1199  000D  2800     R  	jmp _L47
1201  000E              #line 1201 "k:\55555555555555\test\saier-a600n-2260-usa4g-aal-bg95-ui-v1.0-6\GSM.C"
1201  000E  0700     E  	mov a,ra
1201  000F              	fcall _DRV_PutChar
1202  0016              #line 1202 "k:\55555555555555\test\saier-a600n-2260-usa4g-aal-bg95-ui-v1.0-6\GSM.C"
1202  0016  1480     R  	inc _print_with_Enter_2[0]
1202  0017  3D0A        	sz z
1202  0018  1480     R  	inc _print_with_Enter_2[1]
1202  0019  2800     R  	jmp _L45
1202  001A              _L47:
1204  001A              #line 1204 "k:\55555555555555\test\saier-a600n-2260-usa4g-aal-bg95-ui-v1.0-6\GSM.C"
1204  001A  0F0D        	mov a,13
1204  001B              	fcall _DRV_PutChar
1205  0022              #line 1205 "k:\55555555555555\test\saier-a600n-2260-usa4g-aal-bg95-ui-v1.0-6\GSM.C"
1205  0022  0F0A        	mov a,10
1205  0023              	fcall _DRV_PutChar
1205  002A  0003        	ret
1205  002B              _print_with_Enter endp
1205  002B              #line 1205 "k:\55555555555555\test\saier-a600n-2260-usa4g-aal-bg95-ui-v1.0-6\GSM.C"
1205  002B              #pragma debug scope 1 1
1205  002B              _timegsm equ [925]
1205  002B              ___pa equ [20]
1205  002B              public _whait_still_OK
1205  002B              #pragma debug scope 8 1
1234  002B              #line 1234 "k:\55555555555555\test\saier-a600n-2260-usa4g-aal-bg95-ui-v1.0-6\GSM.C"
1234  0000              _whait_still_OK .section 'code'
1234  0000              _whait_still_OK proc
1234  0000  00              local _whait_still_OK_2 db 1 dup(?)	; 0,1
1234  0000  0080     E  	mov ra,a
1234  0001  0080     R  	mov _whait_still_OK_2[0],a
1234  0002              #pragma debug variable 8 8 _whait_still_OK_2+0 "Time"
1236  0002              #line 1236 "k:\55555555555555\test\saier-a600n-2260-usa4g-aal-bg95-ui-v1.0-6\GSM.C"
1236  0002  0700     E  	mov a,ra
1236  0003  0300     E  	add a,ra
1236  0004  C09D 0003   	lmov [925],a
1236  0006              _L49:
1240  0006              #line 1240 "k:\55555555555555\test\saier-a600n-2260-usa4g-aal-bg95-ui-v1.0-6\GSM.C"
1240  0006  3C00     E  	sz _gu8v_uart_flag[0].7
1240  0007  2800     R  	jmp _L52
1240  0008  DE1D 0003   	lsnz [925]
1240  000A  2800     R  	jmp _L52
1243  000B              #line 1243 "k:\55555555555555\test\saier-a600n-2260-usa4g-aal-bg95-ui-v1.0-6\GSM.C"
1243  000B  3D94        	sz [20].3
1243  000C  2800     R  	jmp _L49
1245  000D              #line 1245 "k:\55555555555555\test\saier-a600n-2260-usa4g-aal-bg95-ui-v1.0-6\GSM.C"
1245  000D  3000     E  	set _KEYFLAG[0].1
1246  000E              #line 1246 "k:\55555555555555\test\saier-a600n-2260-usa4g-aal-bg95-ui-v1.0-6\GSM.C"
1246  000E  0F02        	mov a,2
1246  000F  0080     E  	mov ra,a
1246  0010  2800     R  	jmp _L51
1246  0011              _L52:
1250  0011              #line 1250 "k:\55555555555555\test\saier-a600n-2260-usa4g-aal-bg95-ui-v1.0-6\GSM.C"
文件：GSM.C        编译器版本 HGASM 0202 页次14

1250  0011  D09D 0003   	lsz [925]
1250  0013  2800     R  	jmp _L54
1252  0014              #line 1252 "k:\55555555555555\test\saier-a600n-2260-usa4g-aal-bg95-ui-v1.0-6\GSM.C"
1252  0014  0F00     R  	mov a,low offset _overtime
1252  0015  0080     R  	mov _print_with_Enter_2[0],a
1252  0016  0F00     R  	mov a,high offset _overtime
1252  0017  0080     R  	mov _print_with_Enter_2[1],a
1252  0018              	fcall _print_with_Enter
1253  001F              #line 1253 "k:\55555555555555\test\saier-a600n-2260-usa4g-aal-bg95-ui-v1.0-6\GSM.C"
1253  001F  0F01        	mov a,1
1253  0020  0080     E  	mov ra,a
1253  0021  2800     R  	jmp _L51
1253  0022              _L54:
1255  0022              #line 1255 "k:\55555555555555\test\saier-a600n-2260-usa4g-aal-bg95-ui-v1.0-6\GSM.C"
1255  0022  3400     E  	clr _gu8v_uart_flag[0].7
1256  0023              #line 1256 "k:\55555555555555\test\saier-a600n-2260-usa4g-aal-bg95-ui-v1.0-6\GSM.C"
1256  0023  0732        	mov a,[50]
1256  0024  C0A8 0002   	lmov [680],a
1256  0026  0F28        	mov a,40
1256  0027  0080     E  	mov ra,a
1257  0028              #line 1257 "k:\55555555555555\test\saier-a600n-2260-usa4g-aal-bg95-ui-v1.0-6\GSM.C"
1257  0028  1F00     E  	clr rd
1257  0029              _L56:
1259  0029              #line 1259 "k:\55555555555555\test\saier-a600n-2260-usa4g-aal-bg95-ui-v1.0-6\GSM.C"
1259  0029  0700     E  	mov a,rd
1259  002A  0080     E  	mov rb,a
1259  002B  1F00     E  	clr rc
1259  002C  0F81        	mov a,low (offset _Rx_Buff0+1)
1259  002D  0300     E  	add a,rb
1259  002E  0083        	mov mp,a
1259  002F  0F02        	mov a,high (offset _Rx_Buff0+1)
1259  0030  1300     E  	adc a,rc
1259  0031  0084        	mov sbp,a
1259  0032              	fcall _Crom2Prom
1259  0039  0080     E  	mov re,a
1259  003A  0F80        	mov a,low offset _Rx_Buff0
1259  003B  0300     E  	add a,rb
1259  003C  0083        	mov mp,a
1259  003D  0F02        	mov a,high offset _Rx_Buff0
1259  003E  1300     E  	adc a,rc
1259  003F  0084        	mov sbp,a
1259  0040  0700     E  	mov a,re
1259  0041  0082        	mov ir,a
1257  0042              #line 1257 "k:\55555555555555\test\saier-a600n-2260-usa4g-aal-bg95-ui-v1.0-6\GSM.C"
1257  0042  1480     E  	inc rd
1257  0043  1780     E  	sdz ra
1257  0044  2800     R  	jmp _L56
1262  0045              #line 1262 "k:\55555555555555\test\saier-a600n-2260-usa4g-aal-bg95-ui-v1.0-6\GSM.C"
1262  0045  C726 0002   	lmov a,[678]
1262  0047  0A4F        	sub a,79
1262  0048  390A        	snz z
1262  0049  2800     R  	jmp _L49
1262  004A  C727 0002   	lmov a,[679]
1262  004C  0A4B        	sub a,75
1262  004D  390A        	snz z
1262  004E  2800     R  	jmp _L49
1263  004F              #line 1263 "k:\55555555555555\test\saier-a600n-2260-usa4g-aal-bg95-ui-v1.0-6\GSM.C"
1263  004F  1F00     E  	clr ra
1263  0050              _L51:
1265  0050              #line 1265 "k:\55555555555555\test\saier-a600n-2260-usa4g-aal-bg95-ui-v1.0-6\GSM.C"
文件：GSM.C        编译器版本 HGASM 0202 页次15

1265  0050  0700     E  	mov a,ra
1265  0051  0003        	ret
1265  0052              _whait_still_OK endp
1265  0052              #line 1265 "k:\55555555555555\test\saier-a600n-2260-usa4g-aal-bg95-ui-v1.0-6\GSM.C"
1265  0052              #pragma debug scope 1 1
1265  0052              public _wait_Call_Ready
1265  0052              #pragma debug scope 9 1
1271  0052              #line 1271 "k:\55555555555555\test\saier-a600n-2260-usa4g-aal-bg95-ui-v1.0-6\GSM.C"
1271  0000              _wait_Call_Ready .section 'code'
1271  0000              _wait_Call_Ready proc
1271  0000  00              local _wait_Call_Ready_2 db 1 dup(?)	; 0,1
1271  0000  0080     E  	mov ra,a
1271  0001  0080     R  	mov _wait_Call_Ready_2[0],a
1271  0002              #pragma debug variable 8 9 _wait_Call_Ready_2+0 "Time"
1272  0002              #line 1272 "k:\55555555555555\test\saier-a600n-2260-usa4g-aal-bg95-ui-v1.0-6\GSM.C"
1272  0002  DF23 0003   	lclr [931]
1273  0004              #line 1273 "k:\55555555555555\test\saier-a600n-2260-usa4g-aal-bg95-ui-v1.0-6\GSM.C"
1273  0004  0700     E  	mov a,ra
1273  0005  0300     E  	add a,ra
1273  0006  C09D 0003   	lmov [925],a
1273  0008              _L59:
1276  0008              #line 1276 "k:\55555555555555\test\saier-a600n-2260-usa4g-aal-bg95-ui-v1.0-6\GSM.C"
1276  0008  3C00     E  	sz _gu8v_uart_flag[0].7
1276  0009  2800     R  	jmp _L62
1276  000A  DE1D 0003   	lsnz [925]
1276  000C  2800     R  	jmp _L62
1279  000D              #line 1279 "k:\55555555555555\test\saier-a600n-2260-usa4g-aal-bg95-ui-v1.0-6\GSM.C"
1279  000D  3D94        	sz [20].3
1279  000E  2800     R  	jmp _L59
1281  000F              #line 1281 "k:\55555555555555\test\saier-a600n-2260-usa4g-aal-bg95-ui-v1.0-6\GSM.C"
1281  000F  3000     E  	set _KEYFLAG[0].1
1281  0010  2800     R  	jmp _L70
1281  0011              _L62:
1285  0011              #line 1285 "k:\55555555555555\test\saier-a600n-2260-usa4g-aal-bg95-ui-v1.0-6\GSM.C"
1285  0011  3400     E  	clr _gu8v_uart_flag[0].7
1286  0012              #line 1286 "k:\55555555555555\test\saier-a600n-2260-usa4g-aal-bg95-ui-v1.0-6\GSM.C"
1286  0012  D09D 0003   	lsz [925]
1286  0014  2800     R  	jmp _L64
1288  0015              #line 1288 "k:\55555555555555\test\saier-a600n-2260-usa4g-aal-bg95-ui-v1.0-6\GSM.C"
1288  0015  0F00     R  	mov a,low offset _overtime
1288  0016  0080     R  	mov _print_with_Enter_2[0],a
1288  0017  0F00     R  	mov a,high offset _overtime
1288  0018  0080     R  	mov _print_with_Enter_2[1],a
1288  0019              	fcall _print_with_Enter
1288  0020              _L70:
1289  0020              #line 1289 "k:\55555555555555\test\saier-a600n-2260-usa4g-aal-bg95-ui-v1.0-6\GSM.C"
1289  0020  0F02        	mov a,2
1289  0021  0080     E  	mov ra,a
1289  0022  2800     R  	jmp _L61
1289  0023              _L64:
1291  0023              #line 1291 "k:\55555555555555\test\saier-a600n-2260-usa4g-aal-bg95-ui-v1.0-6\GSM.C"
1291  0023  0F80        	mov a,low offset _Rx_Buff0
1291  0024  C323 0003   	ladd a,[931]
1291  0026  0083        	mov mp,a
1291  0027  0F02        	mov a,high offset _Rx_Buff0
1291  0028  1F04        	clr sbp
1291  0029  1384        	adcm a,sbp
1291  002A  0732        	mov a,[50]
1291  002B  0082        	mov ir,a
1293  002C              #line 1293 "k:\55555555555555\test\saier-a600n-2260-usa4g-aal-bg95-ui-v1.0-6\GSM.C"
文件：GSM.C        编译器版本 HGASM 0202 页次16

1293  002C  0F78        	mov a,low (offset _Rx_Buff0-8)
1293  002D  C323 0003   	ladd a,[931]
1293  002F  0083        	mov mp,a
1293  0030  0F02        	mov a,high (offset _Rx_Buff0-8)
1293  0031  1F04        	clr sbp
1293  0032  1384        	adcm a,sbp
1293  0033              	fcall _Crom2Prom
1293  003A  0080     E  	mov ra,a
1293  003B  0700     E  	mov a,ra
1293  003C  0A45        	sub a,69
1293  003D  390A        	snz z
1293  003E  2800     R  	jmp _L65
1293  003F  0F79        	mov a,low (offset _Rx_Buff0-7)
1293  0040  C323 0003   	ladd a,[931]
1293  0042  0083        	mov mp,a
1293  0043  0F02        	mov a,high (offset _Rx_Buff0-7)
1293  0044  1F04        	clr sbp
1293  0045  1384        	adcm a,sbp
1293  0046              	fcall _Crom2Prom
1293  004D  0080     E  	mov ra,a
1293  004E  0700     E  	mov a,ra
1293  004F  0A52        	sub a,82
1293  0050  390A        	snz z
1293  0051  2800     R  	jmp _L65
1293  0052  0F7A        	mov a,low (offset _Rx_Buff0-6)
1293  0053  C323 0003   	ladd a,[931]
1293  0055  0083        	mov mp,a
1293  0056  0F02        	mov a,high (offset _Rx_Buff0-6)
1293  0057  1F04        	clr sbp
1293  0058  1384        	adcm a,sbp
1293  0059              	fcall _Crom2Prom
1293  0060  0080     E  	mov ra,a
1293  0061  0700     E  	mov a,ra
1293  0062  0A52        	sub a,82
1293  0063  390A        	snz z
1293  0064  2800     R  	jmp _L65
1293  0065  0F7B        	mov a,low (offset _Rx_Buff0-5)
1293  0066  C323 0003   	ladd a,[931]
1293  0068  0083        	mov mp,a
1293  0069  0F02        	mov a,high (offset _Rx_Buff0-5)
1293  006A  1F04        	clr sbp
1293  006B  1384        	adcm a,sbp
1293  006C              	fcall _Crom2Prom
1293  0073  0080     E  	mov ra,a
1293  0074  0700     E  	mov a,ra
1293  0075  0A4F        	sub a,79
1293  0076  390A        	snz z
1293  0077  2800     R  	jmp _L65
1293  0078  0F7C        	mov a,low (offset _Rx_Buff0-4)
1293  0079  C323 0003   	ladd a,[931]
1293  007B  0083        	mov mp,a
1293  007C  0F02        	mov a,high (offset _Rx_Buff0-4)
1293  007D  1F04        	clr sbp
1293  007E  1384        	adcm a,sbp
1293  007F              	fcall _Crom2Prom
1293  0086  0080     E  	mov ra,a
1293  0087  0700     E  	mov a,ra
1293  0088  0A52        	sub a,82
1293  0089  3D0A        	sz z
1293  008A  2800     R  	jmp _L67
文件：GSM.C        编译器版本 HGASM 0202 页次17

1293  008B              _L65:
1298  008B              #line 1298 "k:\55555555555555\test\saier-a600n-2260-usa4g-aal-bg95-ui-v1.0-6\GSM.C"
1298  008B  0F7D        	mov a,low (offset _Rx_Buff0-3)
1298  008C  C323 0003   	ladd a,[931]
1298  008E  0083        	mov mp,a
1298  008F  0F02        	mov a,high (offset _Rx_Buff0-3)
1298  0090  1F04        	clr sbp
1298  0091  1384        	adcm a,sbp
1298  0092              	fcall _Crom2Prom
1298  0099  0080     E  	mov ra,a
1298  009A  0700     E  	mov a,ra
1298  009B  0A30        	sub a,48
1298  009C  390A        	snz z
1298  009D  2800     R  	jmp _L66
1298  009E  0F7E        	mov a,low (offset _Rx_Buff0-2)
1298  009F  C323 0003   	ladd a,[931]
1298  00A1  0083        	mov mp,a
1298  00A2  0F02        	mov a,high (offset _Rx_Buff0-2)
1298  00A3  1F04        	clr sbp
1298  00A4  1384        	adcm a,sbp
1298  00A5              	fcall _Crom2Prom
1298  00AC  0080     E  	mov ra,a
1298  00AD  0700     E  	mov a,ra
1298  00AE  0A2C        	sub a,44
1298  00AF  390A        	snz z
1298  00B0  2800     R  	jmp _L66
1298  00B1  0F7F        	mov a,low (offset _Rx_Buff0-1)
1298  00B2  C323 0003   	ladd a,[931]
1298  00B4  0083        	mov mp,a
1298  00B5  0F02        	mov a,high (offset _Rx_Buff0-1)
1298  00B6  1F04        	clr sbp
1298  00B7  1384        	adcm a,sbp
1298  00B8              	fcall _Crom2Prom
1298  00BF  0080     E  	mov ra,a
1298  00C0  0700     E  	mov a,ra
1298  00C1  0A32        	sub a,50
1298  00C2  390A        	snz z
1298  00C3  2800     R  	jmp _L66
1298  00C4  0F80        	mov a,low offset _Rx_Buff0
1298  00C5  C323 0003   	ladd a,[931]
1298  00C7  0083        	mov mp,a
1298  00C8  0F02        	mov a,high offset _Rx_Buff0
1298  00C9  1F04        	clr sbp
1298  00CA  1384        	adcm a,sbp
1298  00CB              	fcall _Crom2Prom
1298  00D2  0080     E  	mov ra,a
1298  00D3  0700     E  	mov a,ra
1298  00D4  0A30        	sub a,48
1298  00D5  3D0A        	sz z
1298  00D6  2800     R  	jmp _L68
1298  00D7              _L66:
1304  00D7              #line 1304 "k:\55555555555555\test\saier-a600n-2260-usa4g-aal-bg95-ui-v1.0-6\GSM.C"
1304  00D7  D423 0003   	linca [931]
1304  00D9  0080     E  	mov ra,a
1304  00DA  0700     E  	mov a,ra
1304  00DB  C0A3 0003   	lmov [931],a
1304  00DD  0F55        	mov a,85
1304  00DE  0200     E  	sub a,ra
1304  00DF  3C0A        	sz c
1304  00E0  2800     R  	jmp _L59
文件：GSM.C        编译器版本 HGASM 0202 页次18

1306  00E1              #line 1306 "k:\55555555555555\test\saier-a600n-2260-usa4g-aal-bg95-ui-v1.0-6\GSM.C"
1306  00E1  0F00     R  	mov a,low offset _overram
1306  00E2  0080     R  	mov _print_with_Enter_2[0],a
1306  00E3  0F00     R  	mov a,high offset _overram
1306  00E4  0080     R  	mov _print_with_Enter_2[1],a
1306  00E5              	fcall _print_with_Enter
1307  00EC              #line 1307 "k:\55555555555555\test\saier-a600n-2260-usa4g-aal-bg95-ui-v1.0-6\GSM.C"
1307  00EC  0F01        	mov a,1
1307  00ED  0080     E  	mov ra,a
1307  00EE  2800     R  	jmp _L61
1307  00EF              _L67:
1295  00EF              #line 1295 "k:\55555555555555\test\saier-a600n-2260-usa4g-aal-bg95-ui-v1.0-6\GSM.C"
1295  00EF  0F03        	mov a,3
1295  00F0  0080     E  	mov ra,a
1295  00F1  2800     R  	jmp _L61
1295  00F2              _L68:
1301  00F2              #line 1301 "k:\55555555555555\test\saier-a600n-2260-usa4g-aal-bg95-ui-v1.0-6\GSM.C"
1301  00F2  0F09        	mov a,9
1301  00F3  0080     E  	mov ra,a
1301  00F4              _L61:
1310  00F4              #line 1310 "k:\55555555555555\test\saier-a600n-2260-usa4g-aal-bg95-ui-v1.0-6\GSM.C"
1310  00F4  0700     E  	mov a,ra
1310  00F5  0003        	ret
1310  00F6              _wait_Call_Ready endp
1310  00F6              #line 1310 "k:\55555555555555\test\saier-a600n-2260-usa4g-aal-bg95-ui-v1.0-6\GSM.C"
1310  00F6              #pragma debug scope 1 1
1310  00F6              public _read_GSM_data
1310  00F6              #pragma debug scope 10 1
1325  00F6              #line 1325 "k:\55555555555555\test\saier-a600n-2260-usa4g-aal-bg95-ui-v1.0-6\GSM.C"
1325  0000              _read_GSM_data .section 'code'
1325  0000              _read_GSM_data proc
1325  0000  00              local _read_GSM_data_2 db 1 dup(?)	; 0,1
1325  0000  0080     E  	mov ra,a
1325  0001  0080     R  	mov _read_GSM_data_2[0],a
1325  0002              #pragma debug variable 8 10 _read_GSM_data_2+0 "Time"
1326  0002              #line 1326 "k:\55555555555555\test\saier-a600n-2260-usa4g-aal-bg95-ui-v1.0-6\GSM.C"
1326  0002  DF23 0003   	lclr [931]
1327  0004              #line 1327 "k:\55555555555555\test\saier-a600n-2260-usa4g-aal-bg95-ui-v1.0-6\GSM.C"
1327  0004  0700     E  	mov a,ra
1327  0005  0300     E  	add a,ra
1327  0006  C09D 0003   	lmov [925],a
1327  0008              _L72:
1330  0008              #line 1330 "k:\55555555555555\test\saier-a600n-2260-usa4g-aal-bg95-ui-v1.0-6\GSM.C"
1330  0008  3C00     E  	sz _gu8v_uart_flag[0].7
1330  0009  2800     R  	jmp _L75
1330  000A  DE1D 0003   	lsnz [925]
1330  000C  2800     R  	jmp _L75
1333  000D              #line 1333 "k:\55555555555555\test\saier-a600n-2260-usa4g-aal-bg95-ui-v1.0-6\GSM.C"
1333  000D  3D94        	sz [20].3
1333  000E  2800     R  	jmp _L72
1335  000F              #line 1335 "k:\55555555555555\test\saier-a600n-2260-usa4g-aal-bg95-ui-v1.0-6\GSM.C"
1335  000F  3000     E  	set _KEYFLAG[0].1
1335  0010  2800     R  	jmp _L90
1335  0011              _L75:
1339  0011              #line 1339 "k:\55555555555555\test\saier-a600n-2260-usa4g-aal-bg95-ui-v1.0-6\GSM.C"
1339  0011  3400     E  	clr _gu8v_uart_flag[0].7
1340  0012              #line 1340 "k:\55555555555555\test\saier-a600n-2260-usa4g-aal-bg95-ui-v1.0-6\GSM.C"
1340  0012  D09D 0003   	lsz [925]
1340  0014  2800     R  	jmp _L77
1342  0015              #line 1342 "k:\55555555555555\test\saier-a600n-2260-usa4g-aal-bg95-ui-v1.0-6\GSM.C"
文件：GSM.C        编译器版本 HGASM 0202 页次19

1342  0015  0F00     R  	mov a,low offset _overtime
1342  0016  0080     R  	mov _print_with_Enter_2[0],a
1342  0017  0F00     R  	mov a,high offset _overtime
1342  0018  0080     R  	mov _print_with_Enter_2[1],a
1342  0019              	fcall _print_with_Enter
1342  0020              _L90:
1343  0020              #line 1343 "k:\55555555555555\test\saier-a600n-2260-usa4g-aal-bg95-ui-v1.0-6\GSM.C"
1343  0020  0F02        	mov a,2
1343  0021  0080     E  	mov ra,a
1343  0022  2800     R  	jmp _L74
1343  0023              _L77:
1345  0023              #line 1345 "k:\55555555555555\test\saier-a600n-2260-usa4g-aal-bg95-ui-v1.0-6\GSM.C"
1345  0023  0F80        	mov a,low offset _Rx_Buff0
1345  0024  C323 0003   	ladd a,[931]
1345  0026  0083        	mov mp,a
1345  0027  0F02        	mov a,high offset _Rx_Buff0
1345  0028  1F04        	clr sbp
1345  0029  1384        	adcm a,sbp
1345  002A  0732        	mov a,[50]
1345  002B  0082        	mov ir,a
1347  002C              #line 1347 "k:\55555555555555\test\saier-a600n-2260-usa4g-aal-bg95-ui-v1.0-6\GSM.C"
1347  002C  0F80        	mov a,low offset _Rx_Buff0
1347  002D  C323 0003   	ladd a,[931]
1347  002F  0083        	mov mp,a
1347  0030  0F02        	mov a,high offset _Rx_Buff0
1347  0031  1F04        	clr sbp
1347  0032  1384        	adcm a,sbp
1347  0033              	fcall _Crom2Prom
1347  003A  0080     E  	mov ra,a
1347  003B  0700     E  	mov a,ra
1347  003C  0A4B        	sub a,75
1347  003D  390A        	snz z
1347  003E  2800     R  	jmp _L78
1347  003F  0F7F        	mov a,low (offset _Rx_Buff0-1)
1347  0040  C323 0003   	ladd a,[931]
1347  0042  0083        	mov mp,a
1347  0043  0F02        	mov a,high (offset _Rx_Buff0-1)
1347  0044  1F04        	clr sbp
1347  0045  1384        	adcm a,sbp
1347  0046              	fcall _Crom2Prom
1347  004D  0080     E  	mov ra,a
1347  004E  0700     E  	mov a,ra
1347  004F  0A4F        	sub a,79
1347  0050  3D0A        	sz z
1347  0051  2800     R  	jmp _L84
1347  0052              _L78:
1347  0052  0F80        	mov a,low offset _Rx_Buff0
1347  0053  C323 0003   	ladd a,[931]
1347  0055  0083        	mov mp,a
1347  0056  0F02        	mov a,high offset _Rx_Buff0
1347  0057  1F04        	clr sbp
1347  0058  1384        	adcm a,sbp
1347  0059              	fcall _Crom2Prom
1347  0060  0080     E  	mov ra,a
1347  0061  0700     E  	mov a,ra
1347  0062  0A3E        	sub a,62
1347  0063  3D0A        	sz z
1347  0064  2800     R  	jmp _L84
1352  0065              #line 1352 "k:\55555555555555\test\saier-a600n-2260-usa4g-aal-bg95-ui-v1.0-6\GSM.C"
1352  0065  0F7C        	mov a,low (offset _Rx_Buff0-4)
文件：GSM.C        编译器版本 HGASM 0202 页次20

1352  0066  C323 0003   	ladd a,[931]
1352  0068  0083        	mov mp,a
1352  0069  0F02        	mov a,high (offset _Rx_Buff0-4)
1352  006A  1F04        	clr sbp
1352  006B  1384        	adcm a,sbp
1352  006C              	fcall _Crom2Prom
1352  0073  0080     E  	mov ra,a
1352  0074  0700     E  	mov a,ra
1352  0075  0A20        	sub a,32
1352  0076  390A        	snz z
1352  0077  2800     R  	jmp _L79
1352  0078  0F7D        	mov a,low (offset _Rx_Buff0-3)
1352  0079  C323 0003   	ladd a,[931]
1352  007B  0083        	mov mp,a
1352  007C  0F02        	mov a,high (offset _Rx_Buff0-3)
1352  007D  1F04        	clr sbp
1352  007E  1384        	adcm a,sbp
1352  007F              	fcall _Crom2Prom
1352  0086  0080     E  	mov ra,a
1352  0087  0700     E  	mov a,ra
1352  0088  0A44        	sub a,68
1352  0089  390A        	snz z
1352  008A  2800     R  	jmp _L79
1352  008B  0F7E        	mov a,low (offset _Rx_Buff0-2)
1352  008C  C323 0003   	ladd a,[931]
1352  008E  0083        	mov mp,a
1352  008F  0F02        	mov a,high (offset _Rx_Buff0-2)
1352  0090  1F04        	clr sbp
1352  0091  1384        	adcm a,sbp
1352  0092              	fcall _Crom2Prom
1352  0099  0080     E  	mov ra,a
1352  009A  0700     E  	mov a,ra
1352  009B  0A4F        	sub a,79
1352  009C  390A        	snz z
1352  009D  2800     R  	jmp _L79
1352  009E  0F7F        	mov a,low (offset _Rx_Buff0-1)
1352  009F  C323 0003   	ladd a,[931]
1352  00A1  0083        	mov mp,a
1352  00A2  0F02        	mov a,high (offset _Rx_Buff0-1)
1352  00A3  1F04        	clr sbp
1352  00A4  1384        	adcm a,sbp
1352  00A5              	fcall _Crom2Prom
1352  00AC  0080     E  	mov ra,a
1352  00AD  0700     E  	mov a,ra
1352  00AE  0A57        	sub a,87
1352  00AF  390A        	snz z
1352  00B0  2800     R  	jmp _L79
1352  00B1  0F80        	mov a,low offset _Rx_Buff0
1352  00B2  C323 0003   	ladd a,[931]
1352  00B4  0083        	mov mp,a
1352  00B5  0F02        	mov a,high offset _Rx_Buff0
1352  00B6  1F04        	clr sbp
1352  00B7  1384        	adcm a,sbp
1352  00B8              	fcall _Crom2Prom
1352  00BF  0080     E  	mov ra,a
1352  00C0  0700     E  	mov a,ra
1352  00C1  0A4E        	sub a,78
1352  00C2  3D0A        	sz z
1352  00C3  2800     R  	jmp _L85
1352  00C4              _L79:
文件：GSM.C        编译器版本 HGASM 0202 页次21

1357  00C4              #line 1357 "k:\55555555555555\test\saier-a600n-2260-usa4g-aal-bg95-ui-v1.0-6\GSM.C"
1357  00C4  0F7C        	mov a,low (offset _Rx_Buff0-4)
1357  00C5  C323 0003   	ladd a,[931]
1357  00C7  0083        	mov mp,a
1357  00C8  0F02        	mov a,high (offset _Rx_Buff0-4)
1357  00C9  1F04        	clr sbp
1357  00CA  1384        	adcm a,sbp
1357  00CB              	fcall _Crom2Prom
1357  00D2  0080     E  	mov ra,a
1357  00D3  0700     E  	mov a,ra
1357  00D4  0A4E        	sub a,78
1357  00D5  390A        	snz z
1357  00D6  2800     R  	jmp _L80
1357  00D7  0F7D        	mov a,low (offset _Rx_Buff0-3)
1357  00D8  C323 0003   	ladd a,[931]
1357  00DA  0083        	mov mp,a
1357  00DB  0F02        	mov a,high (offset _Rx_Buff0-3)
1357  00DC  1F04        	clr sbp
1357  00DD  1384        	adcm a,sbp
1357  00DE              	fcall _Crom2Prom
1357  00E5  0080     E  	mov ra,a
1357  00E6  0700     E  	mov a,ra
1357  00E7  0A6F        	sub a,111
1357  00E8  390A        	snz z
1357  00E9  2800     R  	jmp _L80
1357  00EA  0F7E        	mov a,low (offset _Rx_Buff0-2)
1357  00EB  C323 0003   	ladd a,[931]
1357  00ED  0083        	mov mp,a
1357  00EE  0F02        	mov a,high (offset _Rx_Buff0-2)
1357  00EF  1F04        	clr sbp
1357  00F0  1384        	adcm a,sbp
1357  00F1              	fcall _Crom2Prom
1357  00F8  0080     E  	mov ra,a
1357  00F9  0700     E  	mov a,ra
1357  00FA  0A20        	sub a,32
1357  00FB  390A        	snz z
1357  00FC  2800     R  	jmp _L80
1357  00FD  0F7F        	mov a,low (offset _Rx_Buff0-1)
1357  00FE  C323 0003   	ladd a,[931]
1357  0100  0083        	mov mp,a
1357  0101  0F02        	mov a,high (offset _Rx_Buff0-1)
1357  0102  1F04        	clr sbp
1357  0103  1384        	adcm a,sbp
1357  0104              	fcall _Crom2Prom
1357  010B  0080     E  	mov ra,a
1357  010C  0700     E  	mov a,ra
1357  010D  0A53        	sub a,83
1357  010E  390A        	snz z
1357  010F  2800     R  	jmp _L80
1357  0110  0F80        	mov a,low offset _Rx_Buff0
1357  0111  C323 0003   	ladd a,[931]
1357  0113  0083        	mov mp,a
1357  0114  0F02        	mov a,high offset _Rx_Buff0
1357  0115  1F04        	clr sbp
1357  0116  1384        	adcm a,sbp
1357  0117              	fcall _Crom2Prom
1357  011E  0080     E  	mov ra,a
1357  011F  0700     E  	mov a,ra
1357  0120  0A65        	sub a,101
1357  0121  3D0A        	sz z
文件：GSM.C        编译器版本 HGASM 0202 页次22

1357  0122  2800     R  	jmp _L86
1357  0123              _L80:
1362  0123              #line 1362 "k:\55555555555555\test\saier-a600n-2260-usa4g-aal-bg95-ui-v1.0-6\GSM.C"
1362  0123  0F7C        	mov a,low (offset _Rx_Buff0-4)
1362  0124  C323 0003   	ladd a,[931]
1362  0126  0083        	mov mp,a
1362  0127  0F02        	mov a,high (offset _Rx_Buff0-4)
1362  0128  1F04        	clr sbp
1362  0129  1384        	adcm a,sbp
1362  012A              	fcall _Crom2Prom
1362  0131  0080     E  	mov ra,a
1362  0132  0700     E  	mov a,ra
1362  0133  0A50        	sub a,80
1362  0134  390A        	snz z
1362  0135  2800     R  	jmp _L81
1362  0136  0F7D        	mov a,low (offset _Rx_Buff0-3)
1362  0137  C323 0003   	ladd a,[931]
1362  0139  0083        	mov mp,a
1362  013A  0F02        	mov a,high (offset _Rx_Buff0-3)
1362  013B  1F04        	clr sbp
1362  013C  1384        	adcm a,sbp
1362  013D              	fcall _Crom2Prom
1362  0144  0080     E  	mov ra,a
1362  0145  0700     E  	mov a,ra
1362  0146  0A20        	sub a,32
1362  0147  390A        	snz z
1362  0148  2800     R  	jmp _L81
1362  0149  0F7E        	mov a,low (offset _Rx_Buff0-2)
1362  014A  C323 0003   	ladd a,[931]
1362  014C  0083        	mov mp,a
1362  014D  0F02        	mov a,high (offset _Rx_Buff0-2)
1362  014E  1F04        	clr sbp
1362  014F  1384        	adcm a,sbp
1362  0150              	fcall _Crom2Prom
1362  0157  0080     E  	mov ra,a
1362  0158  0700     E  	mov a,ra
1362  0159  0A52        	sub a,82
1362  015A  390A        	snz z
1362  015B  2800     R  	jmp _L81
1362  015C  0F7F        	mov a,low (offset _Rx_Buff0-1)
1362  015D  C323 0003   	ladd a,[931]
1362  015F  0083        	mov mp,a
1362  0160  0F02        	mov a,high (offset _Rx_Buff0-1)
1362  0161  1F04        	clr sbp
1362  0162  1384        	adcm a,sbp
1362  0163              	fcall _Crom2Prom
1362  016A  0080     E  	mov ra,a
1362  016B  0700     E  	mov a,ra
1362  016C  0A44        	sub a,68
1362  016D  390A        	snz z
1362  016E  2800     R  	jmp _L81
1362  016F  0F80        	mov a,low offset _Rx_Buff0
1362  0170  C323 0003   	ladd a,[931]
1362  0172  0083        	mov mp,a
1362  0173  0F02        	mov a,high offset _Rx_Buff0
1362  0174  1F04        	clr sbp
1362  0175  1384        	adcm a,sbp
1362  0176              	fcall _Crom2Prom
1362  017D  0080     E  	mov ra,a
1362  017E  0700     E  	mov a,ra
文件：GSM.C        编译器版本 HGASM 0202 页次23

1362  017F  0A59        	sub a,89
1362  0180  3D0A        	sz z
1362  0181  2800     R  	jmp _L87
1362  0182              _L81:
1367  0182              #line 1367 "k:\55555555555555\test\saier-a600n-2260-usa4g-aal-bg95-ui-v1.0-6\GSM.C"
1367  0182  0F7C        	mov a,low (offset _Rx_Buff0-4)
1367  0183  C323 0003   	ladd a,[931]
1367  0185  0083        	mov mp,a
1367  0186  0F02        	mov a,high (offset _Rx_Buff0-4)
1367  0187  1F04        	clr sbp
1367  0188  1384        	adcm a,sbp
1367  0189              	fcall _Crom2Prom
1367  0190  0080     E  	mov ra,a
1367  0191  0700     E  	mov a,ra
1367  0192  0A4E        	sub a,78
1367  0193  390A        	snz z
1367  0194  2800     R  	jmp _L82
1367  0195  0F7D        	mov a,low (offset _Rx_Buff0-3)
1367  0196  C323 0003   	ladd a,[931]
1367  0198  0083        	mov mp,a
1367  0199  0F02        	mov a,high (offset _Rx_Buff0-3)
1367  019A  1F04        	clr sbp
1367  019B  1384        	adcm a,sbp
1367  019C              	fcall _Crom2Prom
1367  01A3  0080     E  	mov ra,a
1367  01A4  0700     E  	mov a,ra
1367  01A5  0A4E        	sub a,78
1367  01A6  390A        	snz z
1367  01A7  2800     R  	jmp _L82
1367  01A8  0F7E        	mov a,low (offset _Rx_Buff0-2)
1367  01A9  C323 0003   	ladd a,[931]
1367  01AB  0083        	mov mp,a
1367  01AC  0F02        	mov a,high (offset _Rx_Buff0-2)
1367  01AD  1F04        	clr sbp
1367  01AE  1384        	adcm a,sbp
1367  01AF              	fcall _Crom2Prom
1367  01B6  0080     E  	mov ra,a
1367  01B7  0700     E  	mov a,ra
1367  01B8  0A45        	sub a,69
1367  01B9  390A        	snz z
1367  01BA  2800     R  	jmp _L82
1367  01BB  0F7F        	mov a,low (offset _Rx_Buff0-1)
1367  01BC  C323 0003   	ladd a,[931]
1367  01BE  0083        	mov mp,a
1367  01BF  0F02        	mov a,high (offset _Rx_Buff0-1)
1367  01C0  1F04        	clr sbp
1367  01C1  1384        	adcm a,sbp
1367  01C2              	fcall _Crom2Prom
1367  01C9  0080     E  	mov ra,a
1367  01CA  0700     E  	mov a,ra
1367  01CB  0A43        	sub a,67
1367  01CC  390A        	snz z
1367  01CD  2800     R  	jmp _L82
1367  01CE  0F80        	mov a,low offset _Rx_Buff0
1367  01CF  C323 0003   	ladd a,[931]
1367  01D1  0083        	mov mp,a
1367  01D2  0F02        	mov a,high offset _Rx_Buff0
1367  01D3  1F04        	clr sbp
1367  01D4  1384        	adcm a,sbp
1367  01D5              	fcall _Crom2Prom
文件：GSM.C        编译器版本 HGASM 0202 页次24

1367  01DC  0080     E  	mov ra,a
1367  01DD  0700     E  	mov a,ra
1367  01DE  0A54        	sub a,84
1367  01DF  3D0A        	sz z
1367  01E0  2800     R  	jmp _L88
1367  01E1              _L82:
1373  01E1              #line 1373 "k:\55555555555555\test\saier-a600n-2260-usa4g-aal-bg95-ui-v1.0-6\GSM.C"
1373  01E1  D423 0003   	linca [931]
1373  01E3  0080     E  	mov ra,a
1373  01E4  0700     E  	mov a,ra
1373  01E5  C0A3 0003   	lmov [931],a
1373  01E7  0F55        	mov a,85
1373  01E8  0200     E  	sub a,ra
1373  01E9  3C0A        	sz c
1373  01EA  2800     R  	jmp _L72
1375  01EB              #line 1375 "k:\55555555555555\test\saier-a600n-2260-usa4g-aal-bg95-ui-v1.0-6\GSM.C"
1375  01EB  0F00     R  	mov a,low offset _overram
1375  01EC  0080     R  	mov _print_with_Enter_2[0],a
1375  01ED  0F00     R  	mov a,high offset _overram
1375  01EE  0080     R  	mov _print_with_Enter_2[1],a
1375  01EF              	fcall _print_with_Enter
1376  01F6              #line 1376 "k:\55555555555555\test\saier-a600n-2260-usa4g-aal-bg95-ui-v1.0-6\GSM.C"
1376  01F6  0F01        	mov a,1
1376  01F7  0080     E  	mov ra,a
1376  01F8  2800     R  	jmp _L74
1376  01F9              _L84:
1349  01F9              #line 1349 "k:\55555555555555\test\saier-a600n-2260-usa4g-aal-bg95-ui-v1.0-6\GSM.C"
1349  01F9  1F00     E  	clr ra
1349  01FA  2800     R  	jmp _L74
1349  01FB              _L85:
1354  01FB              #line 1354 "k:\55555555555555\test\saier-a600n-2260-usa4g-aal-bg95-ui-v1.0-6\GSM.C"
1354  01FB  0F06        	mov a,6
1354  01FC  0080     E  	mov ra,a
1354  01FD  2800     R  	jmp _L74
1354  01FE              _L86:
1359  01FE              #line 1359 "k:\55555555555555\test\saier-a600n-2260-usa4g-aal-bg95-ui-v1.0-6\GSM.C"
1359  01FE  0F0B        	mov a,11
1359  01FF  0080     E  	mov ra,a
1359  0200  2800     R  	jmp _L74
1359  0201              _L87:
1364  0201              #line 1364 "k:\55555555555555\test\saier-a600n-2260-usa4g-aal-bg95-ui-v1.0-6\GSM.C"
1364  0201  0F07        	mov a,7
1364  0202  0080     E  	mov ra,a
1364  0203  2800     R  	jmp _L74
1364  0204              _L88:
1370  0204              #line 1370 "k:\55555555555555\test\saier-a600n-2260-usa4g-aal-bg95-ui-v1.0-6\GSM.C"
1370  0204  0F09        	mov a,9
1370  0205  0080     E  	mov ra,a
1370  0206              _L74:
1380  0206              #line 1380 "k:\55555555555555\test\saier-a600n-2260-usa4g-aal-bg95-ui-v1.0-6\GSM.C"
1380  0206  0700     E  	mov a,ra
1380  0207  0003        	ret
1380  0208              _read_GSM_data endp
1380  0208              #line 1380 "k:\55555555555555\test\saier-a600n-2260-usa4g-aal-bg95-ui-v1.0-6\GSM.C"
1380  0208              #pragma debug scope 1 1
1380  0208              _step equ [927]
1380  0000              @crom	.section 'crom'
1380  0000              _LC0:
1380  0000              	db 041h,054h,045h,030h,00h
1380  0003              @crom	.section 'crom'
文件：GSM.C        编译器版本 HGASM 0202 页次25

1380  0003              _LC1:
1380  0003              	db 041h,054h,02bh,043h,050h,049h,04eh,03fh,00h
1380  0007              @crom	.section 'crom'
1380  0007              _LC2:
1380  0007              	db 041h,054h,02bh,043h,049h,04dh,049h,00h
1380  000B              @crom	.section 'crom'
1380  000B              _LC3:
1380  000B              	db 041h,054h,02bh,051h,047h,04dh,052h,00h
1380  000F              @crom	.section 'crom'
1380  000F              _LC4:
1380  000F              	db 041h,054h,02bh,051h,04dh,042h,04eh,043h,046h,047h
1380  0014              	db 03dh,022h,061h,075h,074h,06fh,073h,065h,06ch,022h
1380  0019              	db 00h
1380  001A              @crom	.section 'crom'
1380  001A              _LC5:
1380  001A              	db 041h,054h,02bh,051h,043h,046h,047h,03dh,022h,062h
1380  001F              	db 061h,06eh,064h,022h,00h
1380  0021              @crom	.section 'crom'
1380  0021              _LC6:
1380  0021              	db 041h,054h,02bh,051h,043h,046h,047h,03dh,022h,069h
1380  0026              	db 06fh,074h,06fh,070h,06dh,06fh,064h,065h,022h,00h
1380  002B              @crom	.section 'crom'
1380  002B              _LC7:
1380  002B              	db 041h,054h,02bh,051h,043h,046h,047h,03dh,022h,06eh
1380  0030              	db 077h,073h,063h,061h,06eh,073h,065h,071h,022h,00h
1380  0035              @crom	.section 'crom'
1380  0035              _LC8:
1380  0035              	db 041h,054h,02bh,051h,043h,046h,047h,03dh,022h,06eh
1380  003A              	db 077h,073h,063h,061h,06eh,06dh,06fh,064h,065h,022h
1380  003F              	db 00h
1380  0040              @crom	.section 'crom'
1380  0040              _LC9:
1380  0040              	db 041h,054h,02bh,043h,046h,055h,04eh,03dh,030h,00h
1380  0045              @crom	.section 'crom'
1380  0045              _LC10:
1380  0045              	db 041h,054h,02bh,043h,046h,055h,04eh,03dh,031h,00h
1380  004A              @crom	.section 'crom'
1380  004A              _LC11:
1380  004A              	db 041h,054h,02bh,043h,047h,044h,043h,04fh,04eh,054h
1380  004F              	db 03dh,032h,02ch,022h,049h,050h,056h,034h,056h,036h
1380  0054              	db 022h,02ch,022h,076h,07ah,077h,061h,064h,06dh,069h
1380  0059              	db 06eh,022h,03bh,02bh,043h,047h,044h,043h,04fh,04eh
1380  005E              	db 054h,03dh,033h,03bh,02bh,043h,047h,044h,043h,04fh
1380  0063              	db 04eh,054h,03dh,034h,03bh,02bh,051h,049h,043h,053h
1380  0068              	db 047h,050h,03dh,031h,02ch,031h,02ch,022h,045h,073h
1380  006D              	db 065h,079h,065h,031h,022h,02ch,022h,022h,02ch,022h
1380  0072              	db 022h,02ch,030h,00h
1380  0074              @crom	.section 'crom'
1380  0074              _LC12:
1380  0074              	db 041h,054h,02bh,051h,053h,053h,04ch,043h,046h,047h
1380  0079              	db 03dh,022h,073h,065h,063h,06ch,065h,076h,065h,06ch
1380  007E              	db 022h,02ch,031h,02ch,030h,00h
1380  0081              @crom	.section 'crom'
1380  0081              _LC13:
1380  0081              	db 041h,054h,02bh,051h,053h,053h,04ch,043h,046h,047h
1380  0086              	db 03dh,022h,073h,06eh,069h,022h,02ch,031h,02ch,031h
1380  008B              	db 00h
1380  008B              @crom	.section 'crom'
1380  008B              _LC14:
1380  008B              	db 041h,054h,02bh,051h,053h,053h,04ch,043h,046h,047h
文件：GSM.C        编译器版本 HGASM 0202 页次26

1380  0090              	db 03dh,022h,073h,073h,06ch,076h,065h,072h,073h,069h
1380  0095              	db 06fh,06eh,022h,02ch,031h,02ch,034h,00h
1380  0099              @crom	.section 'crom'
1380  0099              _LC15:
1380  0099              	db 041h,054h,02bh,051h,053h,053h,04ch,043h,046h,047h
1380  009E              	db 03dh,022h,063h,069h,070h,068h,065h,072h,073h,075h
1380  00A3              	db 069h,074h,065h,022h,02ch,031h,02ch,030h,058h,046h
1380  00A8              	db 046h,046h,046h,00h
1380  00AA              @crom	.section 'crom'
1380  00AA              _LC16:
1380  00AA              	db 041h,054h,02bh,051h,048h,054h,054h,050h,043h,046h
1380  00AF              	db 047h,03dh,022h,063h,06fh,06eh,074h,065h,078h,074h
1380  00B4              	db 069h,064h,022h,02ch,031h,00h
1380  00B7              @crom	.section 'crom'
1380  00B7              _LC17:
1380  00B7              	db 041h,054h,02bh,051h,048h,054h,054h,050h,043h,046h
1380  00BC              	db 047h,03dh,022h,073h,073h,06ch,063h,074h,078h,069h
1380  00C1              	db 064h,022h,02ch,031h,00h
1380  00C4              @crom	.section 'crom'
1380  00C4              _LC18:
1380  00C4              	db 041h,054h,02bh,051h,048h,054h,054h,050h,043h,046h
1380  00C9              	db 047h,03dh,022h,072h,065h,071h,075h,065h,073h,074h
1380  00CE              	db 068h,065h,061h,064h,065h,072h,022h,02ch,031h,00h
1380  00D3              @crom	.section 'crom'
1380  00D3              _LC19:
1380  00D3              	db 041h,054h,02bh,051h,049h,043h,053h,047h,050h,03dh
1380  00D8              	db 031h,02ch,031h,02ch,022h,045h,073h,065h,079h,065h
1380  00DD              	db 031h,022h,02ch,022h,022h,02ch,022h,022h,02ch,031h
1380  00E2              	db 00h
1380  00E2              @crom	.section 'crom'
1380  00E2              _LC20:
1380  00E2              	db 041h,054h,02bh,051h,049h,041h,043h,054h,03fh,00h
1380  00E7              @crom	.section 'crom'
1380  00E7              _LC21:
1380  00E7              	db 041h,054h,02bh,051h,049h,041h,043h,054h,03dh,031h
1380  00EC              	db 00h
1380  00ED              @crom	.section 'crom'
1380  00ED              _LC22:
1380  00ED              	db 041h,054h,02bh,043h,04fh,050h,053h,03fh,00h
1380  00F1              @crom	.section 'crom'
1380  00F1              _LC23:
1380  00F1              	db 041h,054h,02bh,043h,052h,045h,047h,03fh,03bh,02bh
1380  00F6              	db 043h,045h,052h,045h,047h,03fh,03bh,02bh,043h,047h
1380  00FB              	db 052h,045h,047h,03fh,00h
1380  00FE              @crom	.section 'crom'
1380  00FE              _LC24:
1380  00FE              	db 041h,054h,02bh,043h,053h,051h,00h
1380  0101              @crom	.section 'crom'
1380  0101              _LC25:
1380  0101              	db 041h,054h,02bh,051h,04eh,057h,049h,04eh,046h,04fh
1380  0106              	db 00h
1380  0107              @crom	.section 'crom'
1380  0107              _LC26:
1380  0107              	db 041h,054h,02bh,051h,048h,054h,054h,050h,055h,052h
1380  010C              	db 04ch,03dh,034h,037h,02ch,038h,030h,00h
1380  0110              @crom	.section 'crom'
1380  0110              _LC27:
1380  0110              	db 068h,074h,074h,070h,073h,03ah,02fh,02fh,064h,065h
1380  0115              	db 076h,02dh,061h,070h,069h,02eh,074h,065h,06ch,06ch
1380  011A              	db 069h,068h,065h,061h,06ch,074h,068h,02eh,063h,06fh
文件：GSM.C        编译器版本 HGASM 0202 页次27

1380  011F              	db 06dh,02fh,062h,069h,06fh,06ch,061h,06eh,064h,02fh
1380  0124              	db 061h,036h,030h,030h,06eh,02fh,031h,00h
1380  0128              @crom	.section 'crom'
1380  0128              _LC28:
1380  0128              	db 041h,054h,02bh,043h,047h,053h,04eh,00h
1380  012C              @crom	.section 'crom'
1380  012C              _LC29:
1380  012C              	db 041h,054h,02bh,051h,04ch,054h,053h,00h
1380  0130              @crom	.section 'crom'
1380  0130              _LC30:
1380  0130              	db 041h,054h,02bh,051h,04eh,054h,050h,03dh,031h,02ch
1380  0135              	db 022h,031h,039h,032h,02eh,031h,036h,038h,02eh,031h
1380  013A              	db 031h,031h,02eh,032h,022h,02ch,031h,032h,033h,02ch
1380  013F              	db 031h,00h
1380  0140              @crom	.section 'crom'
1380  0140              _LC31:
1380  0140              	db 041h,054h,02bh,051h,04dh,042h,04eh,043h,046h,047h
1380  0145              	db 03dh,022h,061h,075h,074h,06fh,073h,065h,06ch,022h
1380  014A              	db 02ch,030h,00h
1380  014B              @crom	.section 'crom'
1380  014B              _LC32:
1380  014B              	db 041h,054h,02bh,043h,046h,055h,04eh,03dh,031h,02ch
1380  0150              	db 031h,00h
1380  0151              @crom	.section 'crom'
1380  0151              _LC33:
1380  0151              	db 041h,054h,02bh,051h,043h,046h,047h,03dh,022h,069h
1380  0156              	db 06fh,074h,06fh,070h,06dh,06fh,064h,065h,022h,02ch
1380  015B              	db 030h,02ch,031h,00h
1380  015D              @crom	.section 'crom'
1380  015D              _LC34:
1380  015D              	db 041h,054h,02bh,051h,043h,046h,047h,03dh,022h,06eh
1380  0162              	db 077h,073h,063h,061h,06eh,073h,065h,071h,022h,02ch
1380  0167              	db 030h,032h,030h,031h,030h,033h,02ch,031h,00h
1380  016C              @crom	.section 'crom'
1380  016C              _LC35:
1380  016C              	db 041h,054h,02bh,051h,043h,046h,047h,03dh,022h,06eh
1380  0171              	db 077h,073h,063h,061h,06eh,06dh,06fh,064h,065h,022h
1380  0176              	db 02ch,030h,02ch,031h,00h
1380  0178              public _START_GSM
1380  0178              #pragma debug scope 11 1
 260  0178              #line 260 "k:\55555555555555\test\saier-a600n-2260-usa4g-aal-bg95-ui-v1.0-6\GSM.C"
 260  0000              _START_GSM .section 'code'
 260  0000              _START_GSM proc
 260  0000  0003[           local _START_GSM_2 db 3 dup(?)	; 0,3
            00
            ]
 260  0003              #pragma debug variable 8 11 _START_GSM_2+2 "restart"
 262  0003              #line 262 "k:\55555555555555\test\saier-a600n-2260-usa4g-aal-bg95-ui-v1.0-6\GSM.C"
 262  0000  3000     E  	set _gu8v_uart_flag[0].5
 264  0001              #line 264 "k:\55555555555555\test\saier-a600n-2260-usa4g-aal-bg95-ui-v1.0-6\GSM.C"
 264  0001  0F01        	mov a,1
 264  0002  C09F 0003   	lmov [927],a
 264  0004              _L239:
 522  0004              #line 522 "k:\55555555555555\test\saier-a600n-2260-usa4g-aal-bg95-ui-v1.0-6\GSM.C"
 522  0004  1F00     R  	clr _START_GSM_2[0]
 521  0005              #line 521 "k:\55555555555555\test\saier-a600n-2260-usa4g-aal-bg95-ui-v1.0-6\GSM.C"
 521  0005  1F00     R  	clr _START_GSM_2[2]
 521  0006              _L126:
 269  0006              #line 269 "k:\55555555555555\test\saier-a600n-2260-usa4g-aal-bg95-ui-v1.0-6\GSM.C"
 269  0006  3800     E  	snz _KEYFLAG[0].1
文件：GSM.C        编译器版本 HGASM 0202 页次28

 269  0007  2800     R  	jmp _L93
 269  0008              _L129:
 271  0008              #line 271 "k:\55555555555555\test\saier-a600n-2260-usa4g-aal-bg95-ui-v1.0-6\GSM.C"
 271  0008  1F00     E  	clr ra
 271  0009  2800     R  	jmp _L233
 271  000A              _L93:
 273  000A              #line 273 "k:\55555555555555\test\saier-a600n-2260-usa4g-aal-bg95-ui-v1.0-6\GSM.C"
 273  000A  C71F 0003   	lmov a,[927]
 273  000C  0080     R  	mov _START_GSM_2[1],a
 273  000D  0700     R  	mov a,_START_GSM_2[1]
 273  000E  0A01        	sub a,1
 273  000F  3D0A        	sz z
 273  0010  2800     R  	jmp _L96
 273  0011  0A01        	sub a,(2)-(1)
 273  0012  3D0A        	sz z
 273  0013  2800     R  	jmp _L97
 273  0014  0700     R  	mov a,_START_GSM_2[1]
 273  0015  0A03        	sub a,3
 273  0016  3D0A        	sz z
 273  0017  2800     R  	jmp _L98
 273  0018  0A01        	sub a,(4)-(3)
 273  0019  3D0A        	sz z
 273  001A  2800     R  	jmp _L99
 273  001B  0700     R  	mov a,_START_GSM_2[1]
 273  001C  0A05        	sub a,5
 273  001D  3D0A        	sz z
 273  001E  2800     R  	jmp _L100
 273  001F  0A01        	sub a,(6)-(5)
 273  0020  3D0A        	sz z
 273  0021  2800     R  	jmp _L101
 273  0022  0700     R  	mov a,_START_GSM_2[1]
 273  0023  0A07        	sub a,7
 273  0024  3D0A        	sz z
 273  0025  2800     R  	jmp _L102
 273  0026  0A01        	sub a,(8)-(7)
 273  0027  3D0A        	sz z
 273  0028  2800     R  	jmp _L103
 273  0029  0700     R  	mov a,_START_GSM_2[1]
 273  002A  0A09        	sub a,9
 273  002B  3D0A        	sz z
 273  002C  2800     R  	jmp _L104
 273  002D  0A01        	sub a,(10)-(9)
 273  002E  3D0A        	sz z
 273  002F  2800     R  	jmp _L105
 273  0030  0700     R  	mov a,_START_GSM_2[1]
 273  0031  0A0B        	sub a,11
 273  0032  3D0A        	sz z
 273  0033  2800     R  	jmp _L106
 273  0034  0A01        	sub a,(12)-(11)
 273  0035  3D0A        	sz z
 273  0036  2800     R  	jmp _L107
 273  0037  0700     R  	mov a,_START_GSM_2[1]
 273  0038  0A0D        	sub a,13
 273  0039  3D0A        	sz z
 273  003A  2800     R  	jmp _L108
 273  003B  0A01        	sub a,(14)-(13)
 273  003C  3D0A        	sz z
 273  003D  2800     R  	jmp _L109
 273  003E  0700     R  	mov a,_START_GSM_2[1]
 273  003F  0A0F        	sub a,15
文件：GSM.C        编译器版本 HGASM 0202 页次29

 273  0040  3D0A        	sz z
 273  0041  2800     R  	jmp _L110
 273  0042  0A01        	sub a,(16)-(15)
 273  0043  3D0A        	sz z
 273  0044  2800     R  	jmp _L111
 273  0045  0700     R  	mov a,_START_GSM_2[1]
 273  0046  0A11        	sub a,17
 273  0047  3D0A        	sz z
 273  0048  2800     R  	jmp _L112
 273  0049  0A01        	sub a,(18)-(17)
 273  004A  3D0A        	sz z
 273  004B  2800     R  	jmp _L113
 273  004C  0700     R  	mov a,_START_GSM_2[1]
 273  004D  0A14        	sub a,20
 273  004E  3D0A        	sz z
 273  004F  2800     R  	jmp _L114
 273  0050  0A01        	sub a,(21)-(20)
 273  0051  3D0A        	sz z
 273  0052  2800     R  	jmp _L115
 273  0053  0700     R  	mov a,_START_GSM_2[1]
 273  0054  0A16        	sub a,22
 273  0055  3D0A        	sz z
 273  0056  2800     R  	jmp _L116
 273  0057  0A01        	sub a,(23)-(22)
 273  0058  3D0A        	sz z
 273  0059  2800     R  	jmp _L117
 273  005A  0700     R  	mov a,_START_GSM_2[1]
 273  005B  0A18        	sub a,24
 273  005C  3D0A        	sz z
 273  005D  2800     R  	jmp _L118
 273  005E  0A01        	sub a,(25)-(24)
 273  005F  3D0A        	sz z
 273  0060  2800     R  	jmp _L119
 273  0061  0700     R  	mov a,_START_GSM_2[1]
 273  0062  0A1A        	sub a,26
 273  0063  3D0A        	sz z
 273  0064  2800     R  	jmp _L120
 273  0065  0A01        	sub a,(27)-(26)
 273  0066  3D0A        	sz z
 273  0067  2800     R  	jmp _L121
 273  0068  0700     R  	mov a,_START_GSM_2[1]
 273  0069  0A1C        	sub a,28
 273  006A  3D0A        	sz z
 273  006B  2800     R  	jmp _L122
 273  006C  0A01        	sub a,(29)-(28)
 273  006D  3D0A        	sz z
 273  006E  2800     R  	jmp _L123
 273  006F  0700     R  	mov a,_START_GSM_2[1]
 273  0070  0A1E        	sub a,30
 273  0071  3D0A        	sz z
 273  0072  2800     R  	jmp _L124
 273  0073  0700     R  	mov a,_START_GSM_2[1]
 273  0074  0A1F        	sub a,31
 273  0075  390A        	snz z
 273  0076  2800     R  	jmp _L126
 273  0077  2800     R  	jmp _L125
 273  0078              _L96:
 278  0078              #line 278 "k:\55555555555555\test\saier-a600n-2260-usa4g-aal-bg95-ui-v1.0-6\GSM.C"
 278  0078  0F3C        	mov a,60
 278  0079              	fcall _read_GSM_data
文件：GSM.C        编译器版本 HGASM 0202 页次30

 278  0080  2800     R  	jmp _L173
 278  0081              _L97:
 303  0081              #line 303 "k:\55555555555555\test\saier-a600n-2260-usa4g-aal-bg95-ui-v1.0-6\GSM.C"
 303  0081  0F00     R  	mov a,low offset _LC0
 303  0082  0080     R  	mov _print_with_Enter_2[0],a
 303  0083  0F00     R  	mov a,high offset _LC0
 303  0084  0080     R  	mov _print_with_Enter_2[1],a
 303  0085              	fcall _print_with_Enter
 304  008C              #line 304 "k:\55555555555555\test\saier-a600n-2260-usa4g-aal-bg95-ui-v1.0-6\GSM.C"
 304  008C  0F0A        	mov a,10
 304  008D              	fcall _read_GSM_data
 304  0094  0080     E  	mov ra,a
 304  0095  1080     E  	sz ra
 304  0096  2800     R  	jmp _L185
 306  0097              #line 306 "k:\55555555555555\test\saier-a600n-2260-usa4g-aal-bg95-ui-v1.0-6\GSM.C"
 306  0097  D49F 0003   	linc [927]
 308  0099              #line 308 "k:\55555555555555\test\saier-a600n-2260-usa4g-aal-bg95-ui-v1.0-6\GSM.C"
 308  0099  0F0A        	mov a,10
 308  009A  0080     E  	mov _delay_ms_2[0],a
 308  009B  1F00     E  	clr _delay_ms_2[1]
 308  009C  2800     R  	jmp _L242
 308  009D              _L98:
 317  009D              #line 317 "k:\55555555555555\test\saier-a600n-2260-usa4g-aal-bg95-ui-v1.0-6\GSM.C"
 317  009D  0F00     R  	mov a,low offset _LC1
 317  009E  0080     R  	mov _print_with_Enter_2[0],a
 317  009F  0F00     R  	mov a,high offset _LC1
 317  00A0  0080     R  	mov _print_with_Enter_2[1],a
 317  00A1              	fcall _print_with_Enter
 318  00A8              #line 318 "k:\55555555555555\test\saier-a600n-2260-usa4g-aal-bg95-ui-v1.0-6\GSM.C"
 318  00A8  0F0A        	mov a,10
 318  00A9              	fcall _read_GSM_data
 318  00B0  0080     E  	mov ra,a
 318  00B1  1080     E  	sz ra
 318  00B2  2800     R  	jmp _L185
 320  00B3              #line 320 "k:\55555555555555\test\saier-a600n-2260-usa4g-aal-bg95-ui-v1.0-6\GSM.C"
 320  00B3  D49F 0003   	linc [927]
 322  00B5              #line 322 "k:\55555555555555\test\saier-a600n-2260-usa4g-aal-bg95-ui-v1.0-6\GSM.C"
 322  00B5  0F00     R  	mov a,low offset _LC2
 322  00B6  0080     R  	mov _print_with_Enter_2[0],a
 322  00B7  0F00     R  	mov a,high offset _LC2
 322  00B8  0080     R  	mov _print_with_Enter_2[1],a
 322  00B9              	fcall _print_with_Enter
 323  00C0              #line 323 "k:\55555555555555\test\saier-a600n-2260-usa4g-aal-bg95-ui-v1.0-6\GSM.C"
 323  00C0  0F0A        	mov a,10
 323  00C1  2800     R  	jmp _L243
 323  00C2              _L99:
 336  00C2              #line 336 "k:\55555555555555\test\saier-a600n-2260-usa4g-aal-bg95-ui-v1.0-6\GSM.C"
 336  00C2  0F00     R  	mov a,low offset _LC3
 336  00C3  0080     R  	mov _print_with_Enter_2[0],a
 336  00C4  0F00     R  	mov a,high offset _LC3
 336  00C5  0080     R  	mov _print_with_Enter_2[1],a
 336  00C6  2800     R  	jmp _L247
 336  00C7              _L100:
 350  00C7              #line 350 "k:\55555555555555\test\saier-a600n-2260-usa4g-aal-bg95-ui-v1.0-6\GSM.C"
 350  00C7  0F00     R  	mov a,low offset _LC4
 350  00C8  0080     R  	mov _print_with_Enter_2[0],a
 350  00C9  0F00     R  	mov a,high offset _LC4
 350  00CA  0080     R  	mov _print_with_Enter_2[1],a
 350  00CB              	fcall _print_with_Enter
 351  00D2              #line 351 "k:\55555555555555\test\saier-a600n-2260-usa4g-aal-bg95-ui-v1.0-6\GSM.C"
文件：GSM.C        编译器版本 HGASM 0202 页次31

 351  00D2  0F0A        	mov a,10
 351  00D3              	fcall _read_GSM_data
 351  00DA  0080     E  	mov ra,a
 351  00DB  1080     E  	sz ra
 351  00DC  2800     R  	jmp _L185
 353  00DD              #line 353 "k:\55555555555555\test\saier-a600n-2260-usa4g-aal-bg95-ui-v1.0-6\GSM.C"
 353  00DD  D49F 0003   	linc [927]
 356  00DF              #line 356 "k:\55555555555555\test\saier-a600n-2260-usa4g-aal-bg95-ui-v1.0-6\GSM.C"
 356  00DF  1F00     E  	clr ra
 356  00E0              _L133:
 356  00E0  0700     E  	mov a,ra
 356  00E1  C223 0003   	lsub a,[931]
 356  00E3  3C0A        	sz c
 356  00E4  2800     R  	jmp _L259
 358  00E5              #line 358 "k:\55555555555555\test\saier-a600n-2260-usa4g-aal-bg95-ui-v1.0-6\GSM.C"
 358  00E5  0700     E  	mov a,ra
 358  00E6  0080     E  	mov rb,a
 358  00E7  1F00     E  	clr rc
 358  00E8  0F80        	mov a,low offset _Rx_Buff0
 358  00E9  0300     E  	add a,rb
 358  00EA  0083        	mov mp,a
 358  00EB  0F02        	mov a,high offset _Rx_Buff0
 358  00EC  1300     E  	adc a,rc
 358  00ED  0084        	mov sbp,a
 358  00EE              	fcall _Crom2Prom
 358  00F5  0080     E  	mov rd,a
 358  00F6  0700     E  	mov a,rd
 358  00F7  0A6C        	sub a,108
 358  00F8  390A        	snz z
 358  00F9  2800     R  	jmp _L134
 358  00FA  0F82        	mov a,low (offset _Rx_Buff0+2)
 358  00FB  0300     E  	add a,rb
 358  00FC  0083        	mov mp,a
 358  00FD  0F02        	mov a,high (offset _Rx_Buff0+2)
 358  00FE  1300     E  	adc a,rc
 358  00FF  0084        	mov sbp,a
 358  0100              	fcall _Crom2Prom
 358  0107  0080     E  	mov rd,a
 358  0108  0700     E  	mov a,rd
 358  0109  0A2C        	sub a,44
 358  010A  390A        	snz z
 358  010B  2800     R  	jmp _L134
 358  010C  0F83        	mov a,low (offset _Rx_Buff0+3)
 358  010D  0300     E  	add a,rb
 358  010E  0083        	mov mp,a
 358  010F  0F02        	mov a,high (offset _Rx_Buff0+3)
 358  0110  1300     E  	adc a,rc
 358  0111  0084        	mov sbp,a
 358  0112              	fcall _Crom2Prom
 358  0119  0080     E  	mov rb,a
 358  011A  0700     E  	mov a,rb
 358  011B  0A30        	sub a,48
 358  011C  390A        	snz z
 358  011D  2800     R  	jmp _L134
 358  011E              _L206:
 496  011E              #line 496 "k:\55555555555555\test\saier-a600n-2260-usa4g-aal-bg95-ui-v1.0-6\GSM.C"
 496  011E  1F00     R  	clr _START_GSM_2[0]
 496  011F  2800     R  	jmp _L126
 496  0120              _L134:
 356  0120              #line 356 "k:\55555555555555\test\saier-a600n-2260-usa4g-aal-bg95-ui-v1.0-6\GSM.C"
文件：GSM.C        编译器版本 HGASM 0202 页次32

 356  0120  1480     E  	inc ra
 356  0121  2800     R  	jmp _L133
 356  0122              _L101:
 385  0122              #line 385 "k:\55555555555555\test\saier-a600n-2260-usa4g-aal-bg95-ui-v1.0-6\GSM.C"
 385  0122  0F00     R  	mov a,low offset _LC5
 385  0123  0080     R  	mov _print_with_Enter_2[0],a
 385  0124  0F00     R  	mov a,high offset _LC5
 385  0125  0080     R  	mov _print_with_Enter_2[1],a
 385  0126              	fcall _print_with_Enter
 386  012D              #line 386 "k:\55555555555555\test\saier-a600n-2260-usa4g-aal-bg95-ui-v1.0-6\GSM.C"
 386  012D  0F14        	mov a,20
 386  012E  2800     R  	jmp _L258
 386  012F              _L102:
 401  012F              #line 401 "k:\55555555555555\test\saier-a600n-2260-usa4g-aal-bg95-ui-v1.0-6\GSM.C"
 401  012F  0F00     R  	mov a,low offset _LC6
 401  0130  0080     R  	mov _print_with_Enter_2[0],a
 401  0131  0F00     R  	mov a,high offset _LC6
 401  0132  0080     R  	mov _print_with_Enter_2[1],a
 401  0133              	fcall _print_with_Enter
 404  013A              #line 404 "k:\55555555555555\test\saier-a600n-2260-usa4g-aal-bg95-ui-v1.0-6\GSM.C"
 404  013A  0F0A        	mov a,10
 404  013B              	fcall _read_GSM_data
 404  0142  0080     E  	mov ra,a
 404  0143  1080     E  	sz ra
 404  0144  2800     R  	jmp _L154
 407  0145              #line 407 "k:\55555555555555\test\saier-a600n-2260-usa4g-aal-bg95-ui-v1.0-6\GSM.C"
 407  0145  D49F 0003   	linc [927]
 410  0147              #line 410 "k:\55555555555555\test\saier-a600n-2260-usa4g-aal-bg95-ui-v1.0-6\GSM.C"
 410  0147  1F00     E  	clr ra
 410  0148              _L139:
 410  0148  0700     E  	mov a,ra
 410  0149  C223 0003   	lsub a,[931]
 410  014B  3C0A        	sz c
 410  014C  2800     R  	jmp _L260
 412  014D              #line 412 "k:\55555555555555\test\saier-a600n-2260-usa4g-aal-bg95-ui-v1.0-6\GSM.C"
 412  014D  0700     E  	mov a,ra
 412  014E  0080     E  	mov rb,a
 412  014F  1F00     E  	clr rc
 412  0150  0F80        	mov a,low offset _Rx_Buff0
 412  0151  0300     E  	add a,rb
 412  0152  0083        	mov mp,a
 412  0153  0F02        	mov a,high offset _Rx_Buff0
 412  0154  1300     E  	adc a,rc
 412  0155  0084        	mov sbp,a
 412  0156              	fcall _Crom2Prom
 412  015D  0080     E  	mov rd,a
 412  015E  0700     E  	mov a,rd
 412  015F  0A65        	sub a,101
 412  0160  390A        	snz z
 412  0161  2800     R  	jmp _L140
 412  0162  0F82        	mov a,low (offset _Rx_Buff0+2)
 412  0163  0300     E  	add a,rb
 412  0164  0083        	mov mp,a
 412  0165  0F02        	mov a,high (offset _Rx_Buff0+2)
 412  0166  1300     E  	adc a,rc
 412  0167  0084        	mov sbp,a
 412  0168              	fcall _Crom2Prom
 412  016F  0080     E  	mov rd,a
 412  0170  0700     E  	mov a,rd
 412  0171  0A2C        	sub a,44
文件：GSM.C        编译器版本 HGASM 0202 页次33

 412  0172  390A        	snz z
 412  0173  2800     R  	jmp _L140
 412  0174  0F83        	mov a,low (offset _Rx_Buff0+3)
 412  0175  0300     E  	add a,rb
 412  0176  0083        	mov mp,a
 412  0177  0F02        	mov a,high (offset _Rx_Buff0+3)
 412  0178  1300     E  	adc a,rc
 412  0179  0084        	mov sbp,a
 412  017A              	fcall _Crom2Prom
 412  0181  0080     E  	mov rb,a
 412  0182  0700     E  	mov a,rb
 412  0183  0A30        	sub a,48
 412  0184  3D0A        	sz z
 412  0185  2800     R  	jmp _L206
 412  0186              _L140:
 410  0186              #line 410 "k:\55555555555555\test\saier-a600n-2260-usa4g-aal-bg95-ui-v1.0-6\GSM.C"
 410  0186  1480     E  	inc ra
 410  0187  2800     R  	jmp _L139
 410  0188              _L103:
 436  0188              #line 436 "k:\55555555555555\test\saier-a600n-2260-usa4g-aal-bg95-ui-v1.0-6\GSM.C"
 436  0188  0F00     R  	mov a,low offset _LC7
 436  0189  0080     R  	mov _print_with_Enter_2[0],a
 436  018A  0F00     R  	mov a,high offset _LC7
 436  018B  0080     R  	mov _print_with_Enter_2[1],a
 436  018C              	fcall _print_with_Enter
 438  0193              #line 438 "k:\55555555555555\test\saier-a600n-2260-usa4g-aal-bg95-ui-v1.0-6\GSM.C"
 438  0193  0F0A        	mov a,10
 438  0194              	fcall _read_GSM_data
 438  019B  0080     E  	mov ra,a
 438  019C  1080     E  	sz ra
 438  019D  2800     R  	jmp _L154
 442  019E              #line 442 "k:\55555555555555\test\saier-a600n-2260-usa4g-aal-bg95-ui-v1.0-6\GSM.C"
 442  019E  D49F 0003   	linc [927]
 445  01A0              #line 445 "k:\55555555555555\test\saier-a600n-2260-usa4g-aal-bg95-ui-v1.0-6\GSM.C"
 445  01A0  1F00     E  	clr ra
 445  01A1              _L144:
 445  01A1  0700     E  	mov a,ra
 445  01A2  C223 0003   	lsub a,[931]
 445  01A4  3C0A        	sz c
 445  01A5  2800     R  	jmp _L261
 447  01A6              #line 447 "k:\55555555555555\test\saier-a600n-2260-usa4g-aal-bg95-ui-v1.0-6\GSM.C"
 447  01A6  0700     E  	mov a,ra
 447  01A7  0080     E  	mov rb,a
 447  01A8  1F00     E  	clr rc
 447  01A9  0F80        	mov a,low offset _Rx_Buff0
 447  01AA  0300     E  	add a,rb
 447  01AB  0083        	mov mp,a
 447  01AC  0F02        	mov a,high offset _Rx_Buff0
 447  01AD  1300     E  	adc a,rc
 447  01AE  0084        	mov sbp,a
 447  01AF              	fcall _Crom2Prom
 447  01B6  0080     E  	mov rd,a
 447  01B7  0700     E  	mov a,rd
 447  01B8  0A30        	sub a,48
 447  01B9  390A        	snz z
 447  01BA  2800     R  	jmp _L145
 447  01BB  0F81        	mov a,low (offset _Rx_Buff0+1)
 447  01BC  0300     E  	add a,rb
 447  01BD  0083        	mov mp,a
 447  01BE  0F02        	mov a,high (offset _Rx_Buff0+1)
文件：GSM.C        编译器版本 HGASM 0202 页次34

 447  01BF  1300     E  	adc a,rc
 447  01C0  0084        	mov sbp,a
 447  01C1              	fcall _Crom2Prom
 447  01C8  0080     E  	mov rd,a
 447  01C9  0700     E  	mov a,rd
 447  01CA  0A32        	sub a,50
 447  01CB  390A        	snz z
 447  01CC  2800     R  	jmp _L145
 447  01CD  0F82        	mov a,low (offset _Rx_Buff0+2)
 447  01CE  0300     E  	add a,rb
 447  01CF  0083        	mov mp,a
 447  01D0  0F02        	mov a,high (offset _Rx_Buff0+2)
 447  01D1  1300     E  	adc a,rc
 447  01D2  0084        	mov sbp,a
 447  01D3              	fcall _Crom2Prom
 447  01DA  0080     E  	mov rd,a
 447  01DB  0700     E  	mov a,rd
 447  01DC  0A30        	sub a,48
 447  01DD  390A        	snz z
 447  01DE  2800     R  	jmp _L145
 447  01DF  0F83        	mov a,low (offset _Rx_Buff0+3)
 447  01E0  0300     E  	add a,rb
 447  01E1  0083        	mov mp,a
 447  01E2  0F02        	mov a,high (offset _Rx_Buff0+3)
 447  01E3  1300     E  	adc a,rc
 447  01E4  0084        	mov sbp,a
 447  01E5              	fcall _Crom2Prom
 447  01EC  0080     E  	mov rd,a
 447  01ED  0700     E  	mov a,rd
 447  01EE  0A31        	sub a,49
 447  01EF  390A        	snz z
 447  01F0  2800     R  	jmp _L145
 447  01F1  0F84        	mov a,low (offset _Rx_Buff0+4)
 447  01F2  0300     E  	add a,rb
 447  01F3  0083        	mov mp,a
 447  01F4  0F02        	mov a,high (offset _Rx_Buff0+4)
 447  01F5  1300     E  	adc a,rc
 447  01F6  0084        	mov sbp,a
 447  01F7              	fcall _Crom2Prom
 447  01FE  0080     E  	mov rd,a
 447  01FF  0700     E  	mov a,rd
 447  0200  0A30        	sub a,48
 447  0201  390A        	snz z
 447  0202  2800     R  	jmp _L145
 447  0203  0F85        	mov a,low (offset _Rx_Buff0+5)
 447  0204  0300     E  	add a,rb
 447  0205  0083        	mov mp,a
 447  0206  0F02        	mov a,high (offset _Rx_Buff0+5)
 447  0207  1300     E  	adc a,rc
 447  0208  0084        	mov sbp,a
 447  0209              	fcall _Crom2Prom
 447  0210  0080     E  	mov rb,a
 447  0211  0700     E  	mov a,rb
 447  0212  0A33        	sub a,51
 447  0213  3D0A        	sz z
 447  0214  2800     R  	jmp _L206
 447  0215              _L145:
 445  0215              #line 445 "k:\55555555555555\test\saier-a600n-2260-usa4g-aal-bg95-ui-v1.0-6\GSM.C"
 445  0215  1480     E  	inc ra
 445  0216  2800     R  	jmp _L144
文件：GSM.C        编译器版本 HGASM 0202 页次35

 445  0217              _L104:
 474  0217              #line 474 "k:\55555555555555\test\saier-a600n-2260-usa4g-aal-bg95-ui-v1.0-6\GSM.C"
 474  0217  0F00     R  	mov a,low offset _LC8
 474  0218  0080     R  	mov _print_with_Enter_2[0],a
 474  0219  0F00     R  	mov a,high offset _LC8
 474  021A  0080     R  	mov _print_with_Enter_2[1],a
 474  021B              	fcall _print_with_Enter
 476  0222              #line 476 "k:\55555555555555\test\saier-a600n-2260-usa4g-aal-bg95-ui-v1.0-6\GSM.C"
 476  0222  0F0A        	mov a,10
 476  0223              	fcall _read_GSM_data
 476  022A  0080     E  	mov ra,a
 476  022B  1080     E  	sz ra
 476  022C  2800     R  	jmp _L154
 479  022D              #line 479 "k:\55555555555555\test\saier-a600n-2260-usa4g-aal-bg95-ui-v1.0-6\GSM.C"
 479  022D  D49F 0003   	linc [927]
 482  022F              #line 482 "k:\55555555555555\test\saier-a600n-2260-usa4g-aal-bg95-ui-v1.0-6\GSM.C"
 482  022F  1F00     E  	clr ra
 482  0230              _L149:
 482  0230  0700     E  	mov a,ra
 482  0231  C223 0003   	lsub a,[931]
 482  0233  3C0A        	sz c
 482  0234  2800     R  	jmp _L262
 484  0235              #line 484 "k:\55555555555555\test\saier-a600n-2260-usa4g-aal-bg95-ui-v1.0-6\GSM.C"
 484  0235  0700     E  	mov a,ra
 484  0236  0080     E  	mov rb,a
 484  0237  1F00     E  	clr rc
 484  0238  0F80        	mov a,low offset _Rx_Buff0
 484  0239  0300     E  	add a,rb
 484  023A  0083        	mov mp,a
 484  023B  0F02        	mov a,high offset _Rx_Buff0
 484  023C  1300     E  	adc a,rc
 484  023D  0084        	mov sbp,a
 484  023E              	fcall _Crom2Prom
 484  0245  0080     E  	mov rd,a
 484  0246  0700     E  	mov a,rd
 484  0247  0A65        	sub a,101
 484  0248  390A        	snz z
 484  0249  2800     R  	jmp _L150
 484  024A  0F82        	mov a,low (offset _Rx_Buff0+2)
 484  024B  0300     E  	add a,rb
 484  024C  0083        	mov mp,a
 484  024D  0F02        	mov a,high (offset _Rx_Buff0+2)
 484  024E  1300     E  	adc a,rc
 484  024F  0084        	mov sbp,a
 484  0250              	fcall _Crom2Prom
 484  0257  0080     E  	mov rd,a
 484  0258  0700     E  	mov a,rd
 484  0259  0A2C        	sub a,44
 484  025A  390A        	snz z
 484  025B  2800     R  	jmp _L150
 484  025C  0F83        	mov a,low (offset _Rx_Buff0+3)
 484  025D  0300     E  	add a,rb
 484  025E  0083        	mov mp,a
 484  025F  0F02        	mov a,high (offset _Rx_Buff0+3)
 484  0260  1300     E  	adc a,rc
 484  0261  0084        	mov sbp,a
 484  0262              	fcall _Crom2Prom
 484  0269  0080     E  	mov rb,a
 484  026A  0700     E  	mov a,rb
 484  026B  0A30        	sub a,48
文件：GSM.C        编译器版本 HGASM 0202 页次36

 484  026C  3D0A        	sz z
 484  026D  2800     R  	jmp _L206
 484  026E              _L150:
 482  026E              #line 482 "k:\55555555555555\test\saier-a600n-2260-usa4g-aal-bg95-ui-v1.0-6\GSM.C"
 482  026E  1480     E  	inc ra
 482  026F  2800     R  	jmp _L149
 482  0270              _L105:
 508  0270              #line 508 "k:\55555555555555\test\saier-a600n-2260-usa4g-aal-bg95-ui-v1.0-6\GSM.C"
 508  0270  1E00     R  	snz _START_GSM_2[2]
 508  0271  2800     R  	jmp _L153
 511  0272              #line 511 "k:\55555555555555\test\saier-a600n-2260-usa4g-aal-bg95-ui-v1.0-6\GSM.C"
 511  0272  0F00     R  	mov a,low offset _LC9
 511  0273  0080     R  	mov _print_with_Enter_2[0],a
 511  0274  0F00     R  	mov a,high offset _LC9
 511  0275  0080     R  	mov _print_with_Enter_2[1],a
 511  0276              	fcall _print_with_Enter
 512  027D              #line 512 "k:\55555555555555\test\saier-a600n-2260-usa4g-aal-bg95-ui-v1.0-6\GSM.C"
 512  027D  0F14        	mov a,20
 512  027E              	fcall _read_GSM_data
 518  0285              #line 518 "k:\55555555555555\test\saier-a600n-2260-usa4g-aal-bg95-ui-v1.0-6\GSM.C"
 518  0285  0F00     R  	mov a,low offset _LC10
 518  0286  0080     R  	mov _print_with_Enter_2[0],a
 518  0287  0F00     R  	mov a,high offset _LC10
 518  0288  0080     R  	mov _print_with_Enter_2[1],a
 518  0289              	fcall _print_with_Enter
 519  0290              #line 519 "k:\55555555555555\test\saier-a600n-2260-usa4g-aal-bg95-ui-v1.0-6\GSM.C"
 519  0290  0F14        	mov a,20
 519  0291              	fcall _read_GSM_data
 519  0298  0080     E  	mov ra,a
 519  0299  1080     E  	sz ra
 519  029A  2800     R  	jmp _L154
 524  029B              #line 524 "k:\55555555555555\test\saier-a600n-2260-usa4g-aal-bg95-ui-v1.0-6\GSM.C"
 524  029B  0F03        	mov a,3
 524  029C  C09F 0003   	lmov [927],a
 524  029E  2800     R  	jmp _L239
 524  029F              _L154:
 528  029F              #line 528 "k:\55555555555555\test\saier-a600n-2260-usa4g-aal-bg95-ui-v1.0-6\GSM.C"
 528  029F  1480     R  	inc _START_GSM_2[0]
 528  02A0  0F02        	mov a,2
 528  02A1  0200     R  	sub a,_START_GSM_2[0]
 528  02A2  3C0A        	sz c
 528  02A3  2800     R  	jmp _L240
 528  02A4  2800     R  	jmp _L129
 528  02A5              _L153:
 535  02A5              #line 535 "k:\55555555555555\test\saier-a600n-2260-usa4g-aal-bg95-ui-v1.0-6\GSM.C"
 535  02A5  D49F 0003   	linc [927]
 535  02A7  2800     R  	jmp _L126
 535  02A8              _L106:
 545  02A8              #line 545 "k:\55555555555555\test\saier-a600n-2260-usa4g-aal-bg95-ui-v1.0-6\GSM.C"
 545  02A8  0F00     R  	mov a,low offset _LC11
 545  02A9  0080     R  	mov _print_with_Enter_2[0],a
 545  02AA  0F00     R  	mov a,high offset _LC11
 545  02AB  0080     R  	mov _print_with_Enter_2[1],a
 545  02AC              	fcall _print_with_Enter
 546  02B3              #line 546 "k:\55555555555555\test\saier-a600n-2260-usa4g-aal-bg95-ui-v1.0-6\GSM.C"
 546  02B3  0F0A        	mov a,10
 546  02B4              _L258:
 546  02B4              	fcall _whait_still_OK
 546  02BB  2800     R  	jmp _L245
 546  02BC              _L107:
文件：GSM.C        编译器版本 HGASM 0202 页次37

 562  02BC              #line 562 "k:\55555555555555\test\saier-a600n-2260-usa4g-aal-bg95-ui-v1.0-6\GSM.C"
 562  02BC  0F00     R  	mov a,low offset _LC12
 562  02BD  0080     R  	mov _print_with_Enter_2[0],a
 562  02BE  0F00     R  	mov a,high offset _LC12
 562  02BF  0080     R  	mov _print_with_Enter_2[1],a
 562  02C0              _L247:
 562  02C0              	fcall _print_with_Enter
 563  02C7              #line 563 "k:\55555555555555\test\saier-a600n-2260-usa4g-aal-bg95-ui-v1.0-6\GSM.C"
 563  02C7  0F0A        	mov a,10
 563  02C8              _L254:
 563  02C8              	fcall _read_GSM_data
 563  02CF              _L245:
 563  02CF  0080     E  	mov ra,a
 563  02D0  1080     E  	sz ra
 563  02D1  2800     R  	jmp _L185
 563  02D2  2800     R  	jmp _L173
 563  02D3              _L108:
 578  02D3              #line 578 "k:\55555555555555\test\saier-a600n-2260-usa4g-aal-bg95-ui-v1.0-6\GSM.C"
 578  02D3  0F00     R  	mov a,low offset _LC13
 578  02D4  0080     R  	mov _print_with_Enter_2[0],a
 578  02D5  0F00     R  	mov a,high offset _LC13
 578  02D6  0080     R  	mov _print_with_Enter_2[1],a
 578  02D7  2800     R  	jmp _L247
 578  02D8              _L109:
 594  02D8              #line 594 "k:\55555555555555\test\saier-a600n-2260-usa4g-aal-bg95-ui-v1.0-6\GSM.C"
 594  02D8  0F00     R  	mov a,low offset _LC14
 594  02D9  0080     R  	mov _print_with_Enter_2[0],a
 594  02DA  0F00     R  	mov a,high offset _LC14
 594  02DB  0080     R  	mov _print_with_Enter_2[1],a
 594  02DC  2800     R  	jmp _L247
 594  02DD              _L110:
 610  02DD              #line 610 "k:\55555555555555\test\saier-a600n-2260-usa4g-aal-bg95-ui-v1.0-6\GSM.C"
 610  02DD  0F00     R  	mov a,low offset _LC15
 610  02DE  0080     R  	mov _print_with_Enter_2[0],a
 610  02DF  0F00     R  	mov a,high offset _LC15
 610  02E0  0080     R  	mov _print_with_Enter_2[1],a
 610  02E1  2800     R  	jmp _L247
 610  02E2              _L111:
 627  02E2              #line 627 "k:\55555555555555\test\saier-a600n-2260-usa4g-aal-bg95-ui-v1.0-6\GSM.C"
 627  02E2  0F00     R  	mov a,low offset _LC16
 627  02E3  0080     R  	mov _print_with_Enter_2[0],a
 627  02E4  0F00     R  	mov a,high offset _LC16
 627  02E5  0080     R  	mov _print_with_Enter_2[1],a
 627  02E6  2800     R  	jmp _L247
 627  02E7              _L112:
 643  02E7              #line 643 "k:\55555555555555\test\saier-a600n-2260-usa4g-aal-bg95-ui-v1.0-6\GSM.C"
 643  02E7  0F00     R  	mov a,low offset _LC17
 643  02E8  0080     R  	mov _print_with_Enter_2[0],a
 643  02E9  0F00     R  	mov a,high offset _LC17
 643  02EA  0080     R  	mov _print_with_Enter_2[1],a
 643  02EB  2800     R  	jmp _L247
 643  02EC              _L113:
 660  02EC              #line 660 "k:\55555555555555\test\saier-a600n-2260-usa4g-aal-bg95-ui-v1.0-6\GSM.C"
 660  02EC  0F00     R  	mov a,low offset _LC18
 660  02ED  0080     R  	mov _print_with_Enter_2[0],a
 660  02EE  0F00     R  	mov a,high offset _LC18
 660  02EF  0080     R  	mov _print_with_Enter_2[1],a
 660  02F0              	fcall _print_with_Enter
 661  02F7              #line 661 "k:\55555555555555\test\saier-a600n-2260-usa4g-aal-bg95-ui-v1.0-6\GSM.C"
 661  02F7  0F0A        	mov a,10
文件：GSM.C        编译器版本 HGASM 0202 页次38

 661  02F8              	fcall _read_GSM_data
 661  02FF  0080     E  	mov ra,a
 661  0300  1080     E  	sz ra
 661  0301  2800     R  	jmp _L185
 663  0302              #line 663 "k:\55555555555555\test\saier-a600n-2260-usa4g-aal-bg95-ui-v1.0-6\GSM.C"
 663  0302  D49F 0003   	linc [927]
 663  0304  2800     R  	jmp _L173
 663  0305              _L114:
 719  0305              #line 719 "k:\55555555555555\test\saier-a600n-2260-usa4g-aal-bg95-ui-v1.0-6\GSM.C"
 719  0305  0F00     R  	mov a,low offset _LC19
 719  0306  0080     R  	mov _print_with_Enter_2[0],a
 719  0307  0F00     R  	mov a,high offset _LC19
 719  0308  0080     R  	mov _print_with_Enter_2[1],a
 719  0309  2800     R  	jmp _L247
 719  030A              _L115:
 735  030A              #line 735 "k:\55555555555555\test\saier-a600n-2260-usa4g-aal-bg95-ui-v1.0-6\GSM.C"
 735  030A  0F00     R  	mov a,low offset _LC20
 735  030B  0080     R  	mov _print_with_Enter_2[0],a
 735  030C  0F00     R  	mov a,high offset _LC20
 735  030D  0080     R  	mov _print_with_Enter_2[1],a
 735  030E              	fcall _print_with_Enter
 736  0315              #line 736 "k:\55555555555555\test\saier-a600n-2260-usa4g-aal-bg95-ui-v1.0-6\GSM.C"
 736  0315  0F0A        	mov a,10
 736  0316              	fcall _read_GSM_data
 736  031D  0080     E  	mov ra,a
 736  031E  1080     E  	sz ra
 736  031F  2800     R  	jmp _L189
 738  0320              #line 738 "k:\55555555555555\test\saier-a600n-2260-usa4g-aal-bg95-ui-v1.0-6\GSM.C"
 738  0320  D49F 0003   	linc [927]
 739  0322              #line 739 "k:\55555555555555\test\saier-a600n-2260-usa4g-aal-bg95-ui-v1.0-6\GSM.C"
 739  0322  D49F 0003   	linc [927]
 741  0324              #line 741 "k:\55555555555555\test\saier-a600n-2260-usa4g-aal-bg95-ui-v1.0-6\GSM.C"
 741  0324  0F32        	mov a,50
 741  0325  0080     E  	mov _delay_ms_2[0],a
 741  0326  1F00     E  	clr _delay_ms_2[1]
 741  0327  2800     R  	jmp _L242
 741  0328              _L116:
 754  0328              #line 754 "k:\55555555555555\test\saier-a600n-2260-usa4g-aal-bg95-ui-v1.0-6\GSM.C"
 754  0328  0F00     R  	mov a,low offset _LC21
 754  0329  0080     R  	mov _print_with_Enter_2[0],a
 754  032A  0F00     R  	mov a,high offset _LC21
 754  032B  0080     R  	mov _print_with_Enter_2[1],a
 754  032C              	fcall _print_with_Enter
 755  0333              #line 755 "k:\55555555555555\test\saier-a600n-2260-usa4g-aal-bg95-ui-v1.0-6\GSM.C"
 755  0333  D49F 0003   	linc [927]
 757  0335              #line 757 "k:\55555555555555\test\saier-a600n-2260-usa4g-aal-bg95-ui-v1.0-6\GSM.C"
 757  0335  0F3C        	mov a,60
 757  0336              _L243:
 757  0336              	fcall _read_GSM_data
 757  033D  2800     R  	jmp _L206
 757  033E              _L117:
 768  033E              #line 768 "k:\55555555555555\test\saier-a600n-2260-usa4g-aal-bg95-ui-v1.0-6\GSM.C"
 768  033E  0F00     R  	mov a,low offset _LC22
 768  033F  0080     R  	mov _print_with_Enter_2[0],a
 768  0340  0F00     R  	mov a,high offset _LC22
 768  0341  0080     R  	mov _print_with_Enter_2[1],a
 768  0342              	fcall _print_with_Enter
 769  0349              #line 769 "k:\55555555555555\test\saier-a600n-2260-usa4g-aal-bg95-ui-v1.0-6\GSM.C"
 769  0349  0F0A        	mov a,10
 769  034A              	fcall _read_GSM_data
文件：GSM.C        编译器版本 HGASM 0202 页次39

 769  0351  0080     E  	mov ra,a
 769  0352  1080     E  	sz ra
 769  0353  2800     R  	jmp _L165
 769  0354  0F01        	mov a,1
 769  0355  0080     E  	mov ra,a
 769  0356              _L166:
 772  0356              #line 772 "k:\55555555555555\test\saier-a600n-2260-usa4g-aal-bg95-ui-v1.0-6\GSM.C"
 772  0356  0700     E  	mov a,ra
 772  0357  C223 0003   	lsub a,[931]
 772  0359  3C0A        	sz c
 772  035A  2800     R  	jmp _L165
 774  035B              #line 774 "k:\55555555555555\test\saier-a600n-2260-usa4g-aal-bg95-ui-v1.0-6\GSM.C"
 774  035B  0700     E  	mov a,ra
 774  035C  0080     E  	mov rb,a
 774  035D  1F00     E  	clr rc
 774  035E  0F80        	mov a,low offset _Rx_Buff0
 774  035F  0300     E  	add a,rb
 774  0360  0083        	mov mp,a
 774  0361  0F02        	mov a,high offset _Rx_Buff0
 774  0362  1300     E  	adc a,rc
 774  0363  0084        	mov sbp,a
 774  0364              	fcall _Crom2Prom
 774  036B  0080     E  	mov rd,a
 774  036C  0700     E  	mov a,rd
 774  036D  0A30        	sub a,48
 774  036E  390A        	snz z
 774  036F  2800     R  	jmp _L167
 774  0370  0F81        	mov a,low (offset _Rx_Buff0+1)
 774  0371  0300     E  	add a,rb
 774  0372  0083        	mov mp,a
 774  0373  0F02        	mov a,high (offset _Rx_Buff0+1)
 774  0374  1300     E  	adc a,rc
 774  0375  0084        	mov sbp,a
 774  0376              	fcall _Crom2Prom
 774  037D  0080     E  	mov rb,a
 774  037E  0700     E  	mov a,rb
 774  037F  0A2C        	sub a,44
 774  0380  3D0A        	sz z
 774  0381  2800     R  	jmp _L173
 774  0382              _L167:
 772  0382              #line 772 "k:\55555555555555\test\saier-a600n-2260-usa4g-aal-bg95-ui-v1.0-6\GSM.C"
 772  0382  1480     E  	inc ra
 772  0383  2800     R  	jmp _L166
 772  0384              _L165:
 788  0384              #line 788 "k:\55555555555555\test\saier-a600n-2260-usa4g-aal-bg95-ui-v1.0-6\GSM.C"
 788  0384  1480     R  	inc _START_GSM_2[0]
 788  0385  0F5A        	mov a,90
 788  0386  0200     R  	sub a,_START_GSM_2[0]
 788  0387  380A        	snz c
 788  0388  2800     R  	jmp _L129
 790  0389              #line 790 "k:\55555555555555\test\saier-a600n-2260-usa4g-aal-bg95-ui-v1.0-6\GSM.C"
 790  0389  0FB8        	mov a,-72
 790  038A  0080     E  	mov _delay_ms_2[0],a
 790  038B  0F0B        	mov a,11
 790  038C  0080     E  	mov _delay_ms_2[1],a
 790  038D  2800     R  	jmp _L241
 790  038E              _L118:
 797  038E              #line 797 "k:\55555555555555\test\saier-a600n-2260-usa4g-aal-bg95-ui-v1.0-6\GSM.C"
 797  038E  0F00     R  	mov a,low offset _LC23
 797  038F  0080     R  	mov _print_with_Enter_2[0],a
文件：GSM.C        编译器版本 HGASM 0202 页次40

 797  0390  0F00     R  	mov a,high offset _LC23
 797  0391  0080     R  	mov _print_with_Enter_2[1],a
 797  0392              	fcall _print_with_Enter
 798  0399              #line 798 "k:\55555555555555\test\saier-a600n-2260-usa4g-aal-bg95-ui-v1.0-6\GSM.C"
 798  0399  0F0A        	mov a,10
 798  039A              	fcall _read_GSM_data
 798  03A1  0080     E  	mov ra,a
 798  03A2  1080     E  	sz ra
 798  03A3  2800     R  	jmp _L170
 798  03A4  0F01        	mov a,1
 798  03A5  0080     E  	mov ra,a
 798  03A6              _L171:
 801  03A6              #line 801 "k:\55555555555555\test\saier-a600n-2260-usa4g-aal-bg95-ui-v1.0-6\GSM.C"
 801  03A6  0700     E  	mov a,ra
 801  03A7  C223 0003   	lsub a,[931]
 801  03A9  3C0A        	sz c
 801  03AA  2800     R  	jmp _L170
 802  03AB              #line 802 "k:\55555555555555\test\saier-a600n-2260-usa4g-aal-bg95-ui-v1.0-6\GSM.C"
 802  03AB  0700     E  	mov a,ra
 802  03AC  0080     E  	mov rb,a
 802  03AD  1F00     E  	clr rc
 802  03AE  0F80        	mov a,low offset _Rx_Buff0
 802  03AF  0300     E  	add a,rb
 802  03B0  0083        	mov mp,a
 802  03B1  0F02        	mov a,high offset _Rx_Buff0
 802  03B2  1300     E  	adc a,rc
 802  03B3  0084        	mov sbp,a
 802  03B4              	fcall _Crom2Prom
 802  03BB  0080     E  	mov rd,a
 802  03BC  0700     E  	mov a,rd
 802  03BD  0A2C        	sub a,44
 802  03BE  390A        	snz z
 802  03BF  2800     R  	jmp _L172
 802  03C0  0F7F        	mov a,low (offset _Rx_Buff0-1)
 802  03C1  0300     E  	add a,rb
 802  03C2  0083        	mov mp,a
 802  03C3  0F02        	mov a,high (offset _Rx_Buff0-1)
 802  03C4  1300     E  	adc a,rc
 802  03C5  0084        	mov sbp,a
 802  03C6              	fcall _Crom2Prom
 802  03CD  0080     E  	mov rd,a
 802  03CE  0700     E  	mov a,rd
 802  03CF  0A30        	sub a,48
 802  03D0  390A        	snz z
 802  03D1  2800     R  	jmp _L172
 802  03D2  0F81        	mov a,low (offset _Rx_Buff0+1)
 802  03D3  0300     E  	add a,rb
 802  03D4  0083        	mov mp,a
 802  03D5  0F02        	mov a,high (offset _Rx_Buff0+1)
 802  03D6  1300     E  	adc a,rc
 802  03D7  0084        	mov sbp,a
 802  03D8              	fcall _Crom2Prom
 802  03DF  0080     R  	mov _START_GSM_2[1],a
 802  03E0  0700     R  	mov a,_START_GSM_2[1]
 802  03E1  0A31        	sub a,49
 802  03E2  3D0A        	sz z
 802  03E3  2800     R  	jmp _L173
 802  03E4  0A04        	sub a,(53)-(49)
 802  03E5  3D0A        	sz z
 802  03E6  2800     R  	jmp _L173
文件：GSM.C        编译器版本 HGASM 0202 页次41

 802  03E7              _L172:
 801  03E7              #line 801 "k:\55555555555555\test\saier-a600n-2260-usa4g-aal-bg95-ui-v1.0-6\GSM.C"
 801  03E7  1480     E  	inc ra
 801  03E8  2800     R  	jmp _L171
 801  03E9              _L170:
 814  03E9              #line 814 "k:\55555555555555\test\saier-a600n-2260-usa4g-aal-bg95-ui-v1.0-6\GSM.C"
 814  03E9  1480     R  	inc _START_GSM_2[0]
 814  03EA  0FFA        	mov a,250
 814  03EB  0200     R  	sub a,_START_GSM_2[0]
 814  03EC  3C0A        	sz c
 814  03ED  2800     R  	jmp _L240
 814  03EE  2800     R  	jmp _L129
 814  03EF              _L119:
 822  03EF              #line 822 "k:\55555555555555\test\saier-a600n-2260-usa4g-aal-bg95-ui-v1.0-6\GSM.C"
 822  03EF  0F00     R  	mov a,low offset _LC24
 822  03F0  0080     R  	mov _print_with_Enter_2[0],a
 822  03F1  0F00     R  	mov a,high offset _LC24
 822  03F2  0080     R  	mov _print_with_Enter_2[1],a
 822  03F3              	fcall _print_with_Enter
 823  03FA              #line 823 "k:\55555555555555\test\saier-a600n-2260-usa4g-aal-bg95-ui-v1.0-6\GSM.C"
 823  03FA  0F0A        	mov a,10
 823  03FB              	fcall _read_GSM_data
 823  0402  0080     E  	mov ra,a
 823  0403  1080     E  	sz ra
 823  0404  2800     R  	jmp _L175
 823  0405  1F00     E  	clr rf
 823  0406              _L176:
 826  0406              #line 826 "k:\55555555555555\test\saier-a600n-2260-usa4g-aal-bg95-ui-v1.0-6\GSM.C"
 826  0406  0700     E  	mov a,rf
 826  0407  C223 0003   	lsub a,[931]
 826  0409  3C0A        	sz c
 826  040A  2800     R  	jmp _L175
 828  040B              #line 828 "k:\55555555555555\test\saier-a600n-2260-usa4g-aal-bg95-ui-v1.0-6\GSM.C"
 828  040B  0700     E  	mov a,rf
 828  040C  0080     E  	mov rb,a
 828  040D  1F00     E  	clr rc
 828  040E  0F80        	mov a,low offset _Rx_Buff0
 828  040F  0300     E  	add a,rb
 828  0410  0083        	mov mp,a
 828  0411  0F02        	mov a,high offset _Rx_Buff0
 828  0412  1300     E  	adc a,rc
 828  0413  0084        	mov sbp,a
 828  0414              	fcall _Crom2Prom
 828  041B  0080     E  	mov ra,a
 828  041C  0700     E  	mov a,ra
 828  041D  0A2C        	sub a,44
 828  041E  390A        	snz z
 828  041F  2800     R  	jmp _L177
 828  0420  0FFE        	mov a,254
 828  0421  0300     E  	add a,rb
 828  0422  0080     E  	mov rd,a
 828  0423  0FFF        	mov a,255
 828  0424  1300     E  	adc a,rc
 828  0425  0080     E  	mov re,a
 828  0426  0F80        	mov a,low offset _Rx_Buff0
 828  0427  0300     E  	add a,rd
 828  0428  0083        	mov mp,a
 828  0429  0F02        	mov a,high offset _Rx_Buff0
 828  042A  1300     E  	adc a,re
 828  042B  0084        	mov sbp,a
文件：GSM.C        编译器版本 HGASM 0202 页次42

 828  042C              	fcall _Crom2Prom
 828  0433  0080     R  	mov _START_GSM_2[1],a
 828  0434  0F2F        	mov a,47
 828  0435  0200     R  	sub a,_START_GSM_2[1]
 828  0436  3C0A        	sz c
 828  0437  2800     R  	jmp _L178
 828  0438  0F39        	mov a,57
 828  0439  0200     R  	sub a,_START_GSM_2[1]
 828  043A  3C0A        	sz c
 828  043B  2800     R  	jmp _L179
 828  043C              _L178:
 828  043C  0F7F        	mov a,low (offset _Rx_Buff0-1)
 828  043D  0300     E  	add a,rb
 828  043E  0083        	mov mp,a
 828  043F  0F02        	mov a,high (offset _Rx_Buff0-1)
 828  0440  1300     E  	adc a,rc
 828  0441  0084        	mov sbp,a
 828  0442              	fcall _Crom2Prom
 828  0449  0080     R  	mov _START_GSM_2[1],a
 828  044A  0F2F        	mov a,47
 828  044B  0200     R  	sub a,_START_GSM_2[1]
 828  044C  3C0A        	sz c
 828  044D  2800     R  	jmp _L177
 828  044E  0F39        	mov a,57
 828  044F  0200     R  	sub a,_START_GSM_2[1]
 828  0450  380A        	snz c
 828  0451  2800     R  	jmp _L177
 828  0452              _L179:
 830  0452              #line 830 "k:\55555555555555\test\saier-a600n-2260-usa4g-aal-bg95-ui-v1.0-6\GSM.C"
 830  0452  0F80        	mov a,low offset _Rx_Buff0
 830  0453  0300     E  	add a,rd
 830  0454  0083        	mov mp,a
 830  0455  0F02        	mov a,high offset _Rx_Buff0
 830  0456  1300     E  	adc a,re
 830  0457  0084        	mov sbp,a
 830  0458              	fcall _Crom2Prom
 830  045F  0080     E  	mov ra,a
 830  0460  0F2F        	mov a,47
 830  0461  0200     E  	sub a,ra
 830  0462  3C0A        	sz c
 830  0463  2800     R  	jmp _L208
 830  0464  0F39        	mov a,57
 830  0465  0200     E  	sub a,ra
 830  0466  380A        	snz c
 830  0467  2800     R  	jmp _L208
 832  0468              #line 832 "k:\55555555555555\test\saier-a600n-2260-usa4g-aal-bg95-ui-v1.0-6\GSM.C"
 832  0468  0700     E  	mov a,ra
 832  0469  0300     E  	add a,ra
 832  046A  0080     E  	mov rd,a
 832  046B  0700     E  	mov a,rd
 832  046C  0380     E  	addm a,rd
 832  046D  0700     E  	mov a,rd
 832  046E  0380     E  	addm a,ra
 832  046F  0700     E  	mov a,ra
 832  0470  0380     E  	addm a,ra
 832  0471  0F20        	mov a,32
 832  0472  0380     E  	addm a,ra
 832  0473  2800     R  	jmp _L180
 832  0474              _L208:
 836  0474              #line 836 "k:\55555555555555\test\saier-a600n-2260-usa4g-aal-bg95-ui-v1.0-6\GSM.C"
文件：GSM.C        编译器版本 HGASM 0202 页次43

 836  0474  1F00     E  	clr ra
 836  0475              _L180:
 838  0475              #line 838 "k:\55555555555555\test\saier-a600n-2260-usa4g-aal-bg95-ui-v1.0-6\GSM.C"
 838  0475  0F7F        	mov a,low (offset _Rx_Buff0-1)
 838  0476  0300     E  	add a,rb
 838  0477  0083        	mov mp,a
 838  0478  0F02        	mov a,high (offset _Rx_Buff0-1)
 838  0479  1300     E  	adc a,rc
 838  047A  0084        	mov sbp,a
 838  047B              	fcall _Crom2Prom
 838  0482  0080     E  	mov rb,a
 838  0483  0700     E  	mov a,rb
 838  0484  0380     E  	addm a,ra
 839  0485              #line 839 "k:\55555555555555\test\saier-a600n-2260-usa4g-aal-bg95-ui-v1.0-6\GSM.C"
 839  0485  0FC8        	mov a,200
 839  0486  0380     E  	addm a,ra
 839  0487  0F1A        	mov a,26
 839  0488  0200     E  	sub a,ra
 839  0489  3C0A        	sz c
 839  048A  2800     R  	jmp _L189
 839  048B              _L177:
 826  048B              #line 826 "k:\55555555555555\test\saier-a600n-2260-usa4g-aal-bg95-ui-v1.0-6\GSM.C"
 826  048B  1480     E  	inc rf
 826  048C  2800     R  	jmp _L176
 826  048D              _L175:
 854  048D              #line 854 "k:\55555555555555\test\saier-a600n-2260-usa4g-aal-bg95-ui-v1.0-6\GSM.C"
 854  048D  1480     R  	inc _START_GSM_2[0]
 854  048E  0F7D        	mov a,125
 854  048F  0200     R  	sub a,_START_GSM_2[0]
 854  0490  3C0A        	sz c
 854  0491  2800     R  	jmp _L240
 854  0492  2800     R  	jmp _L129
 854  0493              _L120:
 861  0493              #line 861 "k:\55555555555555\test\saier-a600n-2260-usa4g-aal-bg95-ui-v1.0-6\GSM.C"
 861  0493  0F00     R  	mov a,low offset _LC25
 861  0494  0080     R  	mov _print_with_Enter_2[0],a
 861  0495  0F00     R  	mov a,high offset _LC25
 861  0496  0080     R  	mov _print_with_Enter_2[1],a
 861  0497              	fcall _print_with_Enter
 862  049E              #line 862 "k:\55555555555555\test\saier-a600n-2260-usa4g-aal-bg95-ui-v1.0-6\GSM.C"
 862  049E  0F14        	mov a,20
 862  049F  2800     R  	jmp _L254
 862  04A0              _L121:
 877  04A0              #line 877 "k:\55555555555555\test\saier-a600n-2260-usa4g-aal-bg95-ui-v1.0-6\GSM.C"
 877  04A0  0F00     R  	mov a,low offset _LC26
 877  04A1  0080     R  	mov _print_with_Enter_2[0],a
 877  04A2  0F00     R  	mov a,high offset _LC26
 877  04A3  0080     R  	mov _print_with_Enter_2[1],a
 877  04A4              	fcall _print_with_Enter
 878  04AB              #line 878 "k:\55555555555555\test\saier-a600n-2260-usa4g-aal-bg95-ui-v1.0-6\GSM.C"
 878  04AB  0F28        	mov a,40
 878  04AC              	fcall _read_GSM_data
 878  04B3  0080     E  	mov ra,a
 878  04B4  0700     E  	mov a,ra
 878  04B5  0A09        	sub a,9
 878  04B6  390A        	snz z
 878  04B7  2800     R  	jmp _L185
 878  04B8  2800     R  	jmp _L173
 878  04B9              _L122:
 894  04B9              #line 894 "k:\55555555555555\test\saier-a600n-2260-usa4g-aal-bg95-ui-v1.0-6\GSM.C"
文件：GSM.C        编译器版本 HGASM 0202 页次44

 894  04B9  0F00     R  	mov a,low offset _LC27
 894  04BA  0080     R  	mov _print_with_Enter_2[0],a
 894  04BB  0F00     R  	mov a,high offset _LC27
 894  04BC  0080     R  	mov _print_with_Enter_2[1],a
 894  04BD              	fcall _print_with_Enter
 895  04C4              #line 895 "k:\55555555555555\test\saier-a600n-2260-usa4g-aal-bg95-ui-v1.0-6\GSM.C"
 895  04C4  0F28        	mov a,40
 895  04C5  2800     R  	jmp _L254
 895  04C6              _L185:
 902  04C6              #line 902 "k:\55555555555555\test\saier-a600n-2260-usa4g-aal-bg95-ui-v1.0-6\GSM.C"
 902  04C6  1480     R  	inc _START_GSM_2[0]
 902  04C7  0F05        	mov a,5
 902  04C8  0200     R  	sub a,_START_GSM_2[0]
 902  04C9  380A        	snz c
 902  04CA  2800     R  	jmp _L129
 902  04CB              _L240:
 904  04CB              #line 904 "k:\55555555555555\test\saier-a600n-2260-usa4g-aal-bg95-ui-v1.0-6\GSM.C"
 904  04CB  0FE8        	mov a,-24
 904  04CC  0080     E  	mov _delay_ms_2[0],a
 904  04CD  0F03        	mov a,3
 904  04CE  0080     E  	mov _delay_ms_2[1],a
 904  04CF              _L241:
 904  04CF              	fcall _delay_ms
 905  04D6              #line 905 "k:\55555555555555\test\saier-a600n-2260-usa4g-aal-bg95-ui-v1.0-6\GSM.C"
 905  04D6  2800     R  	jmp _L126
 905  04D7              _L123:
 910  04D7              #line 910 "k:\55555555555555\test\saier-a600n-2260-usa4g-aal-bg95-ui-v1.0-6\GSM.C"
 910  04D7  0F00     R  	mov a,low offset _LC28
 910  04D8  0080     R  	mov _print_with_Enter_2[0],a
 910  04D9  0F00     R  	mov a,high offset _LC28
 910  04DA  0080     R  	mov _print_with_Enter_2[1],a
 910  04DB              	fcall _print_with_Enter
 911  04E2              #line 911 "k:\55555555555555\test\saier-a600n-2260-usa4g-aal-bg95-ui-v1.0-6\GSM.C"
 911  04E2  0F22        	mov a,34
 911  04E3  C0AB 0001   	lmov [427],a
 912  04E5              #line 912 "k:\55555555555555\test\saier-a600n-2260-usa4g-aal-bg95-ui-v1.0-6\GSM.C"
 912  04E5  0F22        	mov a,34
 912  04E6  C0BB 0001   	lmov [443],a
 913  04E8              #line 913 "k:\55555555555555\test\saier-a600n-2260-usa4g-aal-bg95-ui-v1.0-6\GSM.C"
 913  04E8  0F0A        	mov a,10
 913  04E9              	fcall _read_GSM_data
 913  04F0  0080     E  	mov ra,a
 913  04F1  1080     E  	sz ra
 913  04F2  2800     R  	jmp _L186
 913  04F3  1F00     E  	clr ra
 913  04F4              _L187:
 916  04F4              #line 916 "k:\55555555555555\test\saier-a600n-2260-usa4g-aal-bg95-ui-v1.0-6\GSM.C"
 916  04F4  0700     E  	mov a,ra
 916  04F5  C223 0003   	lsub a,[931]
 916  04F7  3C0A        	sz c
 916  04F8  2800     R  	jmp _L186
 918  04F9              #line 918 "k:\55555555555555\test\saier-a600n-2260-usa4g-aal-bg95-ui-v1.0-6\GSM.C"
 918  04F9  0F80        	mov a,low offset _Rx_Buff0
 918  04FA  0300     E  	add a,ra
 918  04FB  0083        	mov mp,a
 918  04FC  0F02        	mov a,high offset _Rx_Buff0
 918  04FD  1F04        	clr sbp
 918  04FE  1384        	adcm a,sbp
 918  04FF              	fcall _Crom2Prom
 918  0506  0080     R  	mov _START_GSM_2[1],a
文件：GSM.C        编译器版本 HGASM 0202 页次45

 918  0507  0F2F        	mov a,47
 918  0508  0200     R  	sub a,_START_GSM_2[1]
 918  0509  3C0A        	sz c
 918  050A  2800     R  	jmp _L188
 918  050B  0F39        	mov a,57
 918  050C  0200     R  	sub a,_START_GSM_2[1]
 918  050D  380A        	snz c
 918  050E  2800     R  	jmp _L188
 918  050F  0F0F        	mov a,15
 918  0510  0080     E  	mov rb,a
 918  0511  0F01        	mov a,1
 918  0512  0080     E  	mov rc,a
 918  0513              _L190:
 922  0513              #line 922 "k:\55555555555555\test\saier-a600n-2260-usa4g-aal-bg95-ui-v1.0-6\GSM.C"
 922  0513  0F80        	mov a,low offset _Rx_Buff0
 922  0514  0300     E  	add a,ra
 922  0515  0083        	mov mp,a
 922  0516  0F02        	mov a,high offset _Rx_Buff0
 922  0517  1F04        	clr sbp
 922  0518  1384        	adcm a,sbp
 922  0519              	fcall _Crom2Prom
 922  0520  0080     E  	mov rd,a
 922  0521  0FAB        	mov a,low (offset _up_data+43)
 922  0522  0300     E  	add a,rc
 922  0523  0083        	mov mp,a
 922  0524  0F01        	mov a,high (offset _up_data+43)
 922  0525  1F04        	clr sbp
 922  0526  1384        	adcm a,sbp
 922  0527  0700     E  	mov a,rd
 922  0528  0082        	mov ir,a
 920  0529              #line 920 "k:\55555555555555\test\saier-a600n-2260-usa4g-aal-bg95-ui-v1.0-6\GSM.C"
 920  0529  1480     E  	inc rc
 920  052A  1480     E  	inc ra
 920  052B  1780     E  	sdz rb
 920  052C  2800     R  	jmp _L190
 920  052D  2800     R  	jmp _L189
 920  052E              _L188:
 916  052E              #line 916 "k:\55555555555555\test\saier-a600n-2260-usa4g-aal-bg95-ui-v1.0-6\GSM.C"
 916  052E  1480     E  	inc ra
 916  052F  2800     R  	jmp _L187
 916  0530              _L186:
 936  0530              #line 936 "k:\55555555555555\test\saier-a600n-2260-usa4g-aal-bg95-ui-v1.0-6\GSM.C"
 936  0530  1400     R  	inca _START_GSM_2[0]
 936  0531  0080     R  	mov _START_GSM_2[1],a
 936  0532  0F03        	mov a,3
 936  0533  0200     R  	sub a,_START_GSM_2[0]
 936  0534  380A        	snz c
 936  0535  2800     R  	jmp _L129
 938  0536              #line 938 "k:\55555555555555\test\saier-a600n-2260-usa4g-aal-bg95-ui-v1.0-6\GSM.C"
 938  0536  0FE8        	mov a,-24
 938  0537  0080     E  	mov _delay_ms_2[0],a
 938  0538  0F03        	mov a,3
 938  0539  0080     E  	mov _delay_ms_2[1],a
 938  053A              	fcall _delay_ms
 936  0541              #line 936 "k:\55555555555555\test\saier-a600n-2260-usa4g-aal-bg95-ui-v1.0-6\GSM.C"
 936  0541  0700     R  	mov a,_START_GSM_2[1]
 936  0542  0080     R  	mov _START_GSM_2[0],a
 939  0543              #line 939 "k:\55555555555555\test\saier-a600n-2260-usa4g-aal-bg95-ui-v1.0-6\GSM.C"
 939  0543  2800     R  	jmp _L126
 939  0544              _L124:
文件：GSM.C        编译器版本 HGASM 0202 页次46

 945  0544              #line 945 "k:\55555555555555\test\saier-a600n-2260-usa4g-aal-bg95-ui-v1.0-6\GSM.C"
 945  0544  0F00     R  	mov a,low offset _LC29
 945  0545  0080     R  	mov _print_with_Enter_2[0],a
 945  0546  0F00     R  	mov a,high offset _LC29
 945  0547  0080     R  	mov _print_with_Enter_2[1],a
 945  0548              	fcall _print_with_Enter
 947  054F              #line 947 "k:\55555555555555\test\saier-a600n-2260-usa4g-aal-bg95-ui-v1.0-6\GSM.C"
 947  054F  0F0A        	mov a,10
 947  0550  C09D 0003   	lmov [925],a
 948  0552              #line 948 "k:\55555555555555\test\saier-a600n-2260-usa4g-aal-bg95-ui-v1.0-6\GSM.C"
 948  0552  DF23 0003   	lclr [931]
 949  0554              #line 949 "k:\55555555555555\test\saier-a600n-2260-usa4g-aal-bg95-ui-v1.0-6\GSM.C"
 949  0554  1F00     E  	clr ra
 949  0555              _L192:
 950  0555              #line 950 "k:\55555555555555\test\saier-a600n-2260-usa4g-aal-bg95-ui-v1.0-6\GSM.C"
 950  0555  DE1D 0003   	lsnz [925]
 950  0557  2800     R  	jmp _L200
 952  0558              #line 952 "k:\55555555555555\test\saier-a600n-2260-usa4g-aal-bg95-ui-v1.0-6\GSM.C"
 952  0558  3800     E  	snz _gu8v_uart_flag[0].7
 952  0559  2800     R  	jmp _L193
 954  055A              #line 954 "k:\55555555555555\test\saier-a600n-2260-usa4g-aal-bg95-ui-v1.0-6\GSM.C"
 954  055A  C723 0003   	lmov a,[931]
 954  055C  0080     E  	mov rb,a
 954  055D  1400     E  	inca rb
 954  055E  C0A3 0003   	lmov [931],a
 954  0560  0F80        	mov a,low offset _Rx_Buff0
 954  0561  0300     E  	add a,rb
 954  0562  0083        	mov mp,a
 954  0563  0F02        	mov a,high offset _Rx_Buff0
 954  0564  1F04        	clr sbp
 954  0565  1384        	adcm a,sbp
 954  0566  0732        	mov a,[50]
 954  0567  0082        	mov ir,a
 955  0568              #line 955 "k:\55555555555555\test\saier-a600n-2260-usa4g-aal-bg95-ui-v1.0-6\GSM.C"
 955  0568  3400     E  	clr _gu8v_uart_flag[0].7
 956  0569              #line 956 "k:\55555555555555\test\saier-a600n-2260-usa4g-aal-bg95-ui-v1.0-6\GSM.C"
 956  0569  0732        	mov a,[50]
 956  056A  0A22        	sub a,34
 956  056B  390A        	snz z
 956  056C  2800     R  	jmp _L193
 959  056D              #line 959 "k:\55555555555555\test\saier-a600n-2260-usa4g-aal-bg95-ui-v1.0-6\GSM.C"
 959  056D  1700     E  	sdza ra
 959  056E  2800     R  	jmp _LI1
 959  056F  2800     R  	jmp _L194
 959  0570              _LI1:
 959  0570  0F01        	mov a,1
 959  0571  0080     E  	mov ra,a
 959  0572              _L193:
 963  0572              #line 963 "k:\55555555555555\test\saier-a600n-2260-usa4g-aal-bg95-ui-v1.0-6\GSM.C"
 963  0572  3D94        	sz [20].3
 963  0573  2800     R  	jmp _L192
 963  0574  2800     R  	jmp _L129
 963  0575              _L194:
 972  0575              #line 972 "k:\55555555555555\test\saier-a600n-2260-usa4g-aal-bg95-ui-v1.0-6\GSM.C"
 972  0575              	fcall _gettime
 972  057C  0080     E  	mov ra,a
 972  057D  1080     E  	sz ra
 972  057E  2800     R  	jmp _L201
 972  057F              _L200:
 979  057F              #line 979 "k:\55555555555555\test\saier-a600n-2260-usa4g-aal-bg95-ui-v1.0-6\GSM.C"
文件：GSM.C        编译器版本 HGASM 0202 页次47

 979  057F  1480     R  	inc _START_GSM_2[0]
 979  0580  0F02        	mov a,2
 979  0581  0200     R  	sub a,_START_GSM_2[0]
 979  0582  3C0A        	sz c
 979  0583  2800     R  	jmp _L125
 981  0584              #line 981 "k:\55555555555555\test\saier-a600n-2260-usa4g-aal-bg95-ui-v1.0-6\GSM.C"
 981  0584  D49F 0003   	linc [927]
 982  0586              #line 982 "k:\55555555555555\test\saier-a600n-2260-usa4g-aal-bg95-ui-v1.0-6\GSM.C"
 982  0586  1F00     R  	clr _START_GSM_2[0]
 982  0587              _L125:
 991  0587              #line 991 "k:\55555555555555\test\saier-a600n-2260-usa4g-aal-bg95-ui-v1.0-6\GSM.C"
 991  0587  0F00     R  	mov a,low offset _LC30
 991  0588  0080     R  	mov _print_with_Enter_2[0],a
 991  0589  0F00     R  	mov a,high offset _LC30
 991  058A  0080     R  	mov _print_with_Enter_2[1],a
 991  058B              	fcall _print_with_Enter
 992  0592              #line 992 "k:\55555555555555\test\saier-a600n-2260-usa4g-aal-bg95-ui-v1.0-6\GSM.C"
 992  0592  0F0A        	mov a,10
 992  0593  C09D 0003   	lmov [925],a
 993  0595              #line 993 "k:\55555555555555\test\saier-a600n-2260-usa4g-aal-bg95-ui-v1.0-6\GSM.C"
 993  0595  DF23 0003   	lclr [931]
 994  0597              #line 994 "k:\55555555555555\test\saier-a600n-2260-usa4g-aal-bg95-ui-v1.0-6\GSM.C"
 994  0597  1F00     E  	clr ra
 994  0598              _L196:
 995  0598              #line 995 "k:\55555555555555\test\saier-a600n-2260-usa4g-aal-bg95-ui-v1.0-6\GSM.C"
 995  0598  DE1D 0003   	lsnz [925]
 995  059A  2800     R  	jmp _L202
 997  059B              #line 997 "k:\55555555555555\test\saier-a600n-2260-usa4g-aal-bg95-ui-v1.0-6\GSM.C"
 997  059B  3800     E  	snz _gu8v_uart_flag[0].7
 997  059C  2800     R  	jmp _L197
 999  059D              #line 999 "k:\55555555555555\test\saier-a600n-2260-usa4g-aal-bg95-ui-v1.0-6\GSM.C"
 999  059D  C723 0003   	lmov a,[931]
 999  059F  0080     E  	mov rb,a
 999  05A0  1400     E  	inca rb
 999  05A1  C0A3 0003   	lmov [931],a
 999  05A3  0F80        	mov a,low offset _Rx_Buff0
 999  05A4  0300     E  	add a,rb
 999  05A5  0083        	mov mp,a
 999  05A6  0F02        	mov a,high offset _Rx_Buff0
 999  05A7  1F04        	clr sbp
 999  05A8  1384        	adcm a,sbp
 999  05A9  0732        	mov a,[50]
 999  05AA  0082        	mov ir,a
1000  05AB              #line 1000 "k:\55555555555555\test\saier-a600n-2260-usa4g-aal-bg95-ui-v1.0-6\GSM.C"
1000  05AB  3400     E  	clr _gu8v_uart_flag[0].7
1001  05AC              #line 1001 "k:\55555555555555\test\saier-a600n-2260-usa4g-aal-bg95-ui-v1.0-6\GSM.C"
1001  05AC  0732        	mov a,[50]
1001  05AD  0A22        	sub a,34
1001  05AE  390A        	snz z
1001  05AF  2800     R  	jmp _L197
1004  05B0              #line 1004 "k:\55555555555555\test\saier-a600n-2260-usa4g-aal-bg95-ui-v1.0-6\GSM.C"
1004  05B0  1700     E  	sdza ra
1004  05B1  2800     R  	jmp _LI2
1004  05B2  2800     R  	jmp _L198
1004  05B3              _LI2:
1004  05B3  0F01        	mov a,1
1004  05B4  0080     E  	mov ra,a
1004  05B5              _L197:
1008  05B5              #line 1008 "k:\55555555555555\test\saier-a600n-2260-usa4g-aal-bg95-ui-v1.0-6\GSM.C"
1008  05B5  3D94        	sz [20].3
文件：GSM.C        编译器版本 HGASM 0202 页次48

1008  05B6  2800     R  	jmp _L196
1008  05B7  2800     R  	jmp _L129
1008  05B8              _L198:
1017  05B8              #line 1017 "k:\55555555555555\test\saier-a600n-2260-usa4g-aal-bg95-ui-v1.0-6\GSM.C"
1017  05B8              	fcall _gettime
1017  05BF  0080     E  	mov ra,a
1017  05C0  1080     E  	sz ra
1017  05C1  2800     R  	jmp _L201
1017  05C2              _L202:
1024  05C2              #line 1024 "k:\55555555555555\test\saier-a600n-2260-usa4g-aal-bg95-ui-v1.0-6\GSM.C"
1024  05C2  1480     R  	inc _START_GSM_2[0]
1024  05C3  0F02        	mov a,2
1024  05C4  0200     R  	sub a,_START_GSM_2[0]
1024  05C5  3C0A        	sz c
1024  05C6  2800     R  	jmp _L126
1024  05C7  2800     R  	jmp _L129
1024  05C8              _L259:
 367  05C8              #line 367 "k:\55555555555555\test\saier-a600n-2260-usa4g-aal-bg95-ui-v1.0-6\GSM.C"
 367  05C8  0F00     R  	mov a,low offset _LC31
 367  05C9  0080     R  	mov _print_with_Enter_2[0],a
 367  05CA  0F00     R  	mov a,high offset _LC31
 367  05CB  0080     R  	mov _print_with_Enter_2[1],a
 367  05CC              	fcall _print_with_Enter
 368  05D3              #line 368 "k:\55555555555555\test\saier-a600n-2260-usa4g-aal-bg95-ui-v1.0-6\GSM.C"
 368  05D3  0FB8        	mov a,-72
 368  05D4  0080     E  	mov _delay_ms_2[0],a
 368  05D5  0F0B        	mov a,11
 368  05D6  0080     E  	mov _delay_ms_2[1],a
 368  05D7              	fcall _delay_ms
 369  05DE              #line 369 "k:\55555555555555\test\saier-a600n-2260-usa4g-aal-bg95-ui-v1.0-6\GSM.C"
 369  05DE  0F00     R  	mov a,low offset _LC32
 369  05DF  0080     R  	mov _print_with_Enter_2[0],a
 369  05E0  0F00     R  	mov a,high offset _LC32
 369  05E1  0080     R  	mov _print_with_Enter_2[1],a
 369  05E2              	fcall _print_with_Enter
 370  05E9              #line 370 "k:\55555555555555\test\saier-a600n-2260-usa4g-aal-bg95-ui-v1.0-6\GSM.C"
 370  05E9  0F01        	mov a,1
 370  05EA  C09F 0003   	lmov [927],a
 370  05EC  2800     R  	jmp _L206
 370  05ED              _L260:
 421  05ED              #line 421 "k:\55555555555555\test\saier-a600n-2260-usa4g-aal-bg95-ui-v1.0-6\GSM.C"
 421  05ED  0F00     R  	mov a,low offset _LC33
 421  05EE  0080     R  	mov _print_with_Enter_2[0],a
 421  05EF  0F00     R  	mov a,high offset _LC33
 421  05F0  0080     R  	mov _print_with_Enter_2[1],a
 421  05F1  2800     R  	jmp _L238
 421  05F2              _L261:
 456  05F2              #line 456 "k:\55555555555555\test\saier-a600n-2260-usa4g-aal-bg95-ui-v1.0-6\GSM.C"
 456  05F2  0F00     R  	mov a,low offset _LC34
 456  05F3  0080     R  	mov _print_with_Enter_2[0],a
 456  05F4  0F00     R  	mov a,high offset _LC34
 456  05F5  0080     R  	mov _print_with_Enter_2[1],a
 456  05F6  2800     R  	jmp _L238
 456  05F7              _L262:
 493  05F7              #line 493 "k:\55555555555555\test\saier-a600n-2260-usa4g-aal-bg95-ui-v1.0-6\GSM.C"
 493  05F7  0F00     R  	mov a,low offset _LC35
 493  05F8  0080     R  	mov _print_with_Enter_2[0],a
 493  05F9  0F00     R  	mov a,high offset _LC35
 493  05FA  0080     R  	mov _print_with_Enter_2[1],a
 493  05FB              _L238:
文件：GSM.C        编译器版本 HGASM 0202 页次49

 493  05FB              	fcall _print_with_Enter
 494  0602              #line 494 "k:\55555555555555\test\saier-a600n-2260-usa4g-aal-bg95-ui-v1.0-6\GSM.C"
 494  0602  0FB8        	mov a,-72
 494  0603  0080     E  	mov _delay_ms_2[0],a
 494  0604  0F0B        	mov a,11
 494  0605  0080     E  	mov _delay_ms_2[1],a
 494  0606              	fcall _delay_ms
 496  060D              #line 496 "k:\55555555555555\test\saier-a600n-2260-usa4g-aal-bg95-ui-v1.0-6\GSM.C"
 496  060D  1F00     R  	clr _START_GSM_2[0]
 492  060E              #line 492 "k:\55555555555555\test\saier-a600n-2260-usa4g-aal-bg95-ui-v1.0-6\GSM.C"
 492  060E  0F01        	mov a,1
 492  060F  0080     R  	mov _START_GSM_2[2],a
 492  0610  2800     R  	jmp _L126
 492  0611              _L173:
 809  0611              #line 809 "k:\55555555555555\test\saier-a600n-2260-usa4g-aal-bg95-ui-v1.0-6\GSM.C"
 809  0611  D49F 0003   	linc [927]
 809  0613  2800     R  	jmp _L206
 809  0614              _L189:
 930  0614              #line 930 "k:\55555555555555\test\saier-a600n-2260-usa4g-aal-bg95-ui-v1.0-6\GSM.C"
 930  0614  D49F 0003   	linc [927]
 932  0616              #line 932 "k:\55555555555555\test\saier-a600n-2260-usa4g-aal-bg95-ui-v1.0-6\GSM.C"
 932  0616  0FE8        	mov a,-24
 932  0617  0080     E  	mov _delay_ms_2[0],a
 932  0618  0F03        	mov a,3
 932  0619  0080     E  	mov _delay_ms_2[1],a
 932  061A              _L242:
 932  061A              	fcall _delay_ms
 932  0621  2800     R  	jmp _L206
 932  0622              _L201:
 974  0622              #line 974 "k:\55555555555555\test\saier-a600n-2260-usa4g-aal-bg95-ui-v1.0-6\GSM.C"
 974  0622  0F01        	mov a,1
 974  0623  0080     E  	mov ra,a
 974  0624              _L233:
1039  0624              #line 1039 "k:\55555555555555\test\saier-a600n-2260-usa4g-aal-bg95-ui-v1.0-6\GSM.C"
1039  0624  0700     E  	mov a,ra
1039  0625  0003        	ret
1039  0626              _START_GSM endp
1039  0626              #line 1039 "k:\55555555555555\test\saier-a600n-2260-usa4g-aal-bg95-ui-v1.0-6\GSM.C"
1039  0626              #pragma debug scope 1 1
1039  0178              @crom	.section 'crom'
1039  0178              _LC36:
1039  0178              	db 0dh,0ah,041h,054h,02bh,051h,049h,044h,045h,041h
1039  017D              	db 043h,054h,03dh,031h,00h
1039  0180              @crom	.section 'crom'
1039  0180              _LC37:
1039  0180              	db 041h,054h,02bh,051h,050h,04fh,057h,044h,00h
1039  0184              public _GSM_OFF
1039  0184              #pragma debug scope 12 1
1162  0184              #line 1162 "k:\55555555555555\test\saier-a600n-2260-usa4g-aal-bg95-ui-v1.0-6\GSM.C"
1162  0000              _GSM_OFF .section 'code'
1162  0000              _GSM_OFF proc
1163  0000              #line 1163 "k:\55555555555555\test\saier-a600n-2260-usa4g-aal-bg95-ui-v1.0-6\GSM.C"
1163  0000  0F00     R  	mov a,low offset _LC36
1163  0001  0080     R  	mov _print_with_Enter_2[0],a
1163  0002  0F00     R  	mov a,high offset _LC36
1163  0003  0080     R  	mov _print_with_Enter_2[1],a
1163  0004              	fcall _print_with_Enter
1164  000B              #line 1164 "k:\55555555555555\test\saier-a600n-2260-usa4g-aal-bg95-ui-v1.0-6\GSM.C"
1164  000B  0F0A        	mov a,10
1164  000C              	fcall _read_GSM_data
文件：GSM.C        编译器版本 HGASM 0202 页次50

1164  0013  0080     E  	mov ra,a
1164  0014  1E00     E  	snz ra
1164  0015  2800     R  	jmp _L264
1169  0016              #line 1169 "k:\55555555555555\test\saier-a600n-2260-usa4g-aal-bg95-ui-v1.0-6\GSM.C"
1169  0016  0F88        	mov a,-120
1169  0017  0080     E  	mov _delay_ms_2[0],a
1169  0018  0F13        	mov a,19
1169  0019  0080     E  	mov _delay_ms_2[1],a
1169  001A              	fcall _delay_ms
1169  0021              _L264:
1171  0021              #line 1171 "k:\55555555555555\test\saier-a600n-2260-usa4g-aal-bg95-ui-v1.0-6\GSM.C"
1171  0021  0F00     R  	mov a,low offset _LC37
1171  0022  0080     R  	mov _print_with_Enter_2[0],a
1171  0023  0F00     R  	mov a,high offset _LC37
1171  0024  0080     R  	mov _print_with_Enter_2[1],a
1171  0025              	fcall _print_with_Enter
1172  002C              #line 1172 "k:\55555555555555\test\saier-a600n-2260-usa4g-aal-bg95-ui-v1.0-6\GSM.C"
1172  002C  0F0A        	mov a,10
1172  002D              	fcall _read_GSM_data
1175  0034              #line 1175 "k:\55555555555555\test\saier-a600n-2260-usa4g-aal-bg95-ui-v1.0-6\GSM.C"
1175  0034  0F0A        	mov a,10
1175  0035              	fcall _read_GSM_data
1175  003C  0003        	ret
1175  003D              _GSM_OFF endp
1175  003D              #line 1175 "k:\55555555555555\test\saier-a600n-2260-usa4g-aal-bg95-ui-v1.0-6\GSM.C"
1175  003D              #pragma debug scope 1 1
1175  003D              public _print
1175  003D              #pragma debug scope 13 1
1211  003D              #line 1211 "k:\55555555555555\test\saier-a600n-2260-usa4g-aal-bg95-ui-v1.0-6\GSM.C"
1211  0000              _print .section 'code'
1211  0000              _print proc
1211  0000              public _print_2
1211  0000  0002[           local _print_2 db 2 dup(?)	; 2,0
            00
            ]
1211  0002              #pragma debug pointer 44 8 13
1211  0002              #pragma debug pointer 44 8 13
1211  0002              #pragma debug variable 44 13 _print_2+0 "t"
1212  0002              #line 1212 "k:\55555555555555\test\saier-a600n-2260-usa4g-aal-bg95-ui-v1.0-6\GSM.C"
1212  0000  2800     R  	jmp _L269
1212  0001              _L270:
1214  0001              #line 1214 "k:\55555555555555\test\saier-a600n-2260-usa4g-aal-bg95-ui-v1.0-6\GSM.C"
1214  0001  0700     E  	mov a,ra
1214  0002              	fcall _DRV_PutChar
1215  0009              #line 1215 "k:\55555555555555\test\saier-a600n-2260-usa4g-aal-bg95-ui-v1.0-6\GSM.C"
1215  0009  1480     R  	inc _print_2[0]
1215  000A  3D0A        	sz z
1215  000B  1480     R  	inc _print_2[1]
1215  000C              _L269:
1212  000C              #line 1212 "k:\55555555555555\test\saier-a600n-2260-usa4g-aal-bg95-ui-v1.0-6\GSM.C"
1212  000C  0700     R  	mov a,_print_2[0]
1212  000D  0083        	mov mp,a
1212  000E  0700     R  	mov a,_print_2[1]
1212  000F  0084        	mov sbp,a
1212  0010              	fcall _Crom2Prom
1212  0017  0080     E  	mov ra,a
1212  0018  1080     E  	sz ra
1212  0019  2800     R  	jmp _L270
1212  001A  0003        	ret
1212  001B              _print endp
文件：GSM.C        编译器版本 HGASM 0202 页次51

1212  001B              #line 1212 "k:\55555555555555\test\saier-a600n-2260-usa4g-aal-bg95-ui-v1.0-6\GSM.C"
1212  001B              #pragma debug scope 1 1
1212  001B              public _printb
1212  001B              #pragma debug scope 14 1
1221  001B              #line 1221 "k:\55555555555555\test\saier-a600n-2260-usa4g-aal-bg95-ui-v1.0-6\GSM.C"
1221  0000              _printb .section 'code'
1221  0000              _printb proc
1221  0000              public _printb_2
1221  0000  0004[           local _printb_2 db 4 dup(?)	; 4,0
            00
            ]
1221  0004              #pragma debug pointer 45 8 14
1221  0004              #pragma debug pointer 45 8 14
1221  0004              #pragma debug variable 45 14 _printb_2+0 "t"
1221  0004              #pragma debug variable 11 14 _printb_2+2 "L"
1222  0004              #line 1222 "k:\55555555555555\test\saier-a600n-2260-usa4g-aal-bg95-ui-v1.0-6\GSM.C"
1222  0000  0700     R  	mov a,_printb_2[2]
1222  0001  0500     R  	or a,_printb_2[3]
1222  0002  3D0A        	sz z
1222  0003  2800     R  	jmp _L271
1222  0004              _L275:
1222  0004              #pragma debug scope 15 14
1222  0004              ;begin block, line: 1222.-1
1222  0004              #pragma debug scope 16 15
1222  0004              ;begin block, line: 1222.-1
1227  0004              #line 1227 "k:\55555555555555\test\saier-a600n-2260-usa4g-aal-bg95-ui-v1.0-6\GSM.C"
1227  0004  0700     R  	mov a,_printb_2[0]
1227  0005  0083        	mov mp,a
1227  0006  0700     R  	mov a,_printb_2[1]
1227  0007  0084        	mov sbp,a
1227  0008              	fcall _Crom2Prom
1227  000F              	fcall _DRV_PutChar
1228  0016              #line 1228 "k:\55555555555555\test\saier-a600n-2260-usa4g-aal-bg95-ui-v1.0-6\GSM.C"
1228  0016  1480     R  	inc _printb_2[0]
1228  0017  3D0A        	sz z
1228  0018  1480     R  	inc _printb_2[1]
1229  0019              #line 1229 "k:\55555555555555\test\saier-a600n-2260-usa4g-aal-bg95-ui-v1.0-6\GSM.C"
1229  0019  0FFF        	mov a,255
1229  001A  0380     R  	addm a,_printb_2[2]
1229  001B  0FFF        	mov a,255
1229  001C  1380     R  	adcm a,_printb_2[3]
1225  001D              #line 1225 "k:\55555555555555\test\saier-a600n-2260-usa4g-aal-bg95-ui-v1.0-6\GSM.C"
1225  001D  0700     R  	mov a,_printb_2[2]
1225  001E  0500     R  	or a,_printb_2[3]
1225  001F  390A        	snz z
1225  0020  2800     R  	jmp _L275
1225  0021              _L271:
1225  0021              #pragma debug scope 15 14
1225  0021              #pragma debug scope 14 1
1225  0021  0003        	ret
1225  0022              _printb endp
1225  0022              #line 1225 "k:\55555555555555\test\saier-a600n-2260-usa4g-aal-bg95-ui-v1.0-6\GSM.C"
1225  0022              #pragma debug scope 1 1
1225  0184              @crom	.section 'crom'
1225  0184              _LC38:
1225  0184              	db 041h,054h,02bh,051h,048h,054h,054h,050h,050h,04fh
1225  0189              	db 053h,054h,03dh,033h,038h,031h,02ch,033h,030h,02ch
1225  018E              	db 033h,030h,00h
1225  0190              @crom	.section 'crom'
1225  0190              _LC39:
文件：GSM.C        编译器版本 HGASM 0202 页次52

1225  0190              	db 0dh,0ah,07bh,0dh,0ah,00h
1225  0193              @crom	.section 'crom'
1225  0193              _LC40:
1225  0193              	db 020h,020h,020h,020h,022h,049h,04dh,045h,049h,022h
1225  0198              	db 03ah,00h
1225  0199              @crom	.section 'crom'
1225  0199              _LC41:
1225  0199              	db 02ch,0dh,0ah,00h
1225  019B              @crom	.section 'crom'
1225  019B              _LC42:
1225  019B              	db 020h,020h,020h,020h,022h,053h,04eh,022h,03ah,00h
1225  01A0              @crom	.section 'crom'
1225  01A0              _LC43:
1225  01A0              	db 022h,02ch,0dh,0ah,020h,020h,020h,020h,022h,043h
1225  01A5              	db 068h,065h,063h,06bh,020h,054h,069h,06dh,065h,022h
1225  01AA              	db 03ah,022h,00h
1225  01AB              @crom	.section 'crom'
1225  01AB              _LC44:
1225  01AB              	db 022h,02ch,0dh,0ah,00h
1225  01AE              @crom	.section 'crom'
1225  01AE              _LC45:
1225  01AE              	db 020h,020h,020h,020h,022h,043h,068h,065h,063h,06bh
1225  01B3              	db 020h,044h,061h,074h,061h,022h,03ah,0dh,0ah,020h
1225  01B8              	db 020h,020h,020h,07bh,0dh,0ah,00h
1225  01BB              @crom	.section 'crom'
1225  01BB              _LC46:
1225  01BB              	db 020h,020h,020h,020h,020h,020h,020h,020h,022h,04dh
1225  01C0              	db 06fh,064h,065h,06ch,022h,03ah,022h,041h,036h,030h
1225  01C5              	db 030h,04eh,022h,02ch,0dh,0ah,00h
1225  01C9              @crom	.section 'crom'
1225  01C9              _LC47:
1225  01C9              	db 020h,020h,020h,020h,020h,020h,020h,020h,022h,076h
1225  01CE              	db 065h,072h,022h,03ah,022h,041h,036h,030h,030h,04eh
1225  01D3              	db 05fh,031h,02eh,030h,022h,02ch,0dh,0ah,00h
1225  01D7              @crom	.section 'crom'
1225  01D7              _LC48:
1225  01D7              	db 020h,020h,020h,020h,020h,020h,020h,020h,022h,055h
1225  01DC              	db 073h,065h,072h,022h,03ah,022h,00h
1225  01E0              @crom	.section 'crom'
1225  01E0              _LC49:
1225  01E0              	db 020h,020h,020h,020h,020h,020h,020h,020h,022h,053h
1225  01E5              	db 059h,053h,022h,03ah,022h,00h
1225  01E8              @crom	.section 'crom'
1225  01E8              _LC50:
1225  01E8              	db 06dh,06dh,048h,067h,022h,02ch,0dh,0ah,00h
1225  01EC              @crom	.section 'crom'
1225  01EC              _LC51:
1225  01EC              	db 020h,020h,020h,020h,020h,020h,020h,020h,022h,044h
1225  01F1              	db 049h,041h,022h,03ah,022h,00h
1225  01F4              @crom	.section 'crom'
1225  01F4              _LC52:
1225  01F4              	db 020h,020h,020h,020h,020h,020h,020h,020h,022h,042h
1225  01F9              	db 050h,04dh,022h,03ah,022h,00h
1225  01FC              @crom	.section 'crom'
1225  01FC              _LC53:
1225  01FC              	db 074h,069h,06dh,065h,073h,022h,02ch,0dh,0ah,00h
1225  0201              @crom	.section 'crom'
1225  0201              _LC54:
1225  0201              	db 020h,020h,020h,020h,020h,020h,020h,020h,022h,043h
1225  0206              	db 041h,022h,03ah,022h,00h
文件：GSM.C        编译器版本 HGASM 0202 页次53

1225  0209              @crom	.section 'crom'
1225  0209              _LC55:
1225  0209              	db 022h,0dh,0ah,020h,020h,020h,020h,07dh,0dh,0ah
1225  020E              	db 07dh,0dh,0ah,00h
1225  0210              public _GSM_STNT_DATA
1225  0210              #pragma debug scope 17 1
1053  0210              #line 1053 "k:\55555555555555\test\saier-a600n-2260-usa4g-aal-bg95-ui-v1.0-6\GSM.C"
1053  0000              _GSM_STNT_DATA .section 'code'
1053  0000              _GSM_STNT_DATA proc
1053  0000  0002[           local _GSM_STNT_DATA_2 db 2 dup(?)	; 0,2
            00
            ]
1053  0002              #pragma debug variable 8 17 _GSM_STNT_DATA_2+0 "Repeat"
1057  0002              #line 1057 "k:\55555555555555\test\saier-a600n-2260-usa4g-aal-bg95-ui-v1.0-6\GSM.C"
1057  0000  0F22        	mov a,34
1057  0001  C09F 0003   	lmov [927],a
1057  0003              _L291:
1055  0003              #line 1055 "k:\55555555555555\test\saier-a600n-2260-usa4g-aal-bg95-ui-v1.0-6\GSM.C"
1055  0003  1F00     R  	clr _GSM_STNT_DATA_2[0]
1055  0004              _L277:
1060  0004              #line 1060 "k:\55555555555555\test\saier-a600n-2260-usa4g-aal-bg95-ui-v1.0-6\GSM.C"
1060  0004  C71F 0003   	lmov a,[927]
1060  0006  0080     R  	mov _GSM_STNT_DATA_2[1],a
1060  0007  0700     R  	mov a,_GSM_STNT_DATA_2[1]
1060  0008  0A22        	sub a,34
1060  0009  3D0A        	sz z
1060  000A  2800     R  	jmp _L279
1060  000B  0700     R  	mov a,_GSM_STNT_DATA_2[1]
1060  000C  0A23        	sub a,35
1060  000D  390A        	snz z
1060  000E  2800     R  	jmp _L286
1060  000F  2800     R  	jmp _L292
1060  0010              _L279:
1064  0010              #line 1064 "k:\55555555555555\test\saier-a600n-2260-usa4g-aal-bg95-ui-v1.0-6\GSM.C"
1064  0010  0F00     R  	mov a,low offset _LC38
1064  0011  0080     R  	mov _print_with_Enter_2[0],a
1064  0012  0F00     R  	mov a,high offset _LC38
1064  0013  0080     R  	mov _print_with_Enter_2[1],a
1064  0014              	fcall _print_with_Enter
1065  001B              #line 1065 "k:\55555555555555\test\saier-a600n-2260-usa4g-aal-bg95-ui-v1.0-6\GSM.C"
1065  001B  0F1E        	mov a,30
1065  001C              	fcall _read_GSM_data
1065  0023  0080     E  	mov ra,a
1065  0024  0700     E  	mov a,ra
1065  0025  0A09        	sub a,9
1065  0026  390A        	snz z
1065  0027  2800     R  	jmp _L281
1067  0028              #line 1067 "k:\55555555555555\test\saier-a600n-2260-usa4g-aal-bg95-ui-v1.0-6\GSM.C"
1067  0028  D49F 0003   	linc [927]
1067  002A  2800     R  	jmp _L291
1067  002B              _L281:
1072  002B              #line 1072 "k:\55555555555555\test\saier-a600n-2260-usa4g-aal-bg95-ui-v1.0-6\GSM.C"
1072  002B  1480     R  	inc _GSM_STNT_DATA_2[0]
1072  002C  0F05        	mov a,5
1072  002D  0200     R  	sub a,_GSM_STNT_DATA_2[0]
1072  002E  380A        	snz c
1072  002F  2800     R  	jmp _L286
1072  0030  3C00     E  	sz _KEYFLAG[0].1
1072  0031  2800     R  	jmp _L286
1074  0032              #line 1074 "k:\55555555555555\test\saier-a600n-2260-usa4g-aal-bg95-ui-v1.0-6\GSM.C"
文件：GSM.C        编译器版本 HGASM 0202 页次54

1074  0032  0FE8        	mov a,-24
1074  0033  0080     E  	mov _delay_ms_2[0],a
1074  0034  0F03        	mov a,3
1074  0035  0080     E  	mov _delay_ms_2[1],a
1074  0036              	fcall _delay_ms
1075  003D              #line 1075 "k:\55555555555555\test\saier-a600n-2260-usa4g-aal-bg95-ui-v1.0-6\GSM.C"
1075  003D  2800     R  	jmp _L277
1075  003E              _L292:
1081  003E              #line 1081 "k:\55555555555555\test\saier-a600n-2260-usa4g-aal-bg95-ui-v1.0-6\GSM.C"
1081  003E  0F00     R  	mov a,low offset _urlHead
1081  003F  0080     R  	mov _print_2[0],a
1081  0040  0F00     R  	mov a,high offset _urlHead
1081  0041  0080     R  	mov _print_2[1],a
1081  0042              	fcall _print
1082  0049              #line 1082 "k:\55555555555555\test\saier-a600n-2260-usa4g-aal-bg95-ui-v1.0-6\GSM.C"
1082  0049  0F00     R  	mov a,low offset _LC39
1082  004A  0080     R  	mov _print_2[0],a
1082  004B  0F00     R  	mov a,high offset _LC39
1082  004C  0080     R  	mov _print_2[1],a
1082  004D              	fcall _print
1084  0054              #line 1084 "k:\55555555555555\test\saier-a600n-2260-usa4g-aal-bg95-ui-v1.0-6\GSM.C"
1084  0054  0F00     R  	mov a,low offset _LC40
1084  0055  0080     R  	mov _print_2[0],a
1084  0056  0F00     R  	mov a,high offset _LC40
1084  0057  0080     R  	mov _print_2[1],a
1084  0058              	fcall _print
1085  005F              #line 1085 "k:\55555555555555\test\saier-a600n-2260-usa4g-aal-bg95-ui-v1.0-6\GSM.C"
1085  005F  0F11        	mov a,17
1085  0060  0080     R  	mov _printb_2[2],a
1085  0061  1F00     R  	clr _printb_2[3]
1085  0062  0FAB        	mov a,low (offset _up_data+43)
1085  0063  0080     R  	mov _printb_2[0],a
1085  0064  0F01        	mov a,high (offset _up_data+43)
1085  0065  0080     R  	mov _printb_2[1],a
1085  0066              	fcall _printb
1086  006D              #line 1086 "k:\55555555555555\test\saier-a600n-2260-usa4g-aal-bg95-ui-v1.0-6\GSM.C"
1086  006D  0F00     R  	mov a,low offset _LC41
1086  006E  0080     R  	mov _print_2[0],a
1086  006F  0F00     R  	mov a,high offset _LC41
1086  0070  0080     R  	mov _print_2[1],a
1086  0071              	fcall _print
1089  0078              #line 1089 "k:\55555555555555\test\saier-a600n-2260-usa4g-aal-bg95-ui-v1.0-6\GSM.C"
1089  0078  0F00     R  	mov a,low offset _LC42
1089  0079  0080     R  	mov _print_2[0],a
1089  007A  0F00     R  	mov a,high offset _LC42
1089  007B  0080     R  	mov _print_2[1],a
1089  007C              	fcall _print
1090  0083              #line 1090 "k:\55555555555555\test\saier-a600n-2260-usa4g-aal-bg95-ui-v1.0-6\GSM.C"
1090  0083  0F0A        	mov a,10
1090  0084  0080     R  	mov _printb_2[2],a
1090  0085  1F00     R  	clr _printb_2[3]
1090  0086  0F87        	mov a,low (offset _up_data+7)
1090  0087  0080     R  	mov _printb_2[0],a
1090  0088  0F01        	mov a,high (offset _up_data+7)
1090  0089  0080     R  	mov _printb_2[1],a
1090  008A              	fcall _printb
1093  0091              #line 1093 "k:\55555555555555\test\saier-a600n-2260-usa4g-aal-bg95-ui-v1.0-6\GSM.C"
1093  0091  0F00     R  	mov a,low offset _LC43
1093  0092  0080     R  	mov _print_2[0],a
1093  0093  0F00     R  	mov a,high offset _LC43
文件：GSM.C        编译器版本 HGASM 0202 页次55

1093  0094  0080     R  	mov _print_2[1],a
1093  0095              	fcall _print
1096  009C              #line 1096 "k:\55555555555555\test\saier-a600n-2260-usa4g-aal-bg95-ui-v1.0-6\GSM.C"
1096  009C  0F04        	mov a,4
1096  009D  0080     R  	mov _printb_2[2],a
1096  009E  1F00     R  	clr _printb_2[3]
1096  009F  0F9B        	mov a,low (offset _up_data+27)
1096  00A0  0080     R  	mov _printb_2[0],a
1096  00A1  0F01        	mov a,high (offset _up_data+27)
1096  00A2  0080     R  	mov _printb_2[1],a
1096  00A3              	fcall _printb
1097  00AA              #line 1097 "k:\55555555555555\test\saier-a600n-2260-usa4g-aal-bg95-ui-v1.0-6\GSM.C"
1097  00AA  0F02        	mov a,2
1097  00AB  0080     R  	mov _printb_2[2],a
1097  00AC  1F00     R  	clr _printb_2[3]
1097  00AD  0F9F        	mov a,low (offset _up_data+31)
1097  00AE  0080     R  	mov _printb_2[0],a
1097  00AF  0F01        	mov a,high (offset _up_data+31)
1097  00B0  0080     R  	mov _printb_2[1],a
1097  00B1              	fcall _printb
1098  00B8              #line 1098 "k:\55555555555555\test\saier-a600n-2260-usa4g-aal-bg95-ui-v1.0-6\GSM.C"
1098  00B8  0F02        	mov a,2
1098  00B9  0080     R  	mov _printb_2[2],a
1098  00BA  1F00     R  	clr _printb_2[3]
1098  00BB  0FA1        	mov a,low (offset _up_data+33)
1098  00BC  0080     R  	mov _printb_2[0],a
1098  00BD  0F01        	mov a,high (offset _up_data+33)
1098  00BE  0080     R  	mov _printb_2[1],a
1098  00BF              	fcall _printb
1099  00C6              #line 1099 "k:\55555555555555\test\saier-a600n-2260-usa4g-aal-bg95-ui-v1.0-6\GSM.C"
1099  00C6  0F02        	mov a,2
1099  00C7  0080     R  	mov _printb_2[2],a
1099  00C8  1F00     R  	clr _printb_2[3]
1099  00C9  0FA3        	mov a,low (offset _up_data+35)
1099  00CA  0080     R  	mov _printb_2[0],a
1099  00CB  0F01        	mov a,high (offset _up_data+35)
1099  00CC  0080     R  	mov _printb_2[1],a
1099  00CD              	fcall _printb
1100  00D4              #line 1100 "k:\55555555555555\test\saier-a600n-2260-usa4g-aal-bg95-ui-v1.0-6\GSM.C"
1100  00D4  0F02        	mov a,2
1100  00D5  0080     R  	mov _printb_2[2],a
1100  00D6  1F00     R  	clr _printb_2[3]
1100  00D7  0FA5        	mov a,low (offset _up_data+37)
1100  00D8  0080     R  	mov _printb_2[0],a
1100  00D9  0F01        	mov a,high (offset _up_data+37)
1100  00DA  0080     R  	mov _printb_2[1],a
1100  00DB              	fcall _printb
1101  00E2              #line 1101 "k:\55555555555555\test\saier-a600n-2260-usa4g-aal-bg95-ui-v1.0-6\GSM.C"
1101  00E2  0F02        	mov a,2
1101  00E3  0080     R  	mov _printb_2[2],a
1101  00E4  1F00     R  	clr _printb_2[3]
1101  00E5  0FA5        	mov a,low (offset _up_data+37)
1101  00E6  0080     R  	mov _printb_2[0],a
1101  00E7  0F01        	mov a,high (offset _up_data+37)
1101  00E8  0080     R  	mov _printb_2[1],a
1101  00E9              	fcall _printb
1102  00F0              #line 1102 "k:\55555555555555\test\saier-a600n-2260-usa4g-aal-bg95-ui-v1.0-6\GSM.C"
1102  00F0  0F00     R  	mov a,low offset _LC44
1102  00F1  0080     R  	mov _print_2[0],a
1102  00F2  0F00     R  	mov a,high offset _LC44
文件：GSM.C        编译器版本 HGASM 0202 页次56

1102  00F3  0080     R  	mov _print_2[1],a
1102  00F4              	fcall _print
1105  00FB              #line 1105 "k:\55555555555555\test\saier-a600n-2260-usa4g-aal-bg95-ui-v1.0-6\GSM.C"
1105  00FB  0F00     R  	mov a,low offset _LC45
1105  00FC  0080     R  	mov _print_2[0],a
1105  00FD  0F00     R  	mov a,high offset _LC45
1105  00FE  0080     R  	mov _print_2[1],a
1105  00FF              	fcall _print
1108  0106              #line 1108 "k:\55555555555555\test\saier-a600n-2260-usa4g-aal-bg95-ui-v1.0-6\GSM.C"
1108  0106  0F00     R  	mov a,low offset _LC46
1108  0107  0080     R  	mov _print_2[0],a
1108  0108  0F00     R  	mov a,high offset _LC46
1108  0109  0080     R  	mov _print_2[1],a
1108  010A              	fcall _print
1111  0111              #line 1111 "k:\55555555555555\test\saier-a600n-2260-usa4g-aal-bg95-ui-v1.0-6\GSM.C"
1111  0111  0F00     R  	mov a,low offset _LC47
1111  0112  0080     R  	mov _print_2[0],a
1111  0113  0F00     R  	mov a,high offset _LC47
1111  0114  0080     R  	mov _print_2[1],a
1111  0115              	fcall _print
1115  011C              #line 1115 "k:\55555555555555\test\saier-a600n-2260-usa4g-aal-bg95-ui-v1.0-6\GSM.C"
1115  011C  0F00     R  	mov a,low offset _LC48
1115  011D  0080     R  	mov _print_2[0],a
1115  011E  0F00     R  	mov a,high offset _LC48
1115  011F  0080     R  	mov _print_2[1],a
1115  0120              	fcall _print
1116  0127              #line 1116 "k:\55555555555555\test\saier-a600n-2260-usa4g-aal-bg95-ui-v1.0-6\GSM.C"
1116  0127  C704 0001   	lmov a,[388]
1116  0129  0080     E  	mov ra,a
1116  012A  0700     E  	mov a,ra
1116  012B              	fcall _DRV_PutChar
1117  0132              #line 1117 "k:\55555555555555\test\saier-a600n-2260-usa4g-aal-bg95-ui-v1.0-6\GSM.C"
1117  0132  0F00     R  	mov a,low offset _LC44
1117  0133  0080     R  	mov _print_2[0],a
1117  0134  0F00     R  	mov a,high offset _LC44
1117  0135  0080     R  	mov _print_2[1],a
1117  0136              	fcall _print
1119  013D              #line 1119 "k:\55555555555555\test\saier-a600n-2260-usa4g-aal-bg95-ui-v1.0-6\GSM.C"
1119  013D  0F00     R  	mov a,low offset _LC49
1119  013E  0080     R  	mov _print_2[0],a
1119  013F  0F00     R  	mov a,high offset _LC49
1119  0140  0080     R  	mov _print_2[1],a
1119  0141              	fcall _print
1120  0148              #line 1120 "k:\55555555555555\test\saier-a600n-2260-usa4g-aal-bg95-ui-v1.0-6\GSM.C"
1120  0148  0F03        	mov a,3
1120  0149  0080     R  	mov _printb_2[2],a
1120  014A  1F00     R  	clr _printb_2[3]
1120  014B  0F92        	mov a,low (offset _up_data+18)
1120  014C  0080     R  	mov _printb_2[0],a
1120  014D  0F01        	mov a,high (offset _up_data+18)
1120  014E  0080     R  	mov _printb_2[1],a
1120  014F              	fcall _printb
1121  0156              #line 1121 "k:\55555555555555\test\saier-a600n-2260-usa4g-aal-bg95-ui-v1.0-6\GSM.C"
1121  0156  0F00     R  	mov a,low offset _LC50
1121  0157  0080     R  	mov _print_2[0],a
1121  0158  0F00     R  	mov a,high offset _LC50
1121  0159  0080     R  	mov _print_2[1],a
1121  015A              	fcall _print
1123  0161              #line 1123 "k:\55555555555555\test\saier-a600n-2260-usa4g-aal-bg95-ui-v1.0-6\GSM.C"
1123  0161  0F00     R  	mov a,low offset _LC51
文件：GSM.C        编译器版本 HGASM 0202 页次57

1123  0162  0080     R  	mov _print_2[0],a
1123  0163  0F00     R  	mov a,high offset _LC51
1123  0164  0080     R  	mov _print_2[1],a
1123  0165              	fcall _print
1124  016C              #line 1124 "k:\55555555555555\test\saier-a600n-2260-usa4g-aal-bg95-ui-v1.0-6\GSM.C"
1124  016C  0F03        	mov a,3
1124  016D  0080     R  	mov _printb_2[2],a
1124  016E  1F00     R  	clr _printb_2[3]
1124  016F  0F95        	mov a,low (offset _up_data+21)
1124  0170  0080     R  	mov _printb_2[0],a
1124  0171  0F01        	mov a,high (offset _up_data+21)
1124  0172  0080     R  	mov _printb_2[1],a
1124  0173              	fcall _printb
1126  017A              #line 1126 "k:\55555555555555\test\saier-a600n-2260-usa4g-aal-bg95-ui-v1.0-6\GSM.C"
1126  017A  0F00     R  	mov a,low offset _LC50
1126  017B  0080     R  	mov _print_2[0],a
1126  017C  0F00     R  	mov a,high offset _LC50
1126  017D  0080     R  	mov _print_2[1],a
1126  017E              	fcall _print
1129  0185              #line 1129 "k:\55555555555555\test\saier-a600n-2260-usa4g-aal-bg95-ui-v1.0-6\GSM.C"
1129  0185  0F00     R  	mov a,low offset _LC52
1129  0186  0080     R  	mov _print_2[0],a
1129  0187  0F00     R  	mov a,high offset _LC52
1129  0188  0080     R  	mov _print_2[1],a
1129  0189              	fcall _print
1130  0190              #line 1130 "k:\55555555555555\test\saier-a600n-2260-usa4g-aal-bg95-ui-v1.0-6\GSM.C"
1130  0190  0F03        	mov a,3
1130  0191  0080     R  	mov _printb_2[2],a
1130  0192  1F00     R  	clr _printb_2[3]
1130  0193  0F98        	mov a,low (offset _up_data+24)
1130  0194  0080     R  	mov _printb_2[0],a
1130  0195  0F01        	mov a,high (offset _up_data+24)
1130  0196  0080     R  	mov _printb_2[1],a
1130  0197              	fcall _printb
1131  019E              #line 1131 "k:\55555555555555\test\saier-a600n-2260-usa4g-aal-bg95-ui-v1.0-6\GSM.C"
1131  019E  0F00     R  	mov a,low offset _LC53
1131  019F  0080     R  	mov _print_2[0],a
1131  01A0  0F00     R  	mov a,high offset _LC53
1131  01A1  0080     R  	mov _print_2[1],a
1131  01A2              	fcall _print
1133  01A9              #line 1133 "k:\55555555555555\test\saier-a600n-2260-usa4g-aal-bg95-ui-v1.0-6\GSM.C"
1133  01A9  0F00     R  	mov a,low offset _LC54
1133  01AA  0080     R  	mov _print_2[0],a
1133  01AB  0F00     R  	mov a,high offset _LC54
1133  01AC  0080     R  	mov _print_2[1],a
1133  01AD              	fcall _print
1135  01B4              #line 1135 "k:\55555555555555\test\saier-a600n-2260-usa4g-aal-bg95-ui-v1.0-6\GSM.C"
1135  01B4  C703 0001   	lmov a,[387]
1135  01B6  0080     E  	mov ra,a
1135  01B7  0700     E  	mov a,ra
1135  01B8              	fcall _DRV_PutChar
1137  01BF              #line 1137 "k:\55555555555555\test\saier-a600n-2260-usa4g-aal-bg95-ui-v1.0-6\GSM.C"
1137  01BF  0F00     R  	mov a,low offset _LC55
1137  01C0  0080     R  	mov _print_2[0],a
1137  01C1  0F00     R  	mov a,high offset _LC55
1137  01C2  0080     R  	mov _print_2[1],a
1137  01C3              	fcall _print
1141  01CA              #line 1141 "k:\55555555555555\test\saier-a600n-2260-usa4g-aal-bg95-ui-v1.0-6\GSM.C"
1141  01CA  0F32        	mov a,50
1141  01CB              	fcall _wait_Call_Ready
文件：GSM.C        编译器版本 HGASM 0202 页次58

1141  01D2  0080     E  	mov rb,a
1141  01D3  0F01        	mov a,1
1141  01D4  0080     E  	mov ra,a
1141  01D5  0700     E  	mov a,rb
1141  01D6  0A09        	sub a,9
1141  01D7  3D0A        	sz z
1141  01D8  2800     R  	jmp _L278
1141  01D9              _L286:
1073  01D9              #line 1073 "k:\55555555555555\test\saier-a600n-2260-usa4g-aal-bg95-ui-v1.0-6\GSM.C"
1073  01D9  1F00     E  	clr ra
1073  01DA              _L278:
1158  01DA              #line 1158 "k:\55555555555555\test\saier-a600n-2260-usa4g-aal-bg95-ui-v1.0-6\GSM.C"
1158  01DA  0700     E  	mov a,ra
1158  01DB  0003        	ret
1158  01DC              _GSM_STNT_DATA endp
1158  01DC              #line 1158 "k:\55555555555555\test\saier-a600n-2260-usa4g-aal-bg95-ui-v1.0-6\GSM.C"
1158  01DC              #pragma debug scope 1 1
1158  0210              @crom	.section 'crom'
  30  0210              #line 30 "k:\55555555555555\test\saier-a600n-2260-usa4g-aal-bg95-ui-v1.0-6\GSM.C"
  30  0210              @crom	.section	'crom'
  30  0210              ___CSWTCH_188:
  30  0210              #pragma debug array 46 8 16 1
  30  0210              #pragma debug array 46 8 16 1
  30  0210              #pragma debug variable 46 1 ___CSWTCH_188 "__CSWTCH_188"
  30  0210              	db 48
  30  0210              	db 49
  30  0211              	db 50
  30  0211              	db 51
  30  0212              	db 52
  30  0212              	db 53
  30  0213              	db 54
  30  0213              	db 55
  30  0214              	db 56
  30  0214              	db 57
  30  0215              	db 65
  30  0215              	db 66
  30  0216              	db 67
  30  0216              	db 68
  30  0217              	db 69
  30  0217              	db 70
  30  0218              public _data_time2
 184  0218              #line 184 "k:\55555555555555\test\saier-a600n-2260-usa4g-aal-bg95-ui-v1.0-6\GSM.C"
 184  0218              @crom	.section	'crom'
 184  0218              _data_time2:
 184  0218              #pragma debug array 47 8 13 1
 184  0218              #pragma debug array 47 8 13 1
 184  0218              #pragma debug variable 47 1 _data_time2 "data_time2"
 184  0218              	db 0
 184  0218              	db 31
 184  0219              	db 28
 184  0219              	db 31
 184  021A              	db 30
 184  021A              	db 31
 184  021B              	db 30
 184  021B              	db 31
 184  021C              	db 31
 184  021C              	db 30
 184  021D              	db 31
 184  021D              	db 30
 184  021E              	db 31
文件：GSM.C        编译器版本 HGASM 0202 页次59

 184  021E              public _urlHead
  11  021E              #line 11 "k:\55555555555555\test\saier-a600n-2260-usa4g-aal-bg95-ui-v1.0-6\GSM.C"
  11  021E              @crom	.section	'crom'
  11  021E              _urlHead:
  11  021E              #pragma debug array 48 7 81 1
  11  021E              #pragma debug array 48 7 81 1
  11  021E              #pragma debug variable 48 1 _urlHead "urlHead"
  11  021E              	db 050h,04fh,053h,054h,020h,02fh,062h,069h,06fh,06ch
  11  0223              	db 061h,06eh,064h,02fh,061h,036h,030h,030h,06eh,02fh
  11  0228              	db 031h,020h,048h,054h,054h,050h,02fh,031h,02eh,031h
  11  022D              	db 0dh,0ah,048h,06fh,073h,074h,03ah,020h,061h,070h
  11  0232              	db 069h,02eh,074h,065h,06ch,06ch,069h,068h,065h,061h
  11  0237              	db 06ch,074h,068h,02eh,063h,06fh,06dh,0dh,0ah,043h
  11  023C              	db 06fh,06eh,074h,065h,06eh,074h,02dh,04ch,065h,06eh
  11  0241              	db 067h,074h,068h,03ah,020h,032h,039h,039h,0dh,0ah
  11  0246              	db 00h
  11  0247              public _overram
   8  0247              #line 8 "k:\55555555555555\test\saier-a600n-2260-usa4g-aal-bg95-ui-v1.0-6\GSM.C"
   8  0247              @crom	.section	'crom'
   8  0247              _overram:
   8  0247              #pragma debug array 49 8 2 1
   8  0247              #pragma debug array 49 8 2 1
   8  0247              #pragma debug variable 49 1 _overram "overram"
   8  0247              	db 042h,00h
   8  0248              public _overtime
   7  0248              #line 7 "k:\55555555555555\test\saier-a600n-2260-usa4g-aal-bg95-ui-v1.0-6\GSM.C"
   7  0248              @crom	.section	'crom'
   7  0248              _overtime:
   7  0248              #pragma debug variable 49 1 _overtime "overtime"
   7  0248              	db 054h,00h
   7  0249              #pragma debug struct_end
   7  0249              #pragma debug struct_end
   7  0249              #pragma debug union_end
   7  0249              #pragma debug union_end
   7  0249              #pragma debug variable 51 1 ___pa "__pa" 1
   7  0249              #pragma debug struct_end
   7  0249              #pragma debug struct_end
   7  0249              #pragma debug union_end
   7  0249              #pragma debug union_end
   7  0249              #pragma debug variable 53 1 ___intc0 "__intc0" 1
   7  0249              #pragma debug struct_end
   7  0249              #pragma debug struct_end
   7  0249              #pragma debug union_end
   7  0249              #pragma debug union_end
   7  0249              #pragma debug variable 55 1 ___txr_rxr0 "__txr_rxr0" 1
   7  0249              #pragma debug array 56 8 6 1
   7  0249              #pragma debug array 56 8 6 1
   7  0249              #pragma debug variable 56 1 _R_TIME "R_TIME" 6
   7  0249              #pragma debug variable 8 1 _Rx_Size "Rx_Size" 1
   7  0249              #pragma debug variable 8 1 _step "step" 1
   7  0249              #pragma debug variable 8 1 _timegsm "timegsm" 1
   7  0249              #pragma debug array 57 8 85 1
   7  0249              #pragma debug array 57 8 85 1
   7  0249              #pragma debug variable 57 1 _Rx_Buff0 "Rx_Buff0" 85
   7  0249              #pragma debug struct_end
   7  0249              #pragma debug struct_end
   7  0249              #pragma debug union_end
   7  0249              #pragma debug union_end
   7  0249              #pragma debug variable 59 1 _up_data "up_data" 85
   7  0249              
文件：GSM.C        编译器版本 HGASM 0202 页次60

   7  0249              ; output external variables
   7  0249              extern _KEYFLAG:byte
   7  0249              extern _Usflag:byte
   7  0249              extern _gu8v_uart_flag:byte
   7  0249              extern _MODEFLAG:byte
   7  0249              extern _builtin_holtek_divmodhi4:near
   7  0249              extern _builtin_holtek_udivmodhi4_2:byte
   7  0249              extern _builtin_holtek_udivmodhi4:near
   7  0249              extern _SBR_UPDATE_TIME:near
   7  0249              extern _delay_ms_2:byte
   7  0249              extern _delay_ms:near
   7  0249              
   7  0249              ; 
   7  0249              ; Generated by holtek-gcc v3.19, Tue Jul 26 12:07:02 2022
   7  0249              ; Rebuild 718
   7  0249              ; end of file


        0 Errors, 0