文件：isr.c        编译器版本 HGASM 0202 页次1


   1  0000              ; Generated by holtek-gcc v3.19, Tue Jul 26 12:07:00 2022
   2  0000              ; 
   3  0000              ; Configuration:
   4  0000              ;       with long instruction
   5  0000              ;       Multi-ROM, Multi-RAM
   6  0000              ;       bits_per_rom_unit:16
   7  0000              ;       with mp1
   8  0000              ;       with tbhp, address(0x9)
   9  0000              ;          Use tabrd-const
  10  0000              ;       
  11  0000              ; SFR address of long-instruction arch:
  12  0000              ;    mp0 = -1,1,0
  13  0000              ;    mp1 = 4,3,2
  14  0000              ;    mp2 = 14,13,12
  15  0000              ;    tbp = 9,7,8
  16  0000              ;    acc = 5
  17  0000              ;    pcl = 6
  18  0000              ;    status = 10
  19  0000              ;    bp = 11
  20  0000              ;    intc = 32
  21  0000              ;       
  22  0000              ;       
  23  0000              ; use 'tabrdc' instead of 'tabrd'
  24  0000              ;       
  25  0000              
  26  0000              #pragma translator "holtek-gcc 4.6.4" "3.19" "build 20130711"
  27  0000              ; Rebuild 718
  28  0000              
  29  0000              ir equ [2]
  30  0000              mp equ [3]
  31  0000              sbp equ [4]
  32  0000              acc equ [5]
  33  0000              bp equ [11]
  34  0000              tblp equ [7]
  35  0000              tbhp equ [9]
  36  0000              status equ [10]
  37  0000              c equ [10].0
  38  0000              ac equ [10].1
  39  0000              z equ [10].2
  40  0000              ov equ [10].3
  41  0000              cz equ [10].6
  42  0000              sc equ [10].7
  43  0000              intc equ [32]
  44  0000              
  45  0000              extern ra:byte
  46  0000              extern rb:byte
  47  0000              extern rc:byte
  48  0000              extern rd:byte
  49  0000              extern re:byte
  50  0000              extern rf:byte
  51  0000              extern rg:byte
  52  0000              extern rh:byte
  53  0000              extern _Crom2Prom:near
  54  0000              extern _Crom2PromNext:near
  55  0000              
  56  0000              RAMBANK 0 @BITDATASEC, @BITDATASEC1
  57  0000              @HCCINIT	.section 'data'
  58  0000              @HCCINIT0	.section 'data'
  59  0000              @BITDATASEC	 .section 'data'
文件：isr.ASM      编译器版本 HGASM 0202 页次2

  60  0000              @BITDATASEC1	 .section 'data'
  61  0000              
  62  0000              #pragma debug scope 1 1
  63  0000              	extern __DELAY3:near
  64  0000              	extern __DELAYX3:near
  65  0000              	extern __DELAYX6:near
  66  0000              	extern __DELAYY5:near
  67  0000              	extern __DELAYY3:near
  68  0000              	extern _builtin_holtek_delay_2:byte
  69  0000              ___mfi1 equ [28]
  70  0000              _counter2ms equ [987]
  71  0000              _P0_ad equ [496]
  72  0000              _P012_avg equ [1006]
  73  0000              _pres_ad_0 equ [998]
  74  0000              _pres_ad_100 equ [996]
  75  0000              _pres_ad_200 equ [994]
  76  0000              _pres_ad_300 equ [992]
  77  0000              _Over300 equ [986]
  78  0000              _P1_ad equ [752]
  79  0000              _P1VAL_B equ [985]
  80  0000              _dowm_time equ [976]
  81  0000              _close_time equ [1004]
  82  0000              _counter9ms equ [956]
  83  0000              _PLSFTM equ [916]
  84  0000              _PLSFTM1 equ [1023]
  85  0000              _FTM31 equ [946]
  86  0000              _S_PCNT equ [981]
  87  0000              _P_PWMCNT equ [1018]
  88  0000              _MS10JSQ equ [926]
  89  0000              _Timer_Flag_t10ms_Count equ [932]
  90  0000              _timegsm equ [925]
  91  0000              _s_pres_avl15 equ [918]
  92  0000              _s_pres_avl equ [948]
  93  0000              _pwm_val1 equ [958]
  94  0000              public _ISR_TM0
  95  0000              #pragma debug scope 2 1

  12  0000              #line 12 "k:\55555555555555\test\saier-a600n-2260-usa4g-aal-bg95-ui-v1.0-6\isr.c"
  12  0000              rombank 0 @ISR_TM0_code
  12  0000              @ISR_TM0_code .section at 20 'code'
  12  0000  0080     E  	mov r1,a
  12  0001  070B        	mov a,bp
  12  0002  1F0B        	clr bp
  12  0003  2800     R  	jmp _ISR_TM0
  12  0004              ROMBANK 0 _ISR_TM0
  12  0004              #pragma debug scope 1 1
  12  0004              @dummy20 endp
  12  0004              #pragma debug scope 3 1
  12  0000              _ISR_TM0 .section 'code'
  12  0000              _ISR_TM0 proc
  12  0000  00          local _ISR_TM0_2 db 1 dup(?)
  12  0000  0080     E  	mov r2,a
  12  0001  070A        	mov a, status
  12  0002  0080     E  	mov r3,a
  12  0003  0703        	mov a,mp
  12  0004  0080     E  	mov r4,a
  12  0005  0704        	mov a,sbp
  12  0006  0080     E  	mov r5,a
  12  0007  0707        	mov a,tblp
  12  0008  0080     E  	mov r6,a
文件：isr.c        编译器版本 HGASM 0202 页次3

  12  0009  0709        	mov a,tbhp
  12  000A  0080     E  	mov r7,a
  15  000B              #line 15 "k:\55555555555555\test\saier-a600n-2260-usa4g-aal-bg95-ui-v1.0-6\isr.c"
  15  000B  3A9C        	snz [28].5
  15  000C  2800     R  	jmp _L2
  17  000D              #line 17 "k:\55555555555555\test\saier-a600n-2260-usa4g-aal-bg95-ui-v1.0-6\isr.c"
  17  000D  369C        	clr [28].5
  17  000E              _L2:
  19  000E              #line 19 "k:\55555555555555\test\saier-a600n-2260-usa4g-aal-bg95-ui-v1.0-6\isr.c"
  19  000E  3B9C        	snz [28].7
  19  000F  2800     R  	jmp _L1
  21  0010              #line 21 "k:\55555555555555\test\saier-a600n-2260-usa4g-aal-bg95-ui-v1.0-6\isr.c"
  21  0010  379C        	clr [28].7
  26  0011              #line 26 "k:\55555555555555\test\saier-a600n-2260-usa4g-aal-bg95-ui-v1.0-6\isr.c"
  26  0011  C75B 0003   	lmov a,[987]
  26  0013  0080     R  	mov _ISR_TM0_2[0],a
  26  0014  0700     R  	mov a,_ISR_TM0_2[0]
  26  0015  0A00        	sub a,0
  26  0016  3D0A        	sz z
  26  0017  2800     R  	jmp _L5
  26  0018  0A01        	sub a,(1)-(0)
  26  0019  3D0A        	sz z
  26  001A  2800     R  	jmp _L6
  26  001B  0700     R  	mov a,_ISR_TM0_2[0]
  26  001C  0A02        	sub a,2
  26  001D  3D0A        	sz z
  26  001E  2800     R  	jmp _L7
  26  001F  0700     R  	mov a,_ISR_TM0_2[0]
  26  0020  0A03        	sub a,3
  26  0021  390A        	snz z
  26  0022  2800     R  	jmp _L1
  26  0023  0F07        	mov a,7
  26  0024  0080     E  	mov ra,a
  26  0025  0F01        	mov a,1
  26  0026  0080     E  	mov rd,a
  26  0027  2800     R  	jmp _L22
  26  0028              _L5:
  26  0028  0F07        	mov a,7
  26  0029  0080     E  	mov rf,a
  26  002A  1F00     E  	clr ra
  26  002B              _L10:
  30  002B              #line 30 "k:\55555555555555\test\saier-a600n-2260-usa4g-aal-bg95-ui-v1.0-6\isr.c"
  30  002B  0700     E  	mov a,ra
  30  002C  0080     E  	mov rb,a
  30  002D  1F00     E  	clr rc
  30  002E  340A        	clr c
  30  002F  1A00     E  	rlca rb
  30  0030  0080     E  	mov rd,a
  30  0031  1A00     E  	rlca rc
  30  0032  0080     E  	mov re,a
  30  0033  0FF2        	mov a,low (offset _P0_ad+2)
  30  0034  0300     E  	add a,rd
  30  0035  0083        	mov mp,a
  30  0036  0F01        	mov a,high (offset _P0_ad+2)
  30  0037  1300     E  	adc a,re
  30  0038  0084        	mov sbp,a
  30  0039              	fcall _Crom2Prom
  30  0040  0080     E  	mov rd,a
  30  0041              	fcall _Crom2PromNext
  30  0048  0080     E  	mov re,a
文件：isr.c        编译器版本 HGASM 0202 页次4

  30  0049  340A        	clr c
  30  004A  1A80     E  	rlc rb
  30  004B  1A80     E  	rlc rc
  30  004C  0FF0        	mov a,low offset _P0_ad
  30  004D  0300     E  	add a,rb
  30  004E  0083        	mov mp,a
  30  004F  0F01        	mov a,high offset _P0_ad
  30  0050  1300     E  	adc a,rc
  30  0051  0084        	mov sbp,a
  30  0052  0700     E  	mov a,rd
  30  0053  0082        	mov ir,a
  30  0054  1483        	inc mp
  30  0055  0700     E  	mov a,re
  30  0056  0082        	mov ir,a
  28  0057              #line 28 "k:\55555555555555\test\saier-a600n-2260-usa4g-aal-bg95-ui-v1.0-6\isr.c"
  28  0057  1480     E  	inc ra
  28  0058  1780     E  	sdz rf
  28  0059  2800     R  	jmp _L10
  32  005A              #line 32 "k:\55555555555555\test\saier-a600n-2260-usa4g-aal-bg95-ui-v1.0-6\isr.c"
  32  005A  0F04        	mov a,4
  32  005B              	fcall _Samlpe_Adc
  32  0062  0700     E  	mov a,ra
  32  0063  C0FE 0001   	lmov [510],a
  32  0065  0700     E  	mov a,rb
  32  0066  C0FF 0001   	lmov [511],a
  32  0068  2800     R  	jmp _L42
  32  0069              _L6:
  35  0069              #line 35 "k:\55555555555555\test\saier-a600n-2260-usa4g-aal-bg95-ui-v1.0-6\isr.c"
  35  0069  DF6E 0003   	lclr [1006]
  35  006B  DF6F 0003   	lclr [1007]
  35  006D  0F08        	mov a,8
  35  006E  0080     E  	mov ra,a
  36  006F              #line 36 "k:\55555555555555\test\saier-a600n-2260-usa4g-aal-bg95-ui-v1.0-6\isr.c"
  36  006F  1F00     E  	clr rd
  36  0070              _L12:
  38  0070              #line 38 "k:\55555555555555\test\saier-a600n-2260-usa4g-aal-bg95-ui-v1.0-6\isr.c"
  38  0070  0700     E  	mov a,rd
  38  0071  0080     E  	mov rb,a
  38  0072  1F00     E  	clr rc
  38  0073  340A        	clr c
  38  0074  1A80     E  	rlc rb
  38  0075  1A80     E  	rlc rc
  38  0076  0FF0        	mov a,low offset _P0_ad
  38  0077  0300     E  	add a,rb
  38  0078  0083        	mov mp,a
  38  0079  0F01        	mov a,high offset _P0_ad
  38  007A  1300     E  	adc a,rc
  38  007B  0084        	mov sbp,a
  38  007C              	fcall _Crom2Prom
  38  0083  0080     E  	mov rb,a
  38  0084              	fcall _Crom2PromNext
  38  008B  0080     E  	mov rc,a
  38  008C  0700     E  	mov a,rb
  38  008D  C3EE 0003   	laddm a,[1006]
  38  008F  0700     E  	mov a,rc
  38  0090  D3EF 0003   	ladcm a,[1007]
  36  0092              #line 36 "k:\55555555555555\test\saier-a600n-2260-usa4g-aal-bg95-ui-v1.0-6\isr.c"
  36  0092  1480     E  	inc rd
  36  0093  1780     E  	sdz ra
  36  0094  2800     R  	jmp _L12
文件：isr.c        编译器版本 HGASM 0202 页次5

  40  0095              #line 40 "k:\55555555555555\test\saier-a600n-2260-usa4g-aal-bg95-ui-v1.0-6\isr.c"
  40  0095  0F03        	mov a,3
  40  0096              _LI1:
  40  0096  340A        	clr c
  40  0097  DBEF 0003   	lrrc [1007]
  40  0099  DBEE 0003   	lrrc [1006]
  40  009B  1785        	sdz acc
  40  009C  2800     R  	jmp _LI1
  43  009D              #line 43 "k:\55555555555555\test\saier-a600n-2260-usa4g-aal-bg95-ui-v1.0-6\isr.c"
  43  009D  1F00     E  	clr _pres_avl[0]
  43  009E  1F00     E  	clr _pres_avl[1]
  44  009F              #line 44 "k:\55555555555555\test\saier-a600n-2260-usa4g-aal-bg95-ui-v1.0-6\isr.c"
  44  009F  C766 0003   	lmov a,[998]
  44  00A1  C26E 0003   	lsub a,[1006]
  44  00A3  C767 0003   	lmov a,[999]
  44  00A5  D26F 0003   	lsbc a,[1007]
  44  00A7  380A        	snz c
  44  00A8  2800     R  	jmp _L13
  46  00A9              #line 46 "k:\55555555555555\test\saier-a600n-2260-usa4g-aal-bg95-ui-v1.0-6\isr.c"
  46  00A9  1F00     E  	clr _pres_avl[0]
  46  00AA  1F00     E  	clr _pres_avl[1]
  46  00AB  2800     R  	jmp _L14
  46  00AC              _L13:
  48  00AC              #line 48 "k:\55555555555555\test\saier-a600n-2260-usa4g-aal-bg95-ui-v1.0-6\isr.c"
  48  00AC  C764 0003   	lmov a,[996]
  48  00AE  C26E 0003   	lsub a,[1006]
  48  00B0  C765 0003   	lmov a,[997]
  48  00B2  D26F 0003   	lsbc a,[1007]
  48  00B4  380A        	snz c
  48  00B5  2800     R  	jmp _L15
  50  00B6              #line 50 "k:\55555555555555\test\saier-a600n-2260-usa4g-aal-bg95-ui-v1.0-6\isr.c"
  50  00B6  C76E 0003   	lmov a,[1006]
  50  00B8  C266 0003   	lsub a,[998]
  50  00BA  0080     E  	mov ra,a
  50  00BB  C76F 0003   	lmov a,[1007]
  50  00BD  D267 0003   	lsbc a,[999]
  50  00BF  0080     E  	mov rb,a
  50  00C0  0700     E  	mov a,ra
  50  00C1  0080     E  	mov _pres_avl[0],a
  50  00C2  0700     E  	mov a,rb
  50  00C3  0080     E  	mov _pres_avl[1],a
  51  00C4              #line 51 "k:\55555555555555\test\saier-a600n-2260-usa4g-aal-bg95-ui-v1.0-6\isr.c"
  51  00C4  0700     E  	mov a,_pres_avl[0]  
  51  00C5  0080     E  	mov _builtin_holtek_mulhi3_2[0],a  
  51  00C6  0700     E  	mov a,_pres_avl[1]  
  51  00C7  0080     E  	mov _builtin_holtek_mulhi3_2[1],a
  51  00C8  0F64        	mov a,100  
  51  00C9  0080     E  	mov _builtin_holtek_mulhi3_2[2],a  
  51  00CA  1F00     E  	clr _builtin_holtek_mulhi3_2[3]
  51  00CB              	fcall _builtin_holtek_mulhi3
  51  00D2  0700     E  	mov a,_builtin_holtek_mulhi3_2[4]  
  51  00D3  0080     E  	mov _pres_avl[0],a  
  51  00D4  0700     E  	mov a,_builtin_holtek_mulhi3_2[5]  
  51  00D5  0080     E  	mov _pres_avl[1],a
  52  00D6              #line 52 "k:\55555555555555\test\saier-a600n-2260-usa4g-aal-bg95-ui-v1.0-6\isr.c"
  52  00D6  C764 0003   	lmov a,[996]
  52  00D8  C266 0003   	lsub a,[998]
  52  00DA  0080     E  	mov rd,a
  52  00DB  C765 0003   	lmov a,[997]
  52  00DD  D267 0003   	lsbc a,[999]
文件：isr.c        编译器版本 HGASM 0202 页次6

  52  00DF  0080     E  	mov re,a
  52  00E0  1F00     E  	clr _builtin_holtek_udivmodhi4_2[6]
  52  00E1  0700     E  	mov a,_pres_avl[0]  
  52  00E2  0080     E  	mov _builtin_holtek_udivmodhi4_2[0],a  
  52  00E3  0700     E  	mov a,_pres_avl[1]  
  52  00E4  0080     E  	mov _builtin_holtek_udivmodhi4_2[1],a
  52  00E5  0700     E  	mov a,rd  
  52  00E6  0080     E  	mov _builtin_holtek_udivmodhi4_2[2],a  
  52  00E7  0700     E  	mov a,re  
  52  00E8  0080     E  	mov _builtin_holtek_udivmodhi4_2[3],a
  52  00E9              	fcall _builtin_holtek_udivmodhi4
  52  00F0  0700     E  	mov a,_builtin_holtek_udivmodhi4_2[0]  
  52  00F1  0080     E  	mov _pres_avl[0],a  
  52  00F2  0700     E  	mov a,_builtin_holtek_udivmodhi4_2[1]  
  52  00F3  0080     E  	mov _pres_avl[1],a
  52  00F4  2800     R  	jmp _L14
  52  00F5              _L15:
  54  00F5              #line 54 "k:\55555555555555\test\saier-a600n-2260-usa4g-aal-bg95-ui-v1.0-6\isr.c"
  54  00F5  C762 0003   	lmov a,[994]
  54  00F7  C26E 0003   	lsub a,[1006]
  54  00F9  C763 0003   	lmov a,[995]
  54  00FB  D26F 0003   	lsbc a,[1007]
  54  00FD  380A        	snz c
  54  00FE  2800     R  	jmp _L16
  56  00FF              #line 56 "k:\55555555555555\test\saier-a600n-2260-usa4g-aal-bg95-ui-v1.0-6\isr.c"
  56  00FF  C76E 0003   	lmov a,[1006]
  56  0101  C264 0003   	lsub a,[996]
  56  0103  0080     E  	mov ra,a
  56  0104  C76F 0003   	lmov a,[1007]
  56  0106  D265 0003   	lsbc a,[997]
  56  0108  0080     E  	mov rb,a
  56  0109  0700     E  	mov a,ra
  56  010A  0080     E  	mov _pres_avl[0],a
  56  010B  0700     E  	mov a,rb
  56  010C  0080     E  	mov _pres_avl[1],a
  57  010D              #line 57 "k:\55555555555555\test\saier-a600n-2260-usa4g-aal-bg95-ui-v1.0-6\isr.c"
  57  010D  0700     E  	mov a,_pres_avl[0]  
  57  010E  0080     E  	mov _builtin_holtek_mulhi3_2[0],a  
  57  010F  0700     E  	mov a,_pres_avl[1]  
  57  0110  0080     E  	mov _builtin_holtek_mulhi3_2[1],a
  57  0111  0F64        	mov a,100  
  57  0112  0080     E  	mov _builtin_holtek_mulhi3_2[2],a  
  57  0113  1F00     E  	clr _builtin_holtek_mulhi3_2[3]
  57  0114              	fcall _builtin_holtek_mulhi3
  57  011B  0700     E  	mov a,_builtin_holtek_mulhi3_2[4]  
  57  011C  0080     E  	mov _pres_avl[0],a  
  57  011D  0700     E  	mov a,_builtin_holtek_mulhi3_2[5]  
  57  011E  0080     E  	mov _pres_avl[1],a
  58  011F              #line 58 "k:\55555555555555\test\saier-a600n-2260-usa4g-aal-bg95-ui-v1.0-6\isr.c"
  58  011F  C762 0003   	lmov a,[994]
  58  0121  C264 0003   	lsub a,[996]
  58  0123  0080     E  	mov rd,a
  58  0124  C763 0003   	lmov a,[995]
  58  0126  D265 0003   	lsbc a,[997]
  58  0128  0080     E  	mov re,a
  58  0129  1F00     E  	clr _builtin_holtek_udivmodhi4_2[6]
  58  012A  0700     E  	mov a,_pres_avl[0]  
  58  012B  0080     E  	mov _builtin_holtek_udivmodhi4_2[0],a  
  58  012C  0700     E  	mov a,_pres_avl[1]  
  58  012D  0080     E  	mov _builtin_holtek_udivmodhi4_2[1],a
文件：isr.c        编译器版本 HGASM 0202 页次7

  58  012E  0700     E  	mov a,rd  
  58  012F  0080     E  	mov _builtin_holtek_udivmodhi4_2[2],a  
  58  0130  0700     E  	mov a,re  
  58  0131  0080     E  	mov _builtin_holtek_udivmodhi4_2[3],a
  58  0132              	fcall _builtin_holtek_udivmodhi4
  58  0139  0700     E  	mov a,_builtin_holtek_udivmodhi4_2[0]  
  58  013A  0080     E  	mov _pres_avl[0],a  
  58  013B  0700     E  	mov a,_builtin_holtek_udivmodhi4_2[1]  
  58  013C  0080     E  	mov _pres_avl[1],a
  59  013D              #line 59 "k:\55555555555555\test\saier-a600n-2260-usa4g-aal-bg95-ui-v1.0-6\isr.c"
  59  013D  0F64        	mov a,100
  59  013E  0380     E  	addm a,_pres_avl[0]
  59  013F  0F00        	mov a,0
  59  0140  1380     E  	adcm a,_pres_avl[1]
  59  0141  2800     R  	jmp _L14
  59  0142              _L16:
  61  0142              #line 61 "k:\55555555555555\test\saier-a600n-2260-usa4g-aal-bg95-ui-v1.0-6\isr.c"
  61  0142  C760 0003   	lmov a,[992]
  61  0144  C26E 0003   	lsub a,[1006]
  61  0146  C761 0003   	lmov a,[993]
  61  0148  D26F 0003   	lsbc a,[1007]
  61  014A  380A        	snz c
  61  014B  2800     R  	jmp _L17
  63  014C              #line 63 "k:\55555555555555\test\saier-a600n-2260-usa4g-aal-bg95-ui-v1.0-6\isr.c"
  63  014C  C76E 0003   	lmov a,[1006]
  63  014E  C262 0003   	lsub a,[994]
  63  0150  0080     E  	mov ra,a
  63  0151  C76F 0003   	lmov a,[1007]
  63  0153  D263 0003   	lsbc a,[995]
  63  0155  0080     E  	mov rb,a
  63  0156  0700     E  	mov a,ra
  63  0157  0080     E  	mov _pres_avl[0],a
  63  0158  0700     E  	mov a,rb
  63  0159  0080     E  	mov _pres_avl[1],a
  64  015A              #line 64 "k:\55555555555555\test\saier-a600n-2260-usa4g-aal-bg95-ui-v1.0-6\isr.c"
  64  015A  0700     E  	mov a,_pres_avl[0]  
  64  015B  0080     E  	mov _builtin_holtek_mulhi3_2[0],a  
  64  015C  0700     E  	mov a,_pres_avl[1]  
  64  015D  0080     E  	mov _builtin_holtek_mulhi3_2[1],a
  64  015E  0F64        	mov a,100  
  64  015F  0080     E  	mov _builtin_holtek_mulhi3_2[2],a  
  64  0160  1F00     E  	clr _builtin_holtek_mulhi3_2[3]
  64  0161              	fcall _builtin_holtek_mulhi3
  64  0168  0700     E  	mov a,_builtin_holtek_mulhi3_2[4]  
  64  0169  0080     E  	mov _pres_avl[0],a  
  64  016A  0700     E  	mov a,_builtin_holtek_mulhi3_2[5]  
  64  016B  0080     E  	mov _pres_avl[1],a
  65  016C              #line 65 "k:\55555555555555\test\saier-a600n-2260-usa4g-aal-bg95-ui-v1.0-6\isr.c"
  65  016C  C760 0003   	lmov a,[992]
  65  016E  C262 0003   	lsub a,[994]
  65  0170  0080     E  	mov rd,a
  65  0171  C761 0003   	lmov a,[993]
  65  0173  D263 0003   	lsbc a,[995]
  65  0175  0080     E  	mov re,a
  65  0176  1F00     E  	clr _builtin_holtek_udivmodhi4_2[6]
  65  0177  0700     E  	mov a,_pres_avl[0]  
  65  0178  0080     E  	mov _builtin_holtek_udivmodhi4_2[0],a  
  65  0179  0700     E  	mov a,_pres_avl[1]  
  65  017A  0080     E  	mov _builtin_holtek_udivmodhi4_2[1],a
  65  017B  0700     E  	mov a,rd  
文件：isr.c        编译器版本 HGASM 0202 页次8

  65  017C  0080     E  	mov _builtin_holtek_udivmodhi4_2[2],a  
  65  017D  0700     E  	mov a,re  
  65  017E  0080     E  	mov _builtin_holtek_udivmodhi4_2[3],a
  65  017F              	fcall _builtin_holtek_udivmodhi4
  65  0186  0700     E  	mov a,_builtin_holtek_udivmodhi4_2[0]  
  65  0187  0080     E  	mov _pres_avl[0],a  
  65  0188  0700     E  	mov a,_builtin_holtek_udivmodhi4_2[1]  
  65  0189  0080     E  	mov _pres_avl[1],a
  66  018A              #line 66 "k:\55555555555555\test\saier-a600n-2260-usa4g-aal-bg95-ui-v1.0-6\isr.c"
  66  018A  0FC8        	mov a,200
  66  018B  0380     E  	addm a,_pres_avl[0]
  66  018C  0F00        	mov a,0
  66  018D  1380     E  	adcm a,_pres_avl[1]
  67  018E              #line 67 "k:\55555555555555\test\saier-a600n-2260-usa4g-aal-bg95-ui-v1.0-6\isr.c"
  67  018E  0F27        	mov a,39
  67  018F  0200     E  	sub a,_pres_avl[0]
  67  0190  0F01        	mov a,1
  67  0191  1200     E  	sbc a,_pres_avl[1]
  67  0192  3C0A        	sz c
  67  0193  2800     R  	jmp _L14
  67  0194  2800     R  	jmp _L41
  67  0195              _L17:
  74  0195              #line 74 "k:\55555555555555\test\saier-a600n-2260-usa4g-aal-bg95-ui-v1.0-6\isr.c"
  74  0195  0F2B        	mov a,43
  74  0196  0080     E  	mov _pres_avl[0],a
  74  0197  0F01        	mov a,1
  74  0198  0080     E  	mov _pres_avl[1],a
  74  0199              _L41:
  75  0199              #line 75 "k:\55555555555555\test\saier-a600n-2260-usa4g-aal-bg95-ui-v1.0-6\isr.c"
  75  0199  D4DA 0003   	linc [986]
  75  019B              _L14:
  77  019B              #line 77 "k:\55555555555555\test\saier-a600n-2260-usa4g-aal-bg95-ui-v1.0-6\isr.c"
  77  019B  0F03        	mov a,3
  77  019C  C25A 0003   	lsub a,[986]
  77  019E  3C0A        	sz c
  77  019F  2800     R  	jmp _L42
  79  01A0              #line 79 "k:\55555555555555\test\saier-a600n-2260-usa4g-aal-bg95-ui-v1.0-6\isr.c"
  79  01A0  3000     E  	set _MODEFLAG[0].2
  79  01A1  2800     R  	jmp _L42
  79  01A2              _L7:
  26  01A2              #line 26 "k:\55555555555555\test\saier-a600n-2260-usa4g-aal-bg95-ui-v1.0-6\isr.c"
  26  01A2  0F07        	mov a,7
  26  01A3  0080     E  	mov rf,a
  26  01A4  1F00     E  	clr ra
  26  01A5              _L20:
  85  01A5              #line 85 "k:\55555555555555\test\saier-a600n-2260-usa4g-aal-bg95-ui-v1.0-6\isr.c"
  85  01A5  0700     E  	mov a,ra
  85  01A6  0080     E  	mov rb,a
  85  01A7  1F00     E  	clr rc
  85  01A8  340A        	clr c
  85  01A9  1A00     E  	rlca rb
  85  01AA  0080     E  	mov rd,a
  85  01AB  1A00     E  	rlca rc
  85  01AC  0080     E  	mov re,a
  85  01AD  0FF2        	mov a,low (offset _P1_ad+2)
  85  01AE  0300     E  	add a,rd
  85  01AF  0083        	mov mp,a
  85  01B0  0F02        	mov a,high (offset _P1_ad+2)
  85  01B1  1300     E  	adc a,re
  85  01B2  0084        	mov sbp,a
文件：isr.c        编译器版本 HGASM 0202 页次9

  85  01B3              	fcall _Crom2Prom
  85  01BA  0080     E  	mov rd,a
  85  01BB              	fcall _Crom2PromNext
  85  01C2  0080     E  	mov re,a
  85  01C3  340A        	clr c
  85  01C4  1A80     E  	rlc rb
  85  01C5  1A80     E  	rlc rc
  85  01C6  0FF0        	mov a,low offset _P1_ad
  85  01C7  0300     E  	add a,rb
  85  01C8  0083        	mov mp,a
  85  01C9  0F02        	mov a,high offset _P1_ad
  85  01CA  1300     E  	adc a,rc
  85  01CB  0084        	mov sbp,a
  85  01CC  0700     E  	mov a,rd
  85  01CD  0082        	mov ir,a
  85  01CE  1483        	inc mp
  85  01CF  0700     E  	mov a,re
  85  01D0  0082        	mov ir,a
  83  01D1              #line 83 "k:\55555555555555\test\saier-a600n-2260-usa4g-aal-bg95-ui-v1.0-6\isr.c"
  83  01D1  1480     E  	inc ra
  83  01D2  1780     E  	sdz rf
  83  01D3  2800     R  	jmp _L20
  87  01D4              #line 87 "k:\55555555555555\test\saier-a600n-2260-usa4g-aal-bg95-ui-v1.0-6\isr.c"
  87  01D4  0F05        	mov a,5
  87  01D5              	fcall _Samlpe_Adc
  87  01DC  340A        	clr c
  87  01DD  1B80     E  	rrc rb
  87  01DE  1B80     E  	rrc ra
  87  01DF  340A        	clr c
  87  01E0  1B80     E  	rrc rb
  87  01E1  1B80     E  	rrc ra
  87  01E2  0700     E  	mov a,ra
  87  01E3  C0FE 0002   	lmov [766],a
  87  01E5  0700     E  	mov a,rb
  87  01E6  C0FF 0002   	lmov [767],a
  87  01E8              _L42:
  89  01E8              #line 89 "k:\55555555555555\test\saier-a600n-2260-usa4g-aal-bg95-ui-v1.0-6\isr.c"
  89  01E8  D4DB 0003   	linc [987]
  90  01EA              #line 90 "k:\55555555555555\test\saier-a600n-2260-usa4g-aal-bg95-ui-v1.0-6\isr.c"
  90  01EA  2800     R  	jmp _L1
  90  01EB              _L22:
  94  01EB              #line 94 "k:\55555555555555\test\saier-a600n-2260-usa4g-aal-bg95-ui-v1.0-6\isr.c"
  94  01EB  0700     E  	mov a,rd
  94  01EC  0080     E  	mov rb,a
  94  01ED  1F00     E  	clr rc
  94  01EE  340A        	clr c
  94  01EF  1A80     E  	rlc rb
  94  01F0  1A80     E  	rlc rc
  94  01F1  0FF0        	mov a,low offset _P1_ad
  94  01F2  0300     E  	add a,rb
  94  01F3  0083        	mov mp,a
  94  01F4  0F02        	mov a,high offset _P1_ad
  94  01F5  1300     E  	adc a,rc
  94  01F6  0084        	mov sbp,a
  94  01F7              	fcall _Crom2Prom
  94  01FE  0080     E  	mov rb,a
  94  01FF              	fcall _Crom2PromNext
  94  0206  0080     E  	mov rc,a
  94  0207  0700     E  	mov a,rb
  94  0208  C3F0 0002   	laddm a,[752]
文件：isr.c        编译器版本 HGASM 0202 页次10

  94  020A  0700     E  	mov a,rc
  94  020B  D3F1 0002   	ladcm a,[753]
  92  020D              #line 92 "k:\55555555555555\test\saier-a600n-2260-usa4g-aal-bg95-ui-v1.0-6\isr.c"
  92  020D  1480     E  	inc rd
  92  020E  1780     E  	sdz ra
  92  020F  2800     R  	jmp _L22
  96  0210              #line 96 "k:\55555555555555\test\saier-a600n-2260-usa4g-aal-bg95-ui-v1.0-6\isr.c"
  96  0210  0F03        	mov a,3
  96  0211              _LI2:
  96  0211  340A        	clr c
  96  0212  DBF1 0002   	lrrc [753]
  96  0214  DBF0 0002   	lrrc [752]
  96  0216  1785        	sdz acc
  96  0217  2800     R  	jmp _LI2
  97  0218              #line 97 "k:\55555555555555\test\saier-a600n-2260-usa4g-aal-bg95-ui-v1.0-6\isr.c"
  97  0218  C770 0002   	lmov a,[752]
  97  021A  0080     E  	mov rb,a
  97  021B  C771 0002   	lmov a,[753]
  97  021D  0080     E  	mov rc,a
  97  021E  0700     E  	mov a,rb
  97  021F  C0D9 0003   	lmov [985],a
  98  0221              #line 98 "k:\55555555555555\test\saier-a600n-2260-usa4g-aal-bg95-ui-v1.0-6\isr.c"
  98  0221  D4D0 0003   	linc [976]
  99  0223              #line 99 "k:\55555555555555\test\saier-a600n-2260-usa4g-aal-bg95-ui-v1.0-6\isr.c"
  99  0223  DF5B 0003   	lclr [987]
 100  0225              #line 100 "k:\55555555555555\test\saier-a600n-2260-usa4g-aal-bg95-ui-v1.0-6\isr.c"
 100  0225  D4EC 0003   	linc [1004]
 100  0227  3D0A        	sz z
 100  0228  D4ED 0003   	linc [1005]
 101  022A              #line 101 "k:\55555555555555\test\saier-a600n-2260-usa4g-aal-bg95-ui-v1.0-6\isr.c"
 101  022A  D4BC 0003   	linc [956]
 101  022C  3D0A        	sz z
 101  022D  D4BD 0003   	linc [957]
 102  022F              #line 102 "k:\55555555555555\test\saier-a600n-2260-usa4g-aal-bg95-ui-v1.0-6\isr.c"
 102  022F  D494 0003   	linc [916]
 102  0231  3D0A        	sz z
 102  0232  D495 0003   	linc [917]
 103  0234              #line 103 "k:\55555555555555\test\saier-a600n-2260-usa4g-aal-bg95-ui-v1.0-6\isr.c"
 103  0234  D4FF 0003   	linc [1023]
 104  0236              #line 104 "k:\55555555555555\test\saier-a600n-2260-usa4g-aal-bg95-ui-v1.0-6\isr.c"
 104  0236  D4B2 0003   	linc [946]
 104  0238  3D0A        	sz z
 104  0239  D4B3 0003   	linc [947]
 105  023B              #line 105 "k:\55555555555555\test\saier-a600n-2260-usa4g-aal-bg95-ui-v1.0-6\isr.c"
 105  023B  D4D5 0003   	linc [981]
 106  023D              #line 106 "k:\55555555555555\test\saier-a600n-2260-usa4g-aal-bg95-ui-v1.0-6\isr.c"
 106  023D  D4FA 0003   	linc [1018]
 108  023F              #line 108 "k:\55555555555555\test\saier-a600n-2260-usa4g-aal-bg95-ui-v1.0-6\isr.c"
 108  023F  DE1E 0003   	lsnz [926]
 108  0241  2800     R  	jmp _L23
 109  0242              #line 109 "k:\55555555555555\test\saier-a600n-2260-usa4g-aal-bg95-ui-v1.0-6\isr.c"
 109  0242  D59E 0003   	ldec [926]
 109  0244              _L23:
 110  0244              #line 110 "k:\55555555555555\test\saier-a600n-2260-usa4g-aal-bg95-ui-v1.0-6\isr.c"
 110  0244  D4A4 0003   	linc [932]
 111  0246              #line 111 "k:\55555555555555\test\saier-a600n-2260-usa4g-aal-bg95-ui-v1.0-6\isr.c"
 111  0246  0F31        	mov a,49
 111  0247  C224 0003   	lsub a,[932]
 111  0249  3C0A        	sz c
 111  024A  2800     R  	jmp _L24
文件：isr.c        编译器版本 HGASM 0202 页次11

 113  024B              #line 113 "k:\55555555555555\test\saier-a600n-2260-usa4g-aal-bg95-ui-v1.0-6\isr.c"
 113  024B  DE1D 0003   	lsnz [925]
 113  024D  2800     R  	jmp _L25
 113  024E  D59D 0003   	ldec [925]
 113  0250              _L25:
 114  0250              #line 114 "k:\55555555555555\test\saier-a600n-2260-usa4g-aal-bg95-ui-v1.0-6\isr.c"
 114  0250  DF24 0003   	lclr [932]
 114  0252              _L24:
 117  0252              #line 117 "k:\55555555555555\test\saier-a600n-2260-usa4g-aal-bg95-ui-v1.0-6\isr.c"
 117  0252  D496 0003   	linc [918]
 117  0254  3D0A        	sz z
 117  0255  D497 0003   	linc [919]
 118  0257              #line 118 "k:\55555555555555\test\saier-a600n-2260-usa4g-aal-bg95-ui-v1.0-6\isr.c"
 118  0257  C732 0003   	lmov a,[946]
 118  0259  0AD8        	sub a,216
 118  025A  C733 0003   	lmov a,[947]
 118  025C  084C        	sbc a,76
 118  025D  3B0A        	snz cz
 118  025E  2800     R  	jmp _L26
 120  025F              #line 120 "k:\55555555555555\test\saier-a600n-2260-usa4g-aal-bg95-ui-v1.0-6\isr.c"
 120  025F  3000     E  	set _MODEFLAG[0].2
 120  0260              _L26:
 138  0260              #line 138 "k:\55555555555555\test\saier-a600n-2260-usa4g-aal-bg95-ui-v1.0-6\isr.c"
 138  0260  0F07        	mov a,7
 138  0261  C255 0003   	lsub a,[981]
 138  0263  3C0A        	sz c
 138  0264  2800     R  	jmp _L27
 140  0265              #line 140 "k:\55555555555555\test\saier-a600n-2260-usa4g-aal-bg95-ui-v1.0-6\isr.c"
 140  0265  D4B4 0003   	linc [948]
 140  0267  3D0A        	sz z
 140  0268  D4B5 0003   	linc [949]
 141  026A              #line 141 "k:\55555555555555\test\saier-a600n-2260-usa4g-aal-bg95-ui-v1.0-6\isr.c"
 141  026A  0F18        	mov a,24
 141  026B  C234 0003   	lsub a,[948]
 141  026D  0F01        	mov a,1
 141  026E  D235 0003   	lsbc a,[949]
 141  0270  3C0A        	sz c
 141  0271  2800     R  	jmp _L28
 143  0272              #line 143 "k:\55555555555555\test\saier-a600n-2260-usa4g-aal-bg95-ui-v1.0-6\isr.c"
 143  0272  0F18        	mov a,24
 143  0273  C0B4 0003   	lmov [948],a
 143  0275  0F01        	mov a,1
 143  0276  C0B5 0003   	lmov [949],a
 143  0278              _L28:
 145  0278              #line 145 "k:\55555555555555\test\saier-a600n-2260-usa4g-aal-bg95-ui-v1.0-6\isr.c"
 145  0278  DF55 0003   	lclr [981]
 145  027A              _L27:
 147  027A              #line 147 "k:\55555555555555\test\saier-a600n-2260-usa4g-aal-bg95-ui-v1.0-6\isr.c"
 147  027A  0F01        	mov a,1
 147  027B  C27A 0003   	lsub a,[1018]
 147  027D  3C0A        	sz c
 147  027E  2800     R  	jmp _L1
 149  027F              #line 149 "k:\55555555555555\test\saier-a600n-2260-usa4g-aal-bg95-ui-v1.0-6\isr.c"
 149  027F  0F13        	mov a,19
 149  0280  0200     E  	sub a,_pres_avl[0]
 149  0281  0F00        	mov a,0
 149  0282  1200     E  	sbc a,_pres_avl[1]
 149  0283  380A        	snz c
 149  0284  2800     R  	jmp _L30
 151  0285              #line 151 "k:\55555555555555\test\saier-a600n-2260-usa4g-aal-bg95-ui-v1.0-6\isr.c"
文件：isr.c        编译器版本 HGASM 0202 页次12

 151  0285  D4BE 0003   	linc [958]
 151  0287  3D0A        	sz z
 151  0288  D4BF 0003   	linc [959]
 151  028A              _L30:
 153  028A              #line 153 "k:\55555555555555\test\saier-a600n-2260-usa4g-aal-bg95-ui-v1.0-6\isr.c"
 153  028A  DF7A 0003   	lclr [1018]
 154  028C              #line 154 "k:\55555555555555\test\saier-a600n-2260-usa4g-aal-bg95-ui-v1.0-6\isr.c"
 154  028C  C734 0003   	lmov a,[948]
 154  028E  0200     E  	sub a,_pres_avl[0]
 154  028F  C735 0003   	lmov a,[949]
 154  0291  1200     E  	sbc a,_pres_avl[1]
 154  0292  380A        	snz c
 154  0293  2800     R  	jmp _L1
 156  0294              #line 156 "k:\55555555555555\test\saier-a600n-2260-usa4g-aal-bg95-ui-v1.0-6\isr.c"
 156  0294  D4BE 0003   	linc [958]
 156  0296  3D0A        	sz z
 156  0297  D4BF 0003   	linc [959]
 157  0299              #line 157 "k:\55555555555555\test\saier-a600n-2260-usa4g-aal-bg95-ui-v1.0-6\isr.c"
 157  0299  C734 0003   	lmov a,[948]
 157  029B  0200     E  	sub a,_pres_avl[0]
 157  029C  0080     E  	mov rd,a
 157  029D  C735 0003   	lmov a,[949]
 157  029F  1200     E  	sbc a,_pres_avl[1]
 157  02A0  0080     E  	mov re,a
 157  02A1  0F14        	mov a,20
 157  02A2  0200     E  	sub a,rd
 157  02A3  0F00        	mov a,0
 157  02A4  1200     E  	sbc a,re
 157  02A5  3C0A        	sz c
 157  02A6  2800     R  	jmp _L31
 159  02A7              #line 159 "k:\55555555555555\test\saier-a600n-2260-usa4g-aal-bg95-ui-v1.0-6\isr.c"
 159  02A7  0FE7        	mov a,231
 159  02A8  C3B4 0003   	laddm a,[948]
 159  02AA  0FFF        	mov a,255
 159  02AB  D3B5 0003   	ladcm a,[949]
 159  02AD              _L31:
 161  02AD              #line 161 "k:\55555555555555\test\saier-a600n-2260-usa4g-aal-bg95-ui-v1.0-6\isr.c"
 161  02AD  0F96        	mov a,150
 161  02AE  0200     E  	sub a,_pres_avl[0]
 161  02AF  0F00        	mov a,0
 161  02B0  1200     E  	sbc a,_pres_avl[1]
 161  02B1  3C0A        	sz c
 161  02B2  2800     R  	jmp _L1
 163  02B3              #line 163 "k:\55555555555555\test\saier-a600n-2260-usa4g-aal-bg95-ui-v1.0-6\isr.c"
 163  02B3  D4BE 0003   	linc [958]
 163  02B5  3D0A        	sz z
 163  02B6  D4BF 0003   	linc [959]
 163  02B8              _L1:
 163  02B8  0700     E  	mov a,r2
 163  02B9  008B        	mov bp,a
 163  02BA  0700     E  	mov a,r3
 163  02BB  008A        	mov status,a
 163  02BC  0700     E  	mov a,r4
 163  02BD  0083        	mov mp,a
 163  02BE  0700     E  	mov a,r5
 163  02BF  0084        	mov sbp,a
 163  02C0  0700     E  	mov a,r6
 163  02C1  0087        	mov tblp,a
 163  02C2  0700     E  	mov a,r7
 163  02C3  0089        	mov tbhp,a
文件：isr.c        编译器版本 HGASM 0202 页次13

 163  02C4  1D05        	tabrdc acc
 163  02C5  0700     E  	mov a,r1
 163  02C6  0004        	reti
 163  02C7              _ISR_TM0 endp
 163  02C7              
 163  02C7              #line 163 "k:\55555555555555\test\saier-a600n-2260-usa4g-aal-bg95-ui-v1.0-6\isr.c"
 163  02C7              #pragma debug scope 1 1
 163  02C7              ___u0sr equ [47]
 163  02C7              ___txr_rxr0 equ [50]
 163  02C7              public _UART_ISR
 163  02C7              #pragma debug scope 4 1
 193  02C7              #line 193 "k:\55555555555555\test\saier-a600n-2260-usa4g-aal-bg95-ui-v1.0-6\isr.c"
 193  02C7              rombank 0 @UART_ISR_code
 193  0000              @UART_ISR_code .section at 40 'code'
 193  0000  0080     E  	mov r1,a
 193  0001  070B        	mov a,bp
 193  0002  1F0B        	clr bp
 193  0003  2800     R  	jmp _UART_ISR
 193  0004              ROMBANK 0 _UART_ISR
 193  0004              #pragma debug scope 1 1
 193  0004              @dummy40 endp
 193  0004              #pragma debug scope 5 1
 193  0000              _UART_ISR .section 'code'
 193  0000              _UART_ISR proc
 193  0000  0080     E  	mov r2,a
 193  0001  070A        	mov a, status
 193  0002  0080     E  	mov r3,a
 196  0003              #line 196 "k:\55555555555555\test\saier-a600n-2260-usa4g-aal-bg95-ui-v1.0-6\isr.c"
 196  0003  3FAF        	sz [47].7
 196  0004  2800     R  	jmp _L45
 196  0005              #line 196 "k:\55555555555555\test\saier-a600n-2260-usa4g-aal-bg95-ui-v1.0-6\isr.c"
 196  0005  3F2F        	sz [47].6
 196  0006  2800     R  	jmp _L45
 196  0007  3EAF        	sz [47].5
 196  0008  2800     R  	jmp _L45
 196  0009  3A2F        	snz [47].4
 196  000A  2800     R  	jmp _L46
 196  000B              _L45:
 198  000B              #line 198 "k:\55555555555555\test\saier-a600n-2260-usa4g-aal-bg95-ui-v1.0-6\isr.c"
 198  000B  072F        	mov a,[47]
 198  000C  0080     E  	mov ra,a
 199  000D              #line 199 "k:\55555555555555\test\saier-a600n-2260-usa4g-aal-bg95-ui-v1.0-6\isr.c"
 199  000D  0732        	mov a,[50]
 199  000E  0080     E  	mov ra,a
 199  000F  2800     R  	jmp _L44
 199  0010              _L46:
 205  0010              #line 205 "k:\55555555555555\test\saier-a600n-2260-usa4g-aal-bg95-ui-v1.0-6\isr.c"
 205  0010  392F        	snz [47].2
 205  0011  2800     R  	jmp _L48
 207  0012              #line 207 "k:\55555555555555\test\saier-a600n-2260-usa4g-aal-bg95-ui-v1.0-6\isr.c"
 207  0012  3000     E  	set _gu8v_uart_flag[0].7
 208  0013              #line 208 "k:\55555555555555\test\saier-a600n-2260-usa4g-aal-bg95-ui-v1.0-6\isr.c"
 208  0013  352F        	clr [47].2
 210  0014              #line 210 "k:\55555555555555\test\saier-a600n-2260-usa4g-aal-bg95-ui-v1.0-6\isr.c"
 210  0014              ;# 210 "k:\55555555555555\test\saier-a600n-2260-usa4g-aal-bg95-ui-v1.0-6\isr.c" 1
 210  0014  0000        	nop
 210  0015              _L48:
 212  0015              #line 212 "k:\55555555555555\test\saier-a600n-2260-usa4g-aal-bg95-ui-v1.0-6\isr.c"
 212  0015  382F        	snz [47].0
 212  0016  2800     R  	jmp _L44
文件：isr.c        编译器版本 HGASM 0202 页次14

 214  0017              #line 214 "k:\55555555555555\test\saier-a600n-2260-usa4g-aal-bg95-ui-v1.0-6\isr.c"
 214  0017  3000     E  	set _gu8v_uart_flag[0].6
 215  0018              #line 215 "k:\55555555555555\test\saier-a600n-2260-usa4g-aal-bg95-ui-v1.0-6\isr.c"
 215  0018  342F        	clr [47].0
 215  0019              _L44:
 215  0019  0700     E  	mov a,r2
 215  001A  008B        	mov bp,a
 215  001B  0700     E  	mov a,r3
 215  001C  008A        	mov status,a
 215  001D  0700     E  	mov a,r1
 215  001E  0004        	reti
 215  001F              _UART_ISR endp
 215  001F              
 215  001F              #line 215 "k:\55555555555555\test\saier-a600n-2260-usa4g-aal-bg95-ui-v1.0-6\isr.c"
 215  001F              #pragma debug scope 1 1
 215  001F              public _ISR_TM1
 215  001F              #pragma debug scope 6 1
 227  001F              #line 227 "k:\55555555555555\test\saier-a600n-2260-usa4g-aal-bg95-ui-v1.0-6\isr.c"
 227  001F              rombank 0 @ISR_TM1_code
 227  0000              @ISR_TM1_code .section at 12 'code'
 227  0000              _ISR_TM1:
 227  0000  0004        	reti
 227  0001              #line 227 "k:\55555555555555\test\saier-a600n-2260-usa4g-aal-bg95-ui-v1.0-6\isr.c"
 227  0001              #pragma debug scope 1 1
 227  0001              ___intc2 equ [34]
 227  0001              public _ISR_TB0
 227  0001              #pragma debug scope 7 1
 233  0001              #line 233 "k:\55555555555555\test\saier-a600n-2260-usa4g-aal-bg95-ui-v1.0-6\isr.c"
 233  0001              rombank 0 @ISR_TB0_code
 233  0000              @ISR_TB0_code .section at 32 'code'
 233  0000  0080     E  	mov r1,a
 233  0001  070B        	mov a,bp
 233  0002  1F0B        	clr bp
 233  0003  2800     R  	jmp _ISR_TB0
 233  0004              ROMBANK 0 _ISR_TB0
 233  0004              #pragma debug scope 1 1
 233  0004              @dummy32 endp
 233  0004              #pragma debug scope 8 1
 233  0000              _ISR_TB0 .section 'code'
 233  0000              _ISR_TB0 proc
 233  0000  0080     E  	mov r2,a
 233  0001  070A        	mov a, status
 233  0002  0080     E  	mov r3,a
 233  0003  0703        	mov a,mp
 233  0004  0080     E  	mov r4,a
 233  0005  0704        	mov a,sbp
 233  0006  0080     E  	mov r5,a
 233  0007  0707        	mov a,tblp
 233  0008  0080     E  	mov r6,a
 233  0009  0709        	mov a,tbhp
 233  000A  0080     E  	mov r7,a
 234  000B              #line 234 "k:\55555555555555\test\saier-a600n-2260-usa4g-aal-bg95-ui-v1.0-6\isr.c"
 234  000B  3622        	clr [34].4
 235  000C              #line 235 "k:\55555555555555\test\saier-a600n-2260-usa4g-aal-bg95-ui-v1.0-6\isr.c"
 235  000C  3000     E  	set _gu8v_uart_flag[0].2
 236  000D              #line 236 "k:\55555555555555\test\saier-a600n-2260-usa4g-aal-bg95-ui-v1.0-6\isr.c"
 236  000D  1480     E  	inc _R_10ms_COUNT[0]
 237  000E              #line 237 "k:\55555555555555\test\saier-a600n-2260-usa4g-aal-bg95-ui-v1.0-6\isr.c"
 237  000E  0F3B        	mov a,59
 237  000F  0200     E  	sub a,_R_10ms_COUNT[0]
文件：isr.c        编译器版本 HGASM 0202 页次15

 237  0010  3C0A        	sz c
 237  0011  2800     R  	jmp _L57
 239  0012              #line 239 "k:\55555555555555\test\saier-a600n-2260-usa4g-aal-bg95-ui-v1.0-6\isr.c"
 239  0012  1F00     E  	clr _R_10ms_COUNT[0]
 239  0013              _L57:
 242  0013              #line 242 "k:\55555555555555\test\saier-a600n-2260-usa4g-aal-bg95-ui-v1.0-6\isr.c"
 242  0013              	fcall _KEYSCAN
 243  001A              #line 243 "k:\55555555555555\test\saier-a600n-2260-usa4g-aal-bg95-ui-v1.0-6\isr.c"
 243  001A  3800     E  	snz _Usflag[0].1
 243  001B  2800     R  	jmp _L58
 245  001C              #line 245 "k:\55555555555555\test\saier-a600n-2260-usa4g-aal-bg95-ui-v1.0-6\isr.c"
 245  001C  3000     E  	set _Usflag[0].2
 245  001D              _L58:
 247  001D              #line 247 "k:\55555555555555\test\saier-a600n-2260-usa4g-aal-bg95-ui-v1.0-6\isr.c"
 247  001D  3000     E  	set _Usflag[0].1
 248  001E              #line 248 "k:\55555555555555\test\saier-a600n-2260-usa4g-aal-bg95-ui-v1.0-6\isr.c"
 248  001E              ;# 248 "k:\55555555555555\test\saier-a600n-2260-usa4g-aal-bg95-ui-v1.0-6\isr.c" 1
 248  001E  0000        	nop
 248  001F  0700     E  	mov a,r2
 248  0020  008B        	mov bp,a
 248  0021  0700     E  	mov a,r3
 248  0022  008A        	mov status,a
 248  0023  0700     E  	mov a,r4
 248  0024  0083        	mov mp,a
 248  0025  0700     E  	mov a,r5
 248  0026  0084        	mov sbp,a
 248  0027  0700     E  	mov a,r6
 248  0028  0087        	mov tblp,a
 248  0029  0700     E  	mov a,r7
 248  002A  0089        	mov tbhp,a
 248  002B  1D05        	tabrdc acc
 248  002C  0700     E  	mov a,r1
 248  002D  0004        	reti
 248  002E              _ISR_TB0 endp
 248  002E              
 248  002E              #line 248 "k:\55555555555555\test\saier-a600n-2260-usa4g-aal-bg95-ui-v1.0-6\isr.c"
 248  002E              #pragma debug scope 1 1
 248  002E              _R_TIME equ [896]
 248  002E              _SEG equ [1024]
 248  002E              public _ISR_TB1
 248  002E              #pragma debug scope 9 1
 252  002E              #line 252 "k:\55555555555555\test\saier-a600n-2260-usa4g-aal-bg95-ui-v1.0-6\isr.c"
 252  002E              rombank 0 @ISR_TB1_code
 252  0000              @ISR_TB1_code .section at 36 'code'
 252  0000  0080     E  	mov r1,a
 252  0001  070B        	mov a,bp
 252  0002  1F0B        	clr bp
 252  0003  2800     R  	jmp _ISR_TB1
 252  0004              ROMBANK 0 _ISR_TB1
 252  0004              #pragma debug scope 1 1
 252  0004              @dummy36 endp
 252  0004              #pragma debug scope 10 1
 252  0000              _ISR_TB1 .section 'code'
 252  0000              _ISR_TB1 proc
 252  0000  0080     E  	mov r2,a
 252  0001  070A        	mov a, status
 252  0002  0080     E  	mov r3,a
 253  0003              #line 253 "k:\55555555555555\test\saier-a600n-2260-usa4g-aal-bg95-ui-v1.0-6\isr.c"
 253  0003  3000     E  	set _TIMERFLAG[0].2
 254  0004              #line 254 "k:\55555555555555\test\saier-a600n-2260-usa4g-aal-bg95-ui-v1.0-6\isr.c"
文件：isr.c        编译器版本 HGASM 0202 页次16

 254  0004              ;# 254 "k:\55555555555555\test\saier-a600n-2260-usa4g-aal-bg95-ui-v1.0-6\isr.c" 1
 254  0004  0001        	clr wdt1
 255  0005              #line 255 "k:\55555555555555\test\saier-a600n-2260-usa4g-aal-bg95-ui-v1.0-6\isr.c"
 255  0005              ;# 255 "k:\55555555555555\test\saier-a600n-2260-usa4g-aal-bg95-ui-v1.0-6\isr.c" 1
 255  0005  0005        	clr wdt2
 256  0006              #line 256 "k:\55555555555555\test\saier-a600n-2260-usa4g-aal-bg95-ui-v1.0-6\isr.c"
 256  0006  3000     E  	set _TIMERFLAG[0].1
 258  0007              #line 258 "k:\55555555555555\test\saier-a600n-2260-usa4g-aal-bg95-ui-v1.0-6\isr.c"
 258  0007  D485 0003   	linc [901]
 259  0009              #line 259 "k:\55555555555555\test\saier-a600n-2260-usa4g-aal-bg95-ui-v1.0-6\isr.c"
 259  0009  F805 0003   	lsnz [901].0
 259  000B  2800     R  	jmp _L64
 262  000C              #line 262 "k:\55555555555555\test\saier-a600n-2260-usa4g-aal-bg95-ui-v1.0-6\isr.c"
 262  000C  1680     E  	siz _R_TIMEOUT_SECOND[0]
 262  000D  2800     R  	jmp _L64
 265  000E              #line 265 "k:\55555555555555\test\saier-a600n-2260-usa4g-aal-bg95-ui-v1.0-6\isr.c"
 265  000E  1F80     E  	set _R_TIMEOUT_SECOND[0]
 265  000F              _L64:
 268  000F              #line 268 "k:\55555555555555\test\saier-a600n-2260-usa4g-aal-bg95-ui-v1.0-6\isr.c"
 268  000F  3800     E  	snz _MODEFLAG[0].3
 268  0010  2800     R  	jmp _L66
 271  0011              #line 271 "k:\55555555555555\test\saier-a600n-2260-usa4g-aal-bg95-ui-v1.0-6\isr.c"
 271  0011  B98A 0004   	lsnz [1034].3
 271  0013  2800     R  	jmp _L67
 273  0014              #line 273 "k:\55555555555555\test\saier-a600n-2260-usa4g-aal-bg95-ui-v1.0-6\isr.c"
 273  0014  B58A 0004   	lclr [1034].3
 273  0016  2800     R  	jmp _L66
 273  0017              _L67:
 277  0017              #line 277 "k:\55555555555555\test\saier-a600n-2260-usa4g-aal-bg95-ui-v1.0-6\isr.c"
 277  0017  B18A 0004   	lset [1034].3
 277  0019              _L66:
 281  0019              #line 281 "k:\55555555555555\test\saier-a600n-2260-usa4g-aal-bg95-ui-v1.0-6\isr.c"
 281  0019  3800     E  	snz _R_alarm_clock[0].0
 281  001A  2800     R  	jmp _L68
 283  001B              #line 283 "k:\55555555555555\test\saier-a600n-2260-usa4g-aal-bg95-ui-v1.0-6\isr.c"
 283  001B  F805 0003   	lsnz [901].0
 283  001D  2800     R  	jmp _L69
 285  001E              #line 285 "k:\55555555555555\test\saier-a600n-2260-usa4g-aal-bg95-ui-v1.0-6\isr.c"
 285  001E  B216 0004   	lset [1046].4
 285  0020  2800     R  	jmp _L68
 285  0021              _L69:
 289  0021              #line 289 "k:\55555555555555\test\saier-a600n-2260-usa4g-aal-bg95-ui-v1.0-6\isr.c"
 289  0021  B616 0004   	lclr [1046].4
 289  0023              _L68:
 293  0023              #line 293 "k:\55555555555555\test\saier-a600n-2260-usa4g-aal-bg95-ui-v1.0-6\isr.c"
 293  0023  3800     E  	snz _gu8v_uart_flag[0].5
 293  0024  2800     R  	jmp _L70
 295  0025              #line 295 "k:\55555555555555\test\saier-a600n-2260-usa4g-aal-bg95-ui-v1.0-6\isr.c"
 295  0025  F805 0003   	lsnz [901].0
 295  0027  2800     R  	jmp _L71
 297  0028              #line 297 "k:\55555555555555\test\saier-a600n-2260-usa4g-aal-bg95-ui-v1.0-6\isr.c"
 297  0028  B196 0004   	lset [1046].3
 297  002A  2800     R  	jmp _L70
 297  002B              _L71:
 301  002B              #line 301 "k:\55555555555555\test\saier-a600n-2260-usa4g-aal-bg95-ui-v1.0-6\isr.c"
 301  002B  B596 0004   	lclr [1046].3
 301  002D              _L70:
 305  002D              #line 305 "k:\55555555555555\test\saier-a600n-2260-usa4g-aal-bg95-ui-v1.0-6\isr.c"
 305  002D  3000     E  	set _R_alarm_clock[0].1
 306  002E              #line 306 "k:\55555555555555\test\saier-a600n-2260-usa4g-aal-bg95-ui-v1.0-6\isr.c"
文件：isr.c        编译器版本 HGASM 0202 页次17

 306  002E  3000     E  	set _MODEFLAG[0].0
 307  002F              #line 307 "k:\55555555555555\test\saier-a600n-2260-usa4g-aal-bg95-ui-v1.0-6\isr.c"
 307  002F  C705 0003   	lmov a,[901]
 307  0031  0A78        	sub a,120
 307  0032  390A        	snz z
 307  0033  2800     R  	jmp _L73
 310  0034              #line 310 "k:\55555555555555\test\saier-a600n-2260-usa4g-aal-bg95-ui-v1.0-6\isr.c"
 310  0034  DF05 0003   	lclr [901]
 311  0036              #line 311 "k:\55555555555555\test\saier-a600n-2260-usa4g-aal-bg95-ui-v1.0-6\isr.c"
 311  0036  D484 0003   	linc [900]
 313  0038              #line 313 "k:\55555555555555\test\saier-a600n-2260-usa4g-aal-bg95-ui-v1.0-6\isr.c"
 313  0038  C704 0003   	lmov a,[900]
 313  003A  0A3C        	sub a,60
 313  003B  390A        	snz z
 313  003C  2800     R  	jmp _L73
 315  003D              #line 315 "k:\55555555555555\test\saier-a600n-2260-usa4g-aal-bg95-ui-v1.0-6\isr.c"
 315  003D  DF04 0003   	lclr [900]
 316  003F              #line 316 "k:\55555555555555\test\saier-a600n-2260-usa4g-aal-bg95-ui-v1.0-6\isr.c"
 316  003F  D483 0003   	linc [899]
 317  0041              #line 317 "k:\55555555555555\test\saier-a600n-2260-usa4g-aal-bg95-ui-v1.0-6\isr.c"
 317  0041  C703 0003   	lmov a,[899]
 317  0043  0A18        	sub a,24
 317  0044  390A        	snz z
 317  0045  2800     R  	jmp _L73
 319  0046              #line 319 "k:\55555555555555\test\saier-a600n-2260-usa4g-aal-bg95-ui-v1.0-6\isr.c"
 319  0046  DF03 0003   	lclr [899]
 320  0048              #line 320 "k:\55555555555555\test\saier-a600n-2260-usa4g-aal-bg95-ui-v1.0-6\isr.c"
 320  0048  3000     E  	set _TIMERFLAG[0].3
 320  0049              _L73:
 324  0049              #line 324 "k:\55555555555555\test\saier-a600n-2260-usa4g-aal-bg95-ui-v1.0-6\isr.c"
 324  0049              ;# 324 "k:\55555555555555\test\saier-a600n-2260-usa4g-aal-bg95-ui-v1.0-6\isr.c" 1
 324  0049  0000        	nop
 324  004A  0700     E  	mov a,r2
 324  004B  008B        	mov bp,a
 324  004C  0700     E  	mov a,r3
 324  004D  008A        	mov status,a
 324  004E  0700     E  	mov a,r1
 324  004F  0004        	reti
 324  0050              _ISR_TB1 endp
 324  0050              
 324  0050              #line 324 "k:\55555555555555\test\saier-a600n-2260-usa4g-aal-bg95-ui-v1.0-6\isr.c"
 324  0050              #pragma debug scope 1 1
 324  0050              ___intc0 equ [32]
 324  0050              ___pa equ [20]
 324  0050              ___wdtc equ [30]
 324  0050              public _func_int0_isr
 324  0050              #pragma debug scope 11 1
 333  0050              #line 333 "k:\55555555555555\test\saier-a600n-2260-usa4g-aal-bg95-ui-v1.0-6\isr.c"
 333  0050              rombank 0 @func_int0_isr_code
 333  0000              @func_int0_isr_code .section at 4 'code'
 333  0000  0080     E  	mov r1,a
 333  0001  070B        	mov a,bp
 333  0002  1F0B        	clr bp
 333  0003  2800     R  	jmp _func_int0_isr
 333  0004              ROMBANK 0 _func_int0_isr
 333  0004              #pragma debug scope 1 1
 333  0004              @dummy4 endp
 333  0004              #pragma debug scope 12 1
 333  0000              _func_int0_isr .section 'code'
 333  0000              _func_int0_isr proc
文件：isr.c        编译器版本 HGASM 0202 页次18

 333  0000  0080     E  	mov r2,a
 333  0001  070A        	mov a, status
 333  0002  0080     E  	mov r3,a
 333  0003  0703        	mov a,mp
 333  0004  0080     E  	mov r4,a
 333  0005  0704        	mov a,sbp
 333  0006  0080     E  	mov r5,a
 333  0007  0707        	mov a,tblp
 333  0008  0080     E  	mov r6,a
 333  0009  0709        	mov a,tbhp
 333  000A  0080     E  	mov r7,a
 334  000B              #line 334 "k:\55555555555555\test\saier-a600n-2260-usa4g-aal-bg95-ui-v1.0-6\isr.c"
 334  000B  3620        	clr [32].4
 335  000C              #line 335 "k:\55555555555555\test\saier-a600n-2260-usa4g-aal-bg95-ui-v1.0-6\isr.c"
 335  000C  3C94        	sz [20].1
 335  000D  2800     R  	jmp _L84
 337  000E              #line 337 "k:\55555555555555\test\saier-a600n-2260-usa4g-aal-bg95-ui-v1.0-6\isr.c"
 337  000E              ;# 337 "k:\55555555555555\test\saier-a600n-2260-usa4g-aal-bg95-ui-v1.0-6\isr.c" 1
 337  000E  0000        	nop
 338  000F              #line 338 "k:\55555555555555\test\saier-a600n-2260-usa4g-aal-bg95-ui-v1.0-6\isr.c"
 338  000F              ;# 338 "k:\55555555555555\test\saier-a600n-2260-usa4g-aal-bg95-ui-v1.0-6\isr.c" 1
 338  000F  0000        	nop
 339  0010              #line 339 "k:\55555555555555\test\saier-a600n-2260-usa4g-aal-bg95-ui-v1.0-6\isr.c"
 339  0010              ;# 339 "k:\55555555555555\test\saier-a600n-2260-usa4g-aal-bg95-ui-v1.0-6\isr.c" 1
 339  0010  0000        	nop
 340  0011              #line 340 "k:\55555555555555\test\saier-a600n-2260-usa4g-aal-bg95-ui-v1.0-6\isr.c"
 340  0011              ;# 340 "k:\55555555555555\test\saier-a600n-2260-usa4g-aal-bg95-ui-v1.0-6\isr.c" 1
 340  0011  0000        	nop
 341  0012              #line 341 "k:\55555555555555\test\saier-a600n-2260-usa4g-aal-bg95-ui-v1.0-6\isr.c"
 341  0012              ;# 341 "k:\55555555555555\test\saier-a600n-2260-usa4g-aal-bg95-ui-v1.0-6\isr.c" 1
 341  0012  0000        	nop
 342  0013              #line 342 "k:\55555555555555\test\saier-a600n-2260-usa4g-aal-bg95-ui-v1.0-6\isr.c"
 342  0013              ;# 342 "k:\55555555555555\test\saier-a600n-2260-usa4g-aal-bg95-ui-v1.0-6\isr.c" 1
 342  0013  0000        	nop
 343  0014              #line 343 "k:\55555555555555\test\saier-a600n-2260-usa4g-aal-bg95-ui-v1.0-6\isr.c"
 343  0014              ;# 343 "k:\55555555555555\test\saier-a600n-2260-usa4g-aal-bg95-ui-v1.0-6\isr.c" 1
 343  0014  0000        	nop
 344  0015              #line 344 "k:\55555555555555\test\saier-a600n-2260-usa4g-aal-bg95-ui-v1.0-6\isr.c"
 344  0015              ;# 344 "k:\55555555555555\test\saier-a600n-2260-usa4g-aal-bg95-ui-v1.0-6\isr.c" 1
 344  0015  0000        	nop
 345  0016              #line 345 "k:\55555555555555\test\saier-a600n-2260-usa4g-aal-bg95-ui-v1.0-6\isr.c"
 345  0016              ;# 345 "k:\55555555555555\test\saier-a600n-2260-usa4g-aal-bg95-ui-v1.0-6\isr.c" 1
 345  0016  0000        	nop
 346  0017              #line 346 "k:\55555555555555\test\saier-a600n-2260-usa4g-aal-bg95-ui-v1.0-6\isr.c"
 346  0017              ;# 346 "k:\55555555555555\test\saier-a600n-2260-usa4g-aal-bg95-ui-v1.0-6\isr.c" 1
 346  0017  0000        	nop
 347  0018              #line 347 "k:\55555555555555\test\saier-a600n-2260-usa4g-aal-bg95-ui-v1.0-6\isr.c"
 347  0018              ;# 347 "k:\55555555555555\test\saier-a600n-2260-usa4g-aal-bg95-ui-v1.0-6\isr.c" 1
 347  0018  0000        	nop
 348  0019              #line 348 "k:\55555555555555\test\saier-a600n-2260-usa4g-aal-bg95-ui-v1.0-6\isr.c"
 348  0019              ;# 348 "k:\55555555555555\test\saier-a600n-2260-usa4g-aal-bg95-ui-v1.0-6\isr.c" 1
 348  0019  0000        	nop
 349  001A              #line 349 "k:\55555555555555\test\saier-a600n-2260-usa4g-aal-bg95-ui-v1.0-6\isr.c"
 349  001A              ;# 349 "k:\55555555555555\test\saier-a600n-2260-usa4g-aal-bg95-ui-v1.0-6\isr.c" 1
 349  001A  0000        	nop
 350  001B              #line 350 "k:\55555555555555\test\saier-a600n-2260-usa4g-aal-bg95-ui-v1.0-6\isr.c"
 350  001B              ;# 350 "k:\55555555555555\test\saier-a600n-2260-usa4g-aal-bg95-ui-v1.0-6\isr.c" 1
 350  001B  0000        	nop
 351  001C              #line 351 "k:\55555555555555\test\saier-a600n-2260-usa4g-aal-bg95-ui-v1.0-6\isr.c"
 351  001C              ;# 351 "k:\55555555555555\test\saier-a600n-2260-usa4g-aal-bg95-ui-v1.0-6\isr.c" 1
文件：isr.c        编译器版本 HGASM 0202 页次19

 351  001C  0000        	nop
 352  001D              #line 352 "k:\55555555555555\test\saier-a600n-2260-usa4g-aal-bg95-ui-v1.0-6\isr.c"
 352  001D              ;# 352 "k:\55555555555555\test\saier-a600n-2260-usa4g-aal-bg95-ui-v1.0-6\isr.c" 1
 352  001D  0000        	nop
 353  001E              #line 353 "k:\55555555555555\test\saier-a600n-2260-usa4g-aal-bg95-ui-v1.0-6\isr.c"
 353  001E  3C94        	sz [20].1
 353  001F  2800     R  	jmp _L84
 355  0020              #line 355 "k:\55555555555555\test\saier-a600n-2260-usa4g-aal-bg95-ui-v1.0-6\isr.c"
 355  0020  3800     E  	snz _Usflag[0].3
 355  0021  2800     R  	jmp _L86
 357  0022              #line 357 "k:\55555555555555\test\saier-a600n-2260-usa4g-aal-bg95-ui-v1.0-6\isr.c"
 357  0022  C700 0003   	lmov a,[896]
 357  0024  0080     E  	mov _EEPROM_WRITING_INT_2[0],a
 357  0025  0F0D        	mov a,13
 357  0026              	fcall _EEPROM_WRITING_INT
 358  002D              #line 358 "k:\55555555555555\test\saier-a600n-2260-usa4g-aal-bg95-ui-v1.0-6\isr.c"
 358  002D  C701 0003   	lmov a,[897]
 358  002F  0080     E  	mov _EEPROM_WRITING_INT_2[0],a
 358  0030  0F0E        	mov a,14
 358  0031              	fcall _EEPROM_WRITING_INT
 359  0038              #line 359 "k:\55555555555555\test\saier-a600n-2260-usa4g-aal-bg95-ui-v1.0-6\isr.c"
 359  0038  C702 0003   	lmov a,[898]
 359  003A  0080     E  	mov _EEPROM_WRITING_INT_2[0],a
 359  003B  0F3D        	mov a,61
 359  003C              	fcall _EEPROM_WRITING_INT
 360  0043              #line 360 "k:\55555555555555\test\saier-a600n-2260-usa4g-aal-bg95-ui-v1.0-6\isr.c"
 360  0043  C703 0003   	lmov a,[899]
 360  0045  0080     E  	mov _EEPROM_WRITING_INT_2[0],a
 360  0046  0F3E        	mov a,62
 360  0047              	fcall _EEPROM_WRITING_INT
 361  004E              #line 361 "k:\55555555555555\test\saier-a600n-2260-usa4g-aal-bg95-ui-v1.0-6\isr.c"
 361  004E  C704 0003   	lmov a,[900]
 361  0050  0080     E  	mov _EEPROM_WRITING_INT_2[0],a
 361  0051  0F3F        	mov a,63
 361  0052              	fcall _EEPROM_WRITING_INT
 362  0059              #line 362 "k:\55555555555555\test\saier-a600n-2260-usa4g-aal-bg95-ui-v1.0-6\isr.c"
 362  0059  3400     E  	clr _Usflag[0].3
 362  005A              _L86:
 364  005A              #line 364 "k:\55555555555555\test\saier-a600n-2260-usa4g-aal-bg95-ui-v1.0-6\isr.c"
 364  005A  1F9E        	set [30]
 364  005B              _L84:
 364  005B  0700     E  	mov a,r2
 364  005C  008B        	mov bp,a
 364  005D  0700     E  	mov a,r3
 364  005E  008A        	mov status,a
 364  005F  0700     E  	mov a,r4
 364  0060  0083        	mov mp,a
 364  0061  0700     E  	mov a,r5
 364  0062  0084        	mov sbp,a
 364  0063  0700     E  	mov a,r6
 364  0064  0087        	mov tblp,a
 364  0065  0700     E  	mov a,r7
 364  0066  0089        	mov tbhp,a
 364  0067  1D05        	tabrdc acc
 364  0068  0700     E  	mov a,r1
 364  0069  0004        	reti
 364  006A              _func_int0_isr endp
 364  006A              
 364  006A              #line 364 "k:\55555555555555\test\saier-a600n-2260-usa4g-aal-bg95-ui-v1.0-6\isr.c"
 364  006A              #pragma debug scope 1 1
文件：isr.c        编译器版本 HGASM 0202 页次20

 364  006A              public _func_int1_isr
 364  006A              #pragma debug scope 13 1
 379  006A              #line 379 "k:\55555555555555\test\saier-a600n-2260-usa4g-aal-bg95-ui-v1.0-6\isr.c"
 379  006A              rombank 0 @func_int1_isr_code
 379  0000              @func_int1_isr_code .section at 8 'code'
 379  0000  0080     E  	mov r1,a
 379  0001  070B        	mov a,bp
 379  0002  1F0B        	clr bp
 379  0003  2800     R  	jmp _func_int1_isr
 379  0004              ROMBANK 0 _func_int1_isr
 379  0004              #pragma debug scope 1 1
 379  0004              @dummy8 endp
 379  0004              #pragma debug scope 14 1
 379  0000              _func_int1_isr .section 'code'
 379  0000              _func_int1_isr proc
 379  0000  0080     E  	mov r2,a
 379  0001  070A        	mov a, status
 379  0002  0080     E  	mov r3,a
 380  0003              #line 380 "k:\55555555555555\test\saier-a600n-2260-usa4g-aal-bg95-ui-v1.0-6\isr.c"
 380  0003  36A0        	clr [32].5
 380  0004  0700     E  	mov a,r2
 380  0005  008B        	mov bp,a
 380  0006  0700     E  	mov a,r3
 380  0007  008A        	mov status,a
 380  0008  0700     E  	mov a,r1
 380  0009  0004        	reti
 380  000A              _func_int1_isr endp
 380  000A              
 380  000A              #line 380 "k:\55555555555555\test\saier-a600n-2260-usa4g-aal-bg95-ui-v1.0-6\isr.c"
 380  000A              #pragma debug scope 1 1
 380  000A              #pragma debug struct_end
 380  000A              #pragma debug struct_end
 380  000A              #pragma debug union_end
 380  000A              #pragma debug union_end
 380  000A              #pragma debug variable 43 1 ___pa "__pa" 1
 380  000A              #pragma debug struct_end
 380  000A              #pragma debug struct_end
 380  000A              #pragma debug union_end
 380  000A              #pragma debug union_end
 380  000A              #pragma debug variable 45 1 ___mfi1 "__mfi1" 1
 380  000A              #pragma debug struct_end
 380  000A              #pragma debug struct_end
 380  000A              #pragma debug union_end
 380  000A              #pragma debug union_end
 380  000A              #pragma debug variable 47 1 ___wdtc "__wdtc" 1
 380  000A              #pragma debug struct_end
 380  000A              #pragma debug struct_end
 380  000A              #pragma debug union_end
 380  000A              #pragma debug union_end
 380  000A              #pragma debug variable 49 1 ___intc0 "__intc0" 1
 380  000A              #pragma debug struct_end
 380  000A              #pragma debug struct_end
 380  000A              #pragma debug union_end
 380  000A              #pragma debug union_end
 380  000A              #pragma debug variable 51 1 ___intc2 "__intc2" 1
 380  000A              #pragma debug struct_end
 380  000A              #pragma debug struct_end
 380  000A              #pragma debug union_end
 380  000A              #pragma debug union_end
 380  000A              #pragma debug variable 53 1 ___u0sr "__u0sr" 1
文件：isr.c        编译器版本 HGASM 0202 页次21

 380  000A              #pragma debug struct_end
 380  000A              #pragma debug struct_end
 380  000A              #pragma debug union_end
 380  000A              #pragma debug union_end
 380  000A              #pragma debug variable 55 1 ___txr_rxr0 "__txr_rxr0" 1
 380  000A              #pragma debug array 56 8 6 1
 380  000A              #pragma debug array 56 8 6 1
 380  000A              #pragma debug variable 56 1 _R_TIME "R_TIME" 6
 380  000A              #pragma debug variable 8 1 _Timer_Flag_t10ms_Count "Timer_Flag_t10ms_Count" 1
 380  000A              #pragma debug variable 8 1 _MS10JSQ "MS10JSQ" 1
 380  000A              #pragma debug variable 8 1 _timegsm "timegsm" 1
 380  000A              #pragma debug variable 10 1 _s_pres_avl15 "s_pres_avl15" 2
 380  000A              #pragma debug variable 10 1 _PLSFTM "PLSFTM" 2
 380  000A              #pragma debug variable 8 1 _PLSFTM1 "PLSFTM1" 1
 380  000A              #pragma debug variable 8 1 _P_PWMCNT "P_PWMCNT" 1
 380  000A              #pragma debug variable 10 1 _P012_avg "P012_avg" 2
 380  000A              #pragma debug variable 10 1 _close_time "close_time" 2
 380  000A              #pragma debug variable 10 1 _pres_ad_0 "pres_ad_0" 2
 380  000A              #pragma debug variable 10 1 _pres_ad_100 "pres_ad_100" 2
 380  000A              #pragma debug variable 10 1 _pres_ad_200 "pres_ad_200" 2
 380  000A              #pragma debug variable 10 1 _pres_ad_300 "pres_ad_300" 2
 380  000A              #pragma debug variable 8 1 _counter2ms "counter2ms" 1
 380  000A              #pragma debug variable 8 1 _Over300 "Over300" 1
 380  000A              #pragma debug variable 8 1 _P1VAL_B "P1VAL_B" 1
 380  000A              #pragma debug variable 8 1 _S_PCNT "S_PCNT" 1
 380  000A              #pragma debug variable 8 1 _dowm_time "dowm_time" 1
 380  000A              #pragma debug variable 10 1 _pwm_val1 "pwm_val1" 2
 380  000A              #pragma debug variable 10 1 _counter9ms "counter9ms" 2
 380  000A              #pragma debug variable 10 1 _s_pres_avl "s_pres_avl" 2
 380  000A              #pragma debug variable 10 1 _FTM31 "FTM31" 2
 380  000A              #pragma debug array 57 12 8 1
 380  000A              #pragma debug array 57 12 8 1
 380  000A              #pragma debug variable 57 1 _P1_ad "P1_ad" 16
 380  000A              #pragma debug variable 57 1 _P0_ad "P0_ad" 16
 380  000A              #pragma debug struct_end
 380  000A              #pragma debug struct_end
 380  000A              #pragma debug union_end
 380  000A              #pragma debug union_end
 380  000A              #pragma debug array 60 59 32 1
 380  000A              #pragma debug array 60 59 32 1
 380  000A              #pragma debug variable 60 1 _SEG "SEG" 32
 380  000A              
 380  000A              ; output external variables
 380  000A              extern _R_alarm_clock:byte
 380  000A              extern _R_TIMEOUT_SECOND:byte
 380  000A              extern _TIMERFLAG:byte
 380  000A              extern _Usflag:byte
 380  000A              extern _R_10ms_COUNT:byte
 380  000A              extern _gu8v_uart_flag:byte
 380  000A              extern _MODEFLAG:byte
 380  000A              extern _pres_avl:byte
 380  000A              extern r1:byte
 380  000A              extern r2:byte
 380  000A              extern r3:byte
 380  000A              extern r4:byte
 380  000A              extern r5:byte
 380  000A              extern r6:byte
 380  000A              extern r7:byte
 380  000A              extern _Samlpe_Adc:near
 380  000A              extern _builtin_holtek_mulhi3_2:byte
文件：isr.c        编译器版本 HGASM 0202 页次22

 380  000A              extern _builtin_holtek_mulhi3:near
 380  000A              extern _builtin_holtek_udivmodhi4_2:byte
 380  000A              extern _builtin_holtek_udivmodhi4:near
 380  000A              extern _KEYSCAN:near
 380  000A              extern _EEPROM_WRITING_INT_2:byte
 380  000A              extern _EEPROM_WRITING_INT:near
 380  000A              
 380  000A              ; 
 380  000A              ; Generated by holtek-gcc v3.19, Tue Jul 26 12:07:00 2022
 380  000A              ; Rebuild 718
 380  000A              ; end of file


        0 Errors, 0