文件：KeyScan.c    编译器版本 HGASM 0202 页次1


   1  0000              ; Generated by holtek-gcc v3.19, Tue Jul 26 12:07:00 2022
   2  0000              ; 
   3  0000              ; Configuration:
   4  0000              ;       with long instruction
   5  0000              ;       Multi-ROM, Multi-RAM
   6  0000              ;       bits_per_rom_unit:16
   7  0000              ;       with mp1
   8  0000              ;       with tbhp, address(0x9)
   9  0000              ;          Use tabrd-const
  10  0000              ;       
  11  0000              ; SFR address of long-instruction arch:
  12  0000              ;    mp0 = -1,1,0
  13  0000              ;    mp1 = 4,3,2
  14  0000              ;    mp2 = 14,13,12
  15  0000              ;    tbp = 9,7,8
  16  0000              ;    acc = 5
  17  0000              ;    pcl = 6
  18  0000              ;    status = 10
  19  0000              ;    bp = 11
  20  0000              ;    intc = 32
  21  0000              ;       
  22  0000              ;       
  23  0000              ; use 'tabrdc' instead of 'tabrd'
  24  0000              ;       
  25  0000              
  26  0000              #pragma translator "holtek-gcc 4.6.4" "3.19" "build 20130711"
  27  0000              ; Rebuild 718
  28  0000              
  29  0000              ir equ [2]
  30  0000              mp equ [3]
  31  0000              sbp equ [4]
  32  0000              acc equ [5]
  33  0000              bp equ [11]
  34  0000              tblp equ [7]
  35  0000              tbhp equ [9]
  36  0000              status equ [10]
  37  0000              c equ [10].0
  38  0000              ac equ [10].1
  39  0000              z equ [10].2
  40  0000              ov equ [10].3
  41  0000              cz equ [10].6
  42  0000              sc equ [10].7
  43  0000              intc equ [32]
  44  0000              
  45  0000              extern ra:byte
  46  0000              extern rb:byte
  47  0000              extern rc:byte
  48  0000              extern rd:byte
  49  0000              extern re:byte
  50  0000              extern rf:byte
  51  0000              extern rg:byte
  52  0000              extern rh:byte
  53  0000              extern _Crom2Prom:near
  54  0000              extern _Crom2PromNext:near
  55  0000              
  56  0000              RAMBANK 0 @BITDATASEC, @BITDATASEC1
  57  0000              @HCCINIT	.section 'data'
  58  0000              @HCCINIT0	.section 'data'
  59  0000              @BITDATASEC	 .section 'data'
文件：KeyScan.ASM  编译器版本 HGASM 0202 页次2

  60  0000              @BITDATASEC1	 .section 'data'
  61  0000              
  62  0000              #pragma debug scope 1 1
  63  0000              	extern __DELAY3:near
  64  0000              	extern __DELAYX3:near
  65  0000              	extern __DELAYX6:near
  66  0000              	extern __DELAYY5:near
  67  0000              	extern __DELAYY3:near
  68  0000              	extern _builtin_holtek_delay_2:byte
  69  0000              public _KEYSCAN_INIT
  70  0000              #pragma debug scope 2 1

   8  0000              #line 8 "k:\55555555555555\test\saier-a600n-2260-usa4g-aal-bg95-ui-v1.0-6\KeyScan.c"
   8  0000              _KEYSCAN_INIT .section 'code'
   8  0000              _KEYSCAN_INIT proc
   9  0000              #line 9 "k:\55555555555555\test\saier-a600n-2260-usa4g-aal-bg95-ui-v1.0-6\KeyScan.c"
   9  0000  1F00     E  	clr _gu8v_KeyDown[0]
  10  0001              #line 10 "k:\55555555555555\test\saier-a600n-2260-usa4g-aal-bg95-ui-v1.0-6\KeyScan.c"
  10  0001  1F00     E  	clr _gu8v_KeyOld[0]
  11  0002              #line 11 "k:\55555555555555\test\saier-a600n-2260-usa4g-aal-bg95-ui-v1.0-6\KeyScan.c"
  11  0002  1F00     E  	clr _gu8v_KeyNoChangedTime[0]
  12  0003              #line 12 "k:\55555555555555\test\saier-a600n-2260-usa4g-aal-bg95-ui-v1.0-6\KeyScan.c"
  12  0003  1F00     E  	clr _gu8v_KeyPress[0]
  13  0004              #line 13 "k:\55555555555555\test\saier-a600n-2260-usa4g-aal-bg95-ui-v1.0-6\KeyScan.c"
  13  0004  1F00     E  	clr _gu8v_KeyUp[0]
  14  0005              #line 14 "k:\55555555555555\test\saier-a600n-2260-usa4g-aal-bg95-ui-v1.0-6\KeyScan.c"
  14  0005  1F00     E  	clr _gu8v_KeyLast[0]
  15  0006              #line 15 "k:\55555555555555\test\saier-a600n-2260-usa4g-aal-bg95-ui-v1.0-6\KeyScan.c"
  15  0006  1F00     E  	clr _gu8v_Keypress_time[0]
  15  0007  1F00     E  	clr _gu8v_Keypress_time[1]
  16  0008              #line 16 "k:\55555555555555\test\saier-a600n-2260-usa4g-aal-bg95-ui-v1.0-6\KeyScan.c"
  16  0008  1F00     E  	clr _gu8v_KeyCurrent[0]
  16  0009  0003        	ret
  16  000A              _KEYSCAN_INIT endp
  16  000A              #line 16 "k:\55555555555555\test\saier-a600n-2260-usa4g-aal-bg95-ui-v1.0-6\KeyScan.c"
  16  000A              #pragma debug scope 1 1
  16  000A              _gu8v_wake_up_time equ [933]
  16  000A              ___pa equ [20]
  16  000A              public _KEYSCAN
  16  000A              #pragma debug scope 3 1
  19  000A              #line 19 "k:\55555555555555\test\saier-a600n-2260-usa4g-aal-bg95-ui-v1.0-6\KeyScan.c"
  19  0000              _KEYSCAN .section 'code'
  19  0000              _KEYSCAN proc
  20  0000              #line 20 "k:\55555555555555\test\saier-a600n-2260-usa4g-aal-bg95-ui-v1.0-6\KeyScan.c"
  20  0000  D4A5 0003   	linc [933]
  21  0002              #line 21 "k:\55555555555555\test\saier-a600n-2260-usa4g-aal-bg95-ui-v1.0-6\KeyScan.c"
  21  0002  3000     E  	set _TIMERFLAG[0].0
  22  0003              #line 22 "k:\55555555555555\test\saier-a600n-2260-usa4g-aal-bg95-ui-v1.0-6\KeyScan.c"
  22  0003  3800     E  	snz _TIMERFLAG[0].4
  22  0004  2800     R  	jmp _L3
  24  0005              #line 24 "k:\55555555555555\test\saier-a600n-2260-usa4g-aal-bg95-ui-v1.0-6\KeyScan.c"
  24  0005  1E00     E  	snz _R_DISPLAYTIME[0]
  24  0006  2800     R  	jmp _L3
  26  0007              #line 26 "k:\55555555555555\test\saier-a600n-2260-usa4g-aal-bg95-ui-v1.0-6\KeyScan.c"
  26  0007  1580     E  	dec _R_DISPLAYTIME[0]
  26  0008              _L3:
  29  0008              #line 29 "k:\55555555555555\test\saier-a600n-2260-usa4g-aal-bg95-ui-v1.0-6\KeyScan.c"
  29  0008  1F00     E  	clr _gu8v_KeyCurrent[0]
  44  0009              #line 44 "k:\55555555555555\test\saier-a600n-2260-usa4g-aal-bg95-ui-v1.0-6\KeyScan.c"
  44  0009  3D94        	sz [20].3
文件：KeyScan.c    编译器版本 HGASM 0202 页次3

  44  000A  2800     R  	jmp _L4
  44  000B  3E94        	sz [20].5
  44  000C  2800     R  	jmp _L4
  46  000D              #line 46 "k:\55555555555555\test\saier-a600n-2260-usa4g-aal-bg95-ui-v1.0-6\KeyScan.c"
  46  000D  3000     E  	set _gu8v_KeyCurrent[0].0
  46  000E              _L4:
  49  000E              #line 49 "k:\55555555555555\test\saier-a600n-2260-usa4g-aal-bg95-ui-v1.0-6\KeyScan.c"
  49  000E  3D94        	sz [20].3
  49  000F  2800     R  	jmp _L5
  49  0010  3E14        	sz [20].4
  49  0011  2800     R  	jmp _L5
  51  0012              #line 51 "k:\55555555555555\test\saier-a600n-2260-usa4g-aal-bg95-ui-v1.0-6\KeyScan.c"
  51  0012  3000     E  	set _gu8v_KeyCurrent[0].4
  51  0013              _L5:
  54  0013              #line 54 "k:\55555555555555\test\saier-a600n-2260-usa4g-aal-bg95-ui-v1.0-6\KeyScan.c"
  54  0013  3E14        	sz [20].4
  54  0014  2800     R  	jmp _L6
  56  0015              #line 56 "k:\55555555555555\test\saier-a600n-2260-usa4g-aal-bg95-ui-v1.0-6\KeyScan.c"
  56  0015  3000     E  	set _gu8v_KeyCurrent[0].1
  56  0016              _L6:
  59  0016              #line 59 "k:\55555555555555\test\saier-a600n-2260-usa4g-aal-bg95-ui-v1.0-6\KeyScan.c"
  59  0016  3D94        	sz [20].3
  59  0017  2800     R  	jmp _L7
  61  0018              #line 61 "k:\55555555555555\test\saier-a600n-2260-usa4g-aal-bg95-ui-v1.0-6\KeyScan.c"
  61  0018  3000     E  	set _gu8v_KeyCurrent[0].2
  61  0019              _L7:
  64  0019              #line 64 "k:\55555555555555\test\saier-a600n-2260-usa4g-aal-bg95-ui-v1.0-6\KeyScan.c"
  64  0019  3E94        	sz [20].5
  64  001A  2800     R  	jmp _L8
  66  001B              #line 66 "k:\55555555555555\test\saier-a600n-2260-usa4g-aal-bg95-ui-v1.0-6\KeyScan.c"
  66  001B  3000     E  	set _gu8v_KeyCurrent[0].3
  66  001C              _L8:
  68  001C              #line 68 "k:\55555555555555\test\saier-a600n-2260-usa4g-aal-bg95-ui-v1.0-6\KeyScan.c"
  68  001C  3E94        	sz [20].5
  68  001D  2800     R  	jmp _L9
  68  001E  3E14        	sz [20].4
  68  001F  2800     R  	jmp _L9
  70  0020              #line 70 "k:\55555555555555\test\saier-a600n-2260-usa4g-aal-bg95-ui-v1.0-6\KeyScan.c"
  70  0020  3000     E  	set _gu8v_KeyCurrent[0].6
  70  0021              _L9:
  73  0021              #line 73 "k:\55555555555555\test\saier-a600n-2260-usa4g-aal-bg95-ui-v1.0-6\KeyScan.c"
  73  0021  0700     E  	mov a,_gu8v_KeyCurrent[0]
  73  0022  0200     E  	sub a,_gu8v_KeyOld[0]
  73  0023  3D0A        	sz z
  73  0024  2800     R  	jmp _L10
  75  0025              #line 75 "k:\55555555555555\test\saier-a600n-2260-usa4g-aal-bg95-ui-v1.0-6\KeyScan.c"
  75  0025  1F00     E  	clr _gu8v_KeyNoChangedTime[0]
  76  0026              #line 76 "k:\55555555555555\test\saier-a600n-2260-usa4g-aal-bg95-ui-v1.0-6\KeyScan.c"
  76  0026  0700     E  	mov a,_gu8v_KeyCurrent[0]
  76  0027  0080     E  	mov _gu8v_KeyOld[0],a
  77  0028              #line 77 "k:\55555555555555\test\saier-a600n-2260-usa4g-aal-bg95-ui-v1.0-6\KeyScan.c"
  77  0028  2800     R  	jmp _L2
  77  0029              _L10:
  81  0029              #line 81 "k:\55555555555555\test\saier-a600n-2260-usa4g-aal-bg95-ui-v1.0-6\KeyScan.c"
  81  0029  1480     E  	inc _gu8v_KeyNoChangedTime[0]
  82  002A              #line 82 "k:\55555555555555\test\saier-a600n-2260-usa4g-aal-bg95-ui-v1.0-6\KeyScan.c"
  82  002A  0F03        	mov a,3
  82  002B  0200     E  	sub a,_gu8v_KeyNoChangedTime[0]
  82  002C  3C0A        	sz c
  82  002D  2800     R  	jmp _L12
文件：KeyScan.c    编译器版本 HGASM 0202 页次4

  84  002E              #line 84 "k:\55555555555555\test\saier-a600n-2260-usa4g-aal-bg95-ui-v1.0-6\KeyScan.c"
  84  002E  0F04        	mov a,4
  84  002F  0080     E  	mov _gu8v_KeyNoChangedTime[0],a
  85  0030              #line 85 "k:\55555555555555\test\saier-a600n-2260-usa4g-aal-bg95-ui-v1.0-6\KeyScan.c"
  85  0030  0700     E  	mov a,_gu8v_KeyOld[0]
  85  0031  0080     E  	mov _gu8v_KeyPress[0],a
  86  0032              #line 86 "k:\55555555555555\test\saier-a600n-2260-usa4g-aal-bg95-ui-v1.0-6\KeyScan.c"
  86  0032  0700     E  	mov a,_gu8v_KeyLast[0]
  86  0033  0400     E  	xor a,_gu8v_KeyPress[0]
  86  0034  0080     E  	mov ra,a
  86  0035  0700     E  	mov a,ra
  86  0036  0600     E  	and a,_gu8v_KeyPress[0]
  86  0037  0080     E  	mov _gu8v_KeyDown[0],a
  87  0038              #line 87 "k:\55555555555555\test\saier-a600n-2260-usa4g-aal-bg95-ui-v1.0-6\KeyScan.c"
  87  0038  0100     E  	cpla _gu8v_KeyPress[0]
  87  0039  0080     E  	mov ra,a
  87  003A  0700     E  	mov a,_gu8v_KeyLast[0]
  87  003B  0680     E  	andm a,ra
  87  003C  0700     E  	mov a,ra
  87  003D  0580     E  	orm a,_gu8v_KeyUp[0]
  88  003E              #line 88 "k:\55555555555555\test\saier-a600n-2260-usa4g-aal-bg95-ui-v1.0-6\KeyScan.c"
  88  003E  0700     E  	mov a,_gu8v_KeyPress[0]
  88  003F  0080     E  	mov _gu8v_KeyLast[0],a
  88  0040              _L12:
  93  0040              #line 93 "k:\55555555555555\test\saier-a600n-2260-usa4g-aal-bg95-ui-v1.0-6\KeyScan.c"
  93  0040  0700     E  	mov a,_gu8v_Keypress_time[0]
  93  0041  0A58        	sub a,88
  93  0042  0700     E  	mov a,_gu8v_Keypress_time[1]
  93  0043  0802        	sbc a,2
  93  0044  3B0A        	snz cz
  93  0045  2800     R  	jmp _L13
  96  0046              #line 96 "k:\55555555555555\test\saier-a600n-2260-usa4g-aal-bg95-ui-v1.0-6\KeyScan.c"
  96  0046  3800     E  	snz _gu8v_KeyCurrent[0].0
  96  0047  2800     R  	jmp _L14
  98  0048              #line 98 "k:\55555555555555\test\saier-a600n-2260-usa4g-aal-bg95-ui-v1.0-6\KeyScan.c"
  98  0048  3000     E  	set _KEYFLAG[0].7
  98  0049  2800     R  	jmp _L21
  98  004A              _L14:
 100  004A              #line 100 "k:\55555555555555\test\saier-a600n-2260-usa4g-aal-bg95-ui-v1.0-6\KeyScan.c"
 100  004A  3800     E  	snz _gu8v_KeyPress[0].4
 100  004B  2800     R  	jmp _L16
 102  004C              #line 102 "k:\55555555555555\test\saier-a600n-2260-usa4g-aal-bg95-ui-v1.0-6\KeyScan.c"
 102  004C  3000     E  	set _KEYFLAG[0].6
 102  004D  2800     R  	jmp _L21
 102  004E              _L16:
 104  004E              #line 104 "k:\55555555555555\test\saier-a600n-2260-usa4g-aal-bg95-ui-v1.0-6\KeyScan.c"
 104  004E  3800     E  	snz _gu8v_KeyCurrent[0].6
 104  004F  2800     R  	jmp _L17
 106  0050              #line 106 "k:\55555555555555\test\saier-a600n-2260-usa4g-aal-bg95-ui-v1.0-6\KeyScan.c"
 106  0050  3000     E  	set _KEYFLAG[0].3
 106  0051  2800     R  	jmp _L21
 106  0052              _L17:
 108  0052              #line 108 "k:\55555555555555\test\saier-a600n-2260-usa4g-aal-bg95-ui-v1.0-6\KeyScan.c"
 108  0052  3800     E  	snz _gu8v_KeyPress[0].1
 108  0053  2800     R  	jmp _L18
 110  0054              #line 110 "k:\55555555555555\test\saier-a600n-2260-usa4g-aal-bg95-ui-v1.0-6\KeyScan.c"
 110  0054  3000     E  	set _KEYFLAG[0].4
 110  0055  2800     R  	jmp _L21
 110  0056              _L18:
 112  0056              #line 112 "k:\55555555555555\test\saier-a600n-2260-usa4g-aal-bg95-ui-v1.0-6\KeyScan.c"
文件：KeyScan.c    编译器版本 HGASM 0202 页次5

 112  0056  3800     E  	snz _gu8v_KeyPress[0].2
 112  0057  2800     R  	jmp _L19
 114  0058              #line 114 "k:\55555555555555\test\saier-a600n-2260-usa4g-aal-bg95-ui-v1.0-6\KeyScan.c"
 114  0058  3000     E  	set _KEYFLAG[1].0
 114  0059  2800     R  	jmp _L21
 114  005A              _L19:
 117  005A              #line 117 "k:\55555555555555\test\saier-a600n-2260-usa4g-aal-bg95-ui-v1.0-6\KeyScan.c"
 117  005A  3800     E  	snz _gu8v_KeyPress[0].3
 117  005B  2800     R  	jmp _L21
 119  005C              #line 119 "k:\55555555555555\test\saier-a600n-2260-usa4g-aal-bg95-ui-v1.0-6\KeyScan.c"
 119  005C  3000     E  	set _KEYFLAG[0].5
 119  005D  2800     R  	jmp _L21
 119  005E              _L13:
 126  005E              #line 126 "k:\55555555555555\test\saier-a600n-2260-usa4g-aal-bg95-ui-v1.0-6\KeyScan.c"
 126  005E  0F57        	mov a,87
 126  005F  0200     E  	sub a,_gu8v_Keypress_time[0]
 126  0060  0F02        	mov a,2
 126  0061  1200     E  	sbc a,_gu8v_Keypress_time[1]
 126  0062  380A        	snz c
 126  0063  2800     R  	jmp _L21
 129  0064              #line 129 "k:\55555555555555\test\saier-a600n-2260-usa4g-aal-bg95-ui-v1.0-6\KeyScan.c"
 129  0064  3800     E  	snz _gu8v_KeyUp[0].1
 129  0065  2800     R  	jmp _L22
 131  0066              #line 131 "k:\55555555555555\test\saier-a600n-2260-usa4g-aal-bg95-ui-v1.0-6\KeyScan.c"
 131  0066  3000     E  	set _KEYFLAG[0].0
 131  0067  2800     R  	jmp _L20
 131  0068              _L22:
 134  0068              #line 134 "k:\55555555555555\test\saier-a600n-2260-usa4g-aal-bg95-ui-v1.0-6\KeyScan.c"
 134  0068  3800     E  	snz _gu8v_KeyUp[0].2
 134  0069  2800     R  	jmp _L23
 137  006A              #line 137 "k:\55555555555555\test\saier-a600n-2260-usa4g-aal-bg95-ui-v1.0-6\KeyScan.c"
 137  006A  3000     E  	set _KEYFLAG[0].1
 137  006B  2800     R  	jmp _L20
 137  006C              _L23:
 140  006C              #line 140 "k:\55555555555555\test\saier-a600n-2260-usa4g-aal-bg95-ui-v1.0-6\KeyScan.c"
 140  006C  3800     E  	snz _gu8v_KeyUp[0].3
 140  006D  2800     R  	jmp _L20
 143  006E              #line 143 "k:\55555555555555\test\saier-a600n-2260-usa4g-aal-bg95-ui-v1.0-6\KeyScan.c"
 143  006E  3000     E  	set _KEYFLAG[0].2
 143  006F  2800     R  	jmp _L20
 143  0070              _L21:
 153  0070              #line 153 "k:\55555555555555\test\saier-a600n-2260-usa4g-aal-bg95-ui-v1.0-6\KeyScan.c"
 153  0070  0F59        	mov a,89
 153  0071  0080     E  	mov _gu8v_Keypress_time[0],a
 153  0072  0F02        	mov a,2
 153  0073  0080     E  	mov _gu8v_Keypress_time[1],a
 153  0074              _L20:
 177  0074              #line 177 "k:\55555555555555\test\saier-a600n-2260-usa4g-aal-bg95-ui-v1.0-6\KeyScan.c"
 177  0074  3C00     E  	sz _gu8v_KeyPress[0].1
 177  0075  2800     R  	jmp _L24
 177  0076  3C00     E  	sz _gu8v_KeyPress[0].2
 177  0077  2800     R  	jmp _L24
 177  0078  3800     E  	snz _gu8v_KeyPress[0].3
 177  0079  2800     R  	jmp _L25
 177  007A              _L24:
 179  007A              #line 179 "k:\55555555555555\test\saier-a600n-2260-usa4g-aal-bg95-ui-v1.0-6\KeyScan.c"
 179  007A  1480     E  	inc _gu8v_Keypress_time[0]
 179  007B  3D0A        	sz z
 179  007C  1480     E  	inc _gu8v_Keypress_time[1]
 179  007D  2800     R  	jmp _L26
文件：KeyScan.c    编译器版本 HGASM 0202 页次6

 179  007E              _L25:
 183  007E              #line 183 "k:\55555555555555\test\saier-a600n-2260-usa4g-aal-bg95-ui-v1.0-6\KeyScan.c"
 183  007E  1F00     E  	clr _gu8v_Keypress_time[0]
 183  007F  1F00     E  	clr _gu8v_Keypress_time[1]
 183  0080              _L26:
 186  0080              #line 186 "k:\55555555555555\test\saier-a600n-2260-usa4g-aal-bg95-ui-v1.0-6\KeyScan.c"
 186  0080  1F00     E  	clr _gu8v_KeyUp[0]
 186  0081              _L2:
 186  0081  0003        	ret
 186  0082              _KEYSCAN endp
 186  0082              #line 186 "k:\55555555555555\test\saier-a600n-2260-usa4g-aal-bg95-ui-v1.0-6\KeyScan.c"
 186  0082              #pragma debug scope 1 1
 186  0082              _btt_cnt equ [930]
 186  0082              _LOW_V equ [1012]
 186  0082              public _SBR_UPDATE_BTT
 186  0082              #pragma debug scope 4 1
 192  0082              #line 192 "k:\55555555555555\test\saier-a600n-2260-usa4g-aal-bg95-ui-v1.0-6\KeyScan.c"
 192  0000              _SBR_UPDATE_BTT .section 'code'
 192  0000              _SBR_UPDATE_BTT proc
 193  0000              #line 193 "k:\55555555555555\test\saier-a600n-2260-usa4g-aal-bg95-ui-v1.0-6\KeyScan.c"
 193  0000  3800     E  	snz _R_alarm_clock[0].1
 193  0001  2800     R  	jmp _L40
 196  0002              #line 196 "k:\55555555555555\test\saier-a600n-2260-usa4g-aal-bg95-ui-v1.0-6\KeyScan.c"
 196  0002  3400     E  	clr _R_alarm_clock[0].1
 197  0003              #line 197 "k:\55555555555555\test\saier-a600n-2260-usa4g-aal-bg95-ui-v1.0-6\KeyScan.c"
 197  0003  3C94        	sz [20].1
 197  0004  2800     R  	jmp _L42
 199  0005              #line 199 "k:\55555555555555\test\saier-a600n-2260-usa4g-aal-bg95-ui-v1.0-6\KeyScan.c"
 199  0005  3400     E  	clr _R_alarm_clock[0].0
 200  0006              #line 200 "k:\55555555555555\test\saier-a600n-2260-usa4g-aal-bg95-ui-v1.0-6\KeyScan.c"
 200  0006  0F02        	mov a,2
 200  0007  C222 0003   	lsub a,[930]
 200  0009  3C0A        	sz c
 200  000A  2800     R  	jmp _L43
 202  000B              #line 202 "k:\55555555555555\test\saier-a600n-2260-usa4g-aal-bg95-ui-v1.0-6\KeyScan.c"
 202  000B  DF22 0003   	lclr [930]
 202  000D              _L43:
 204  000D              #line 204 "k:\55555555555555\test\saier-a600n-2260-usa4g-aal-bg95-ui-v1.0-6\KeyScan.c"
 204  000D  D4A2 0003   	linc [930]
 205  000F              #line 205 "k:\55555555555555\test\saier-a600n-2260-usa4g-aal-bg95-ui-v1.0-6\KeyScan.c"
 205  000F  C722 0003   	lmov a,[930]
 205  0011  0080     E  	mov ra,a
 205  0012  0700     E  	mov a,ra
 205  0013  2800     R  	jmp _L51
 205  0014              _L42:
 209  0014              #line 209 "k:\55555555555555\test\saier-a600n-2260-usa4g-aal-bg95-ui-v1.0-6\KeyScan.c"
 209  0014  0F02        	mov a,2
 209  0015              	fcall _Samlpe_Adc1
 209  001C  0700     E  	mov a,ra
 209  001D  C0F4 0003   	lmov [1012],a
 209  001F  0700     E  	mov a,rb
 209  0020  C0F5 0003   	lmov [1013],a
 210  0022              #line 210 "k:\55555555555555\test\saier-a600n-2260-usa4g-aal-bg95-ui-v1.0-6\KeyScan.c"
 210  0022  0F90        	mov a,144
 210  0023  C274 0003   	lsub a,[1012]
 210  0025  0F01        	mov a,1
 210  0026  D275 0003   	lsbc a,[1013]
 210  0028  380A        	snz c
 210  0029  2800     R  	jmp _L50
 215  002A              #line 215 "k:\55555555555555\test\saier-a600n-2260-usa4g-aal-bg95-ui-v1.0-6\KeyScan.c"
文件：KeyScan.c    编译器版本 HGASM 0202 页次7

 215  002A  0F81        	mov a,129
 215  002B  C274 0003   	lsub a,[1012]
 215  002D  0F01        	mov a,1
 215  002E  D275 0003   	lsbc a,[1013]
 215  0030  380A        	snz c
 215  0031  2800     R  	jmp _L50
 220  0032              #line 220 "k:\55555555555555\test\saier-a600n-2260-usa4g-aal-bg95-ui-v1.0-6\KeyScan.c"
 220  0032  0F72        	mov a,114
 220  0033  C274 0003   	lsub a,[1012]
 220  0035  0F01        	mov a,1
 220  0036  D275 0003   	lsbc a,[1013]
 220  0038  3C0A        	sz c
 220  0039  2800     R  	jmp _L46
 220  003A              _L50:
 222  003A              #line 222 "k:\55555555555555\test\saier-a600n-2260-usa4g-aal-bg95-ui-v1.0-6\KeyScan.c"
 222  003A  0F02        	mov a,2
 222  003B              	fcall _SBR_DISP_DOT_BTT
 223  0042              #line 223 "k:\55555555555555\test\saier-a600n-2260-usa4g-aal-bg95-ui-v1.0-6\KeyScan.c"
 223  0042  3400     E  	clr _R_alarm_clock[0].0
 223  0043  2800     R  	jmp _L40
 223  0044              _L46:
 225  0044              #line 225 "k:\55555555555555\test\saier-a600n-2260-usa4g-aal-bg95-ui-v1.0-6\KeyScan.c"
 225  0044  C774 0003   	lmov a,[1012]
 225  0046  0080     E  	mov rb,a
 225  0047  C775 0003   	lmov a,[1013]
 225  0049  0080     E  	mov rc,a
 227  004A              #line 227 "k:\55555555555555\test\saier-a600n-2260-usa4g-aal-bg95-ui-v1.0-6\KeyScan.c"
 227  004A  0F01        	mov a,1
 227  004B              _L51:
 227  004B              	fcall _SBR_DISP_DOT_BTT
 227  0052              _L40:
 227  0052  0003        	ret
 227  0053              _SBR_UPDATE_BTT endp
 227  0053              #line 227 "k:\55555555555555\test\saier-a600n-2260-usa4g-aal-bg95-ui-v1.0-6\KeyScan.c"
 227  0053              #pragma debug scope 1 1
 227  0053              _R_TIME equ [896]
 227  0053              public _SBR_UPDATE_TIME
 227  0053              #pragma debug scope 5 1
 330  0053              #line 330 "k:\55555555555555\test\saier-a600n-2260-usa4g-aal-bg95-ui-v1.0-6\KeyScan.c"
 330  0000              _SBR_UPDATE_TIME .section 'code'
 330  0000              _SBR_UPDATE_TIME proc
 331  0000              #line 331 "k:\55555555555555\test\saier-a600n-2260-usa4g-aal-bg95-ui-v1.0-6\KeyScan.c"
 331  0000  3800     E  	snz _MODEFLAG[0].0
 331  0001  2800     R  	jmp _L52
 333  0002              #line 333 "k:\55555555555555\test\saier-a600n-2260-usa4g-aal-bg95-ui-v1.0-6\KeyScan.c"
 333  0002  3400     E  	clr _MODEFLAG[0].0
 334  0003              #line 334 "k:\55555555555555\test\saier-a600n-2260-usa4g-aal-bg95-ui-v1.0-6\KeyScan.c"
 334  0003  C703 0003   	lmov a,[899]
 334  0005  0080     E  	mov _R_TEMPDATA[0],a
 335  0006              #line 335 "k:\55555555555555\test\saier-a600n-2260-usa4g-aal-bg95-ui-v1.0-6\KeyScan.c"
 335  0006              	fcall _SBR_DISP_HOUR_ON
 336  000D              #line 336 "k:\55555555555555\test\saier-a600n-2260-usa4g-aal-bg95-ui-v1.0-6\KeyScan.c"
 336  000D  C704 0003   	lmov a,[900]
 336  000F  0080     E  	mov _R_TEMPDATA[0],a
 337  0010              #line 337 "k:\55555555555555\test\saier-a600n-2260-usa4g-aal-bg95-ui-v1.0-6\KeyScan.c"
 337  0010              	fcall _SBR_DISP_MINUTE_ON
 338  0017              #line 338 "k:\55555555555555\test\saier-a600n-2260-usa4g-aal-bg95-ui-v1.0-6\KeyScan.c"
 338  0017  C701 0003   	lmov a,[897]
 338  0019  0080     E  	mov _R_TEMPDATA[0],a
 339  001A              #line 339 "k:\55555555555555\test\saier-a600n-2260-usa4g-aal-bg95-ui-v1.0-6\KeyScan.c"
文件：KeyScan.c    编译器版本 HGASM 0202 页次8

 339  001A              	fcall _SBR_DISP_MONTH_ON
 340  0021              #line 340 "k:\55555555555555\test\saier-a600n-2260-usa4g-aal-bg95-ui-v1.0-6\KeyScan.c"
 340  0021  C702 0003   	lmov a,[898]
 340  0023  0080     E  	mov _R_TEMPDATA[0],a
 341  0024              #line 341 "k:\55555555555555\test\saier-a600n-2260-usa4g-aal-bg95-ui-v1.0-6\KeyScan.c"
 341  0024              	fcall _SBR_DISP_DAY_ON
 342  002B              #line 342 "k:\55555555555555\test\saier-a600n-2260-usa4g-aal-bg95-ui-v1.0-6\KeyScan.c"
 342  002B              	fcall _SBR_DISP_DOT_COLD_ON
 342  0032              _L52:
 342  0032  0003        	ret
 342  0033              _SBR_UPDATE_TIME endp
 342  0033              #line 342 "k:\55555555555555\test\saier-a600n-2260-usa4g-aal-bg95-ui-v1.0-6\KeyScan.c"
 342  0033              #pragma debug scope 1 1
 342  0033              public _key_scan
 342  0033              #pragma debug scope 6 1
 390  0033              #line 390 "k:\55555555555555\test\saier-a600n-2260-usa4g-aal-bg95-ui-v1.0-6\KeyScan.c"
 390  0000              _key_scan .section 'code'
 390  0000              _key_scan proc
 400  0000              #line 400 "k:\55555555555555\test\saier-a600n-2260-usa4g-aal-bg95-ui-v1.0-6\KeyScan.c"
 400  0000  3800     E  	snz _KEYFLAG[0].1
 400  0001  2800     R  	jmp _L58
 402  0002              #line 402 "k:\55555555555555\test\saier-a600n-2260-usa4g-aal-bg95-ui-v1.0-6\KeyScan.c"
 402  0002  3400     E  	clr _KEYFLAG[0].1
 403  0003              #line 403 "k:\55555555555555\test\saier-a600n-2260-usa4g-aal-bg95-ui-v1.0-6\KeyScan.c"
 403  0003  0F01        	mov a,1
 403  0004  0080     E  	mov ra,a
 403  0005  2800     R  	jmp _L59
 403  0006              _L58:
 405  0006              #line 405 "k:\55555555555555\test\saier-a600n-2260-usa4g-aal-bg95-ui-v1.0-6\KeyScan.c"
 405  0006  3800     E  	snz _KEYFLAG[0].0
 405  0007  2800     R  	jmp _L60
 407  0008              #line 407 "k:\55555555555555\test\saier-a600n-2260-usa4g-aal-bg95-ui-v1.0-6\KeyScan.c"
 407  0008  3400     E  	clr _KEYFLAG[0].0
 408  0009              #line 408 "k:\55555555555555\test\saier-a600n-2260-usa4g-aal-bg95-ui-v1.0-6\KeyScan.c"
 408  0009  0F02        	mov a,2
 408  000A  0080     E  	mov ra,a
 408  000B  2800     R  	jmp _L59
 408  000C              _L60:
 410  000C              #line 410 "k:\55555555555555\test\saier-a600n-2260-usa4g-aal-bg95-ui-v1.0-6\KeyScan.c"
 410  000C  3800     E  	snz _KEYFLAG[0].2
 410  000D  2800     R  	jmp _L61
 412  000E              #line 412 "k:\55555555555555\test\saier-a600n-2260-usa4g-aal-bg95-ui-v1.0-6\KeyScan.c"
 412  000E  3400     E  	clr _KEYFLAG[0].2
 413  000F              #line 413 "k:\55555555555555\test\saier-a600n-2260-usa4g-aal-bg95-ui-v1.0-6\KeyScan.c"
 413  000F  0F03        	mov a,3
 413  0010  0080     E  	mov ra,a
 413  0011  2800     R  	jmp _L59
 413  0012              _L61:
 415  0012              #line 415 "k:\55555555555555\test\saier-a600n-2260-usa4g-aal-bg95-ui-v1.0-6\KeyScan.c"
 415  0012  3800     E  	snz _KEYFLAG[0].3
 415  0013  2800     R  	jmp _L62
 417  0014              #line 417 "k:\55555555555555\test\saier-a600n-2260-usa4g-aal-bg95-ui-v1.0-6\KeyScan.c"
 417  0014  3400     E  	clr _KEYFLAG[0].3
 418  0015              #line 418 "k:\55555555555555\test\saier-a600n-2260-usa4g-aal-bg95-ui-v1.0-6\KeyScan.c"
 418  0015  0F04        	mov a,4
 418  0016  0080     E  	mov ra,a
 418  0017  2800     R  	jmp _L59
 418  0018              _L62:
 420  0018              #line 420 "k:\55555555555555\test\saier-a600n-2260-usa4g-aal-bg95-ui-v1.0-6\KeyScan.c"
 420  0018  3800     E  	snz _KEYFLAG[0].4
文件：KeyScan.c    编译器版本 HGASM 0202 页次9

 420  0019  2800     R  	jmp _L63
 422  001A              #line 422 "k:\55555555555555\test\saier-a600n-2260-usa4g-aal-bg95-ui-v1.0-6\KeyScan.c"
 422  001A  3400     E  	clr _KEYFLAG[0].4
 423  001B              #line 423 "k:\55555555555555\test\saier-a600n-2260-usa4g-aal-bg95-ui-v1.0-6\KeyScan.c"
 423  001B  0F05        	mov a,5
 423  001C  0080     E  	mov ra,a
 423  001D  2800     R  	jmp _L59
 423  001E              _L63:
 425  001E              #line 425 "k:\55555555555555\test\saier-a600n-2260-usa4g-aal-bg95-ui-v1.0-6\KeyScan.c"
 425  001E  3800     E  	snz _KEYFLAG[0].5
 425  001F  2800     R  	jmp _L64
 427  0020              #line 427 "k:\55555555555555\test\saier-a600n-2260-usa4g-aal-bg95-ui-v1.0-6\KeyScan.c"
 427  0020  3400     E  	clr _KEYFLAG[0].5
 428  0021              #line 428 "k:\55555555555555\test\saier-a600n-2260-usa4g-aal-bg95-ui-v1.0-6\KeyScan.c"
 428  0021  0F06        	mov a,6
 428  0022  0080     E  	mov ra,a
 428  0023  2800     R  	jmp _L59
 428  0024              _L64:
 430  0024              #line 430 "k:\55555555555555\test\saier-a600n-2260-usa4g-aal-bg95-ui-v1.0-6\KeyScan.c"
 430  0024  3800     E  	snz _KEYFLAG[0].6
 430  0025  2800     R  	jmp _L65
 432  0026              #line 432 "k:\55555555555555\test\saier-a600n-2260-usa4g-aal-bg95-ui-v1.0-6\KeyScan.c"
 432  0026  3400     E  	clr _KEYFLAG[0].6
 433  0027              #line 433 "k:\55555555555555\test\saier-a600n-2260-usa4g-aal-bg95-ui-v1.0-6\KeyScan.c"
 433  0027  0F07        	mov a,7
 433  0028  0080     E  	mov ra,a
 433  0029  2800     R  	jmp _L59
 433  002A              _L65:
 435  002A              #line 435 "k:\55555555555555\test\saier-a600n-2260-usa4g-aal-bg95-ui-v1.0-6\KeyScan.c"
 435  002A  3800     E  	snz _KEYFLAG[0].7
 435  002B  2800     R  	jmp _L66
 437  002C              #line 437 "k:\55555555555555\test\saier-a600n-2260-usa4g-aal-bg95-ui-v1.0-6\KeyScan.c"
 437  002C  3400     E  	clr _KEYFLAG[0].6
 438  002D              #line 438 "k:\55555555555555\test\saier-a600n-2260-usa4g-aal-bg95-ui-v1.0-6\KeyScan.c"
 438  002D  0F08        	mov a,8
 438  002E  0080     E  	mov ra,a
 438  002F  2800     R  	jmp _L59
 438  0030              _L66:
 440  0030              #line 440 "k:\55555555555555\test\saier-a600n-2260-usa4g-aal-bg95-ui-v1.0-6\KeyScan.c"
 440  0030  3800     E  	snz _KEYFLAG[1].0
 440  0031  2800     R  	jmp _L67
 442  0032              #line 442 "k:\55555555555555\test\saier-a600n-2260-usa4g-aal-bg95-ui-v1.0-6\KeyScan.c"
 442  0032  3400     E  	clr _KEYFLAG[1].0
 443  0033              #line 443 "k:\55555555555555\test\saier-a600n-2260-usa4g-aal-bg95-ui-v1.0-6\KeyScan.c"
 443  0033  0F0A        	mov a,10
 443  0034  0080     E  	mov ra,a
 443  0035  2800     R  	jmp _L59
 443  0036              _L67:
 445  0036              #line 445 "k:\55555555555555\test\saier-a600n-2260-usa4g-aal-bg95-ui-v1.0-6\KeyScan.c"
 445  0036  3C94        	sz [20].1
 445  0037  2800     R  	jmp _L68
 447  0038              #line 447 "k:\55555555555555\test\saier-a600n-2260-usa4g-aal-bg95-ui-v1.0-6\KeyScan.c"
 447  0038  0F09        	mov a,9
 447  0039  0080     E  	mov ra,a
 447  003A  2800     R  	jmp _L59
 447  003B              _L68:
 449  003B              #line 449 "k:\55555555555555\test\saier-a600n-2260-usa4g-aal-bg95-ui-v1.0-6\KeyScan.c"
 449  003B  1F00     E  	clr ra
 449  003C              _L59:
 450  003C              #line 450 "k:\55555555555555\test\saier-a600n-2260-usa4g-aal-bg95-ui-v1.0-6\KeyScan.c"
文件：KeyScan.c    编译器版本 HGASM 0202 页次10

 450  003C  0700     E  	mov a,ra
 450  003D  0003        	ret
 450  003E              _key_scan endp
 450  003E              #line 450 "k:\55555555555555\test\saier-a600n-2260-usa4g-aal-bg95-ui-v1.0-6\KeyScan.c"
 450  003E              #pragma debug scope 1 1
 450  003E              #pragma debug struct_end
 450  003E              #pragma debug struct_end
 450  003E              #pragma debug union_end
 450  003E              #pragma debug union_end
 450  003E              #pragma debug variable 43 1 ___pa "__pa" 1
 450  003E              #pragma debug array 44 8 6 1
 450  003E              #pragma debug array 44 8 6 1
 450  003E              #pragma debug variable 44 1 _R_TIME "R_TIME" 6
 450  003E              #pragma debug variable 8 1 _gu8v_wake_up_time "gu8v_wake_up_time" 1
 450  003E              #pragma debug variable 8 1 _btt_cnt "btt_cnt" 1
 450  003E              #pragma debug variable 10 1 _LOW_V "LOW_V" 2
 450  003E              
 450  003E              ; output external variables
 450  003E              extern _R_TEMPDATA:byte
 450  003E              extern _MODEFLAG:byte
 450  003E              extern _R_alarm_clock:byte
 450  003E              extern _KEYFLAG:byte
 450  003E              extern _R_DISPLAYTIME:byte
 450  003E              extern _TIMERFLAG:byte
 450  003E              extern _gu8v_KeyCurrent:byte
 450  003E              extern _gu8v_Keypress_time:byte
 450  003E              extern _gu8v_KeyLast:byte
 450  003E              extern _gu8v_KeyUp:byte
 450  003E              extern _gu8v_KeyPress:byte
 450  003E              extern _gu8v_KeyNoChangedTime:byte
 450  003E              extern _gu8v_KeyOld:byte
 450  003E              extern _gu8v_KeyDown:byte
 450  003E              extern _Samlpe_Adc1:near
 450  003E              extern _SBR_DISP_DOT_BTT:near
 450  003E              extern _SBR_DISP_HOUR_ON:near
 450  003E              extern _SBR_DISP_MINUTE_ON:near
 450  003E              extern _SBR_DISP_MONTH_ON:near
 450  003E              extern _SBR_DISP_DAY_ON:near
 450  003E              extern _SBR_DISP_DOT_COLD_ON:near
 450  003E              
 450  003E              ; 
 450  003E              ; Generated by holtek-gcc v3.19, Tue Jul 26 12:07:01 2022
 450  003E              ; Rebuild 718
 450  003E              ; end of file


        0 Errors, 0