文件：lcd.c        编译器版本 HGASM 0202 页次1


   1  0000              ; Generated by holtek-gcc v3.19, Tue Jul 26 12:07:03 2022
   2  0000              ; 
   3  0000              ; Configuration:
   4  0000              ;       with long instruction
   5  0000              ;       Multi-ROM, Multi-RAM
   6  0000              ;       bits_per_rom_unit:16
   7  0000              ;       with mp1
   8  0000              ;       with tbhp, address(0x9)
   9  0000              ;          Use tabrd-const
  10  0000              ;       
  11  0000              ; SFR address of long-instruction arch:
  12  0000              ;    mp0 = -1,1,0
  13  0000              ;    mp1 = 4,3,2
  14  0000              ;    mp2 = 14,13,12
  15  0000              ;    tbp = 9,7,8
  16  0000              ;    acc = 5
  17  0000              ;    pcl = 6
  18  0000              ;    status = 10
  19  0000              ;    bp = 11
  20  0000              ;    intc = 32
  21  0000              ;       
  22  0000              ;       
  23  0000              ; use 'tabrdc' instead of 'tabrd'
  24  0000              ;       
  25  0000              
  26  0000              #pragma translator "holtek-gcc 4.6.4" "3.19" "build 20130711"
  27  0000              ; Rebuild 718
  28  0000              
  29  0000              ir equ [2]
  30  0000              mp equ [3]
  31  0000              sbp equ [4]
  32  0000              acc equ [5]
  33  0000              bp equ [11]
  34  0000              tblp equ [7]
  35  0000              tbhp equ [9]
  36  0000              status equ [10]
  37  0000              c equ [10].0
  38  0000              ac equ [10].1
  39  0000              z equ [10].2
  40  0000              ov equ [10].3
  41  0000              cz equ [10].6
  42  0000              sc equ [10].7
  43  0000              intc equ [32]
  44  0000              
  45  0000              extern ra:byte
  46  0000              extern rb:byte
  47  0000              extern rc:byte
  48  0000              extern rd:byte
  49  0000              extern re:byte
  50  0000              extern rf:byte
  51  0000              extern rg:byte
  52  0000              extern rh:byte
  53  0000              extern _Crom2Prom:near
  54  0000              extern _Crom2PromNext:near
  55  0000              
  56  0000              RAMBANK 0 @BITDATASEC, @BITDATASEC1
  57  0000              @HCCINIT	.section 'data'
  58  0000              @HCCINIT0	.section 'data'
  59  0000              @BITDATASEC	 .section 'data'
文件：lcd.ASM      编译器版本 HGASM 0202 页次2

  60  0000              @BITDATASEC1	 .section 'data'
  61  0000              
  62  0000              #pragma debug scope 1 1
  63  0000              	extern __DELAY3:near
  64  0000              	extern __DELAYX3:near
  65  0000              	extern __DELAYX6:near
  66  0000              	extern __DELAYY5:near
  67  0000              	extern __DELAYY3:near
  68  0000              	extern _builtin_holtek_delay_2:byte
  69  0000              public _mmhg_chance_kpa
  70  0000              #pragma debug scope 2 1

  47  0000              #line 47 "k:\55555555555555\test\saier-a600n-2260-usa4g-aal-bg95-ui-v1.0-6\lcd.c"
  47  0000              _mmhg_chance_kpa .section 'code'
  47  0000              _mmhg_chance_kpa proc
  47  0000              public _mmhg_chance_kpa_2
  47  0000  0002[           local _mmhg_chance_kpa_2 db 2 dup(?)	; 2,0
            00
            ]
  47  0002              #pragma debug variable 10 2 _mmhg_chance_kpa_2+0 "pre"
  49  0002              #line 49 "k:\55555555555555\test\saier-a600n-2260-usa4g-aal-bg95-ui-v1.0-6\lcd.c"
  49  0000  0700     R  	mov a,_mmhg_chance_kpa_2[0]  
  49  0001  0080     E  	mov _builtin_holtek_mulhi3_2[0],a  
  49  0002  0700     R  	mov a,_mmhg_chance_kpa_2[1]  
  49  0003  0080     E  	mov _builtin_holtek_mulhi3_2[1],a
  49  0004  0F64        	mov a,100  
  49  0005  0080     E  	mov _builtin_holtek_mulhi3_2[2],a  
  49  0006  1F00     E  	clr _builtin_holtek_mulhi3_2[3]
  49  0007              	fcall _builtin_holtek_mulhi3
  49  000E  0700     E  	mov a,_builtin_holtek_mulhi3_2[4]  
  49  000F  0080     E  	mov rb,a  
  49  0010  0700     E  	mov a,_builtin_holtek_mulhi3_2[5]  
  49  0011  0080     E  	mov rc,a
  51  0012              #line 51 "k:\55555555555555\test\saier-a600n-2260-usa4g-aal-bg95-ui-v1.0-6\lcd.c"
  51  0012  1F00     E  	clr _builtin_holtek_udivmodhi4_2[6]
  51  0013  0700     E  	mov a,rb  
  51  0014  0080     E  	mov _builtin_holtek_udivmodhi4_2[0],a  
  51  0015  0700     E  	mov a,rc  
  51  0016  0080     E  	mov _builtin_holtek_udivmodhi4_2[1],a
  51  0017  0F4B        	mov a,75  
  51  0018  0080     E  	mov _builtin_holtek_udivmodhi4_2[2],a  
  51  0019  1F00     E  	clr _builtin_holtek_udivmodhi4_2[3]
  51  001A              	fcall _builtin_holtek_udivmodhi4
  51  0021  0700     E  	mov a,_builtin_holtek_udivmodhi4_2[0]  
  51  0022  0080     E  	mov ra,a  
  51  0023  0700     E  	mov a,_builtin_holtek_udivmodhi4_2[1]  
  51  0024  0080     E  	mov rb,a
  51  0025  0003        	ret
  51  0026              _mmhg_chance_kpa endp
  51  0026              #line 51 "k:\55555555555555\test\saier-a600n-2260-usa4g-aal-bg95-ui-v1.0-6\lcd.c"
  51  0026              #pragma debug scope 1 1
  51  0026              public _bian
  51  0026              #pragma debug scope 3 1
 121  0026              #line 121 "k:\55555555555555\test\saier-a600n-2260-usa4g-aal-bg95-ui-v1.0-6\lcd.c"
 121  0000              _bian .section 'code'
 121  0000              _bian proc
 121  0000              public _bian_2
 121  0000  0002[           local _bian_2 db 2 dup(?)	; 2,0
            00
            ]
文件：lcd.c        编译器版本 HGASM 0202 页次3

 121  0002              #pragma debug variable 10 3 _bian_2+0 "da"
 123  0002              #line 123 "k:\55555555555555\test\saier-a600n-2260-usa4g-aal-bg95-ui-v1.0-6\lcd.c"
 123  0000  0F9F        	mov a,159
 123  0001  0200     R  	sub a,_bian_2[0]
 123  0002  0F00        	mov a,0
 123  0003  1200     R  	sbc a,_bian_2[1]
 123  0004  380A        	snz c
 123  0005  2800     R  	jmp _L4
 127  0006              #line 127 "k:\55555555555555\test\saier-a600n-2260-usa4g-aal-bg95-ui-v1.0-6\lcd.c"
 127  0006  0F95        	mov a,149
 127  0007  0200     R  	sub a,_bian_2[0]
 127  0008  0F00        	mov a,0
 127  0009  1200     R  	sbc a,_bian_2[1]
 127  000A  380A        	snz c
 127  000B  2800     R  	jmp _L5
 131  000C              #line 131 "k:\55555555555555\test\saier-a600n-2260-usa4g-aal-bg95-ui-v1.0-6\lcd.c"
 131  000C  0F8B        	mov a,139
 131  000D  0200     R  	sub a,_bian_2[0]
 131  000E  0F00        	mov a,0
 131  000F  1200     R  	sbc a,_bian_2[1]
 131  0010  380A        	snz c
 131  0011  2800     R  	jmp _L6
 135  0012              #line 135 "k:\55555555555555\test\saier-a600n-2260-usa4g-aal-bg95-ui-v1.0-6\lcd.c"
 135  0012  0F7B        	mov a,123
 135  0013  0200     R  	sub a,_bian_2[0]
 135  0014  0F00        	mov a,0
 135  0015  1200     R  	sbc a,_bian_2[1]
 135  0016  380A        	snz c
 135  0017  2800     R  	jmp _L7
 139  0018              #line 139 "k:\55555555555555\test\saier-a600n-2260-usa4g-aal-bg95-ui-v1.0-6\lcd.c"
 139  0018  0F6A        	mov a,106
 139  0019  0200     R  	sub a,_bian_2[0]
 139  001A  0F00        	mov a,0
 139  001B  1200     R  	sbc a,_bian_2[1]
 139  001C  380A        	snz c
 139  001D  2800     R  	jmp _L8
 143  001E              #line 143 "k:\55555555555555\test\saier-a600n-2260-usa4g-aal-bg95-ui-v1.0-6\lcd.c"
 143  001E  0F59        	mov a,89
 143  001F  0200     R  	sub a,_bian_2[0]
 143  0020  0F00        	mov a,0
 143  0021  1200     R  	sbc a,_bian_2[1]
 143  0022  380A        	snz c
 143  0023  2800     R  	jmp _L9
 147  0024              #line 147 "k:\55555555555555\test\saier-a600n-2260-usa4g-aal-bg95-ui-v1.0-6\lcd.c"
 147  0024  0F3B        	mov a,59
 147  0025  0200     R  	sub a,_bian_2[0]
 147  0026  0F00        	mov a,0
 147  0027  1200     R  	sbc a,_bian_2[1]
 147  0028  3C0A        	sz c
 147  0029  2800     R  	jmp _L10
 149  002A              #line 149 "k:\55555555555555\test\saier-a600n-2260-usa4g-aal-bg95-ui-v1.0-6\lcd.c"
 149  002A  0F02        	mov a,2
 149  002B  0080     E  	mov ra,a
 149  002C  2800     R  	jmp _L3
 149  002D              _L4:
 125  002D              #line 125 "k:\55555555555555\test\saier-a600n-2260-usa4g-aal-bg95-ui-v1.0-6\lcd.c"
 125  002D  0F08        	mov a,8
 125  002E  0080     E  	mov ra,a
 125  002F  2800     R  	jmp _L3
 125  0030              _L5:
文件：lcd.c        编译器版本 HGASM 0202 页次4

 129  0030              #line 129 "k:\55555555555555\test\saier-a600n-2260-usa4g-aal-bg95-ui-v1.0-6\lcd.c"
 129  0030  0F07        	mov a,7
 129  0031  0080     E  	mov ra,a
 129  0032  2800     R  	jmp _L3
 129  0033              _L6:
 133  0033              #line 133 "k:\55555555555555\test\saier-a600n-2260-usa4g-aal-bg95-ui-v1.0-6\lcd.c"
 133  0033  0F06        	mov a,6
 133  0034  0080     E  	mov ra,a
 133  0035  2800     R  	jmp _L3
 133  0036              _L7:
 137  0036              #line 137 "k:\55555555555555\test\saier-a600n-2260-usa4g-aal-bg95-ui-v1.0-6\lcd.c"
 137  0036  0F05        	mov a,5
 137  0037  0080     E  	mov ra,a
 137  0038  2800     R  	jmp _L3
 137  0039              _L8:
 141  0039              #line 141 "k:\55555555555555\test\saier-a600n-2260-usa4g-aal-bg95-ui-v1.0-6\lcd.c"
 141  0039  0F04        	mov a,4
 141  003A  0080     E  	mov ra,a
 141  003B  2800     R  	jmp _L3
 141  003C              _L9:
 145  003C              #line 145 "k:\55555555555555\test\saier-a600n-2260-usa4g-aal-bg95-ui-v1.0-6\lcd.c"
 145  003C  0F03        	mov a,3
 145  003D  0080     E  	mov ra,a
 145  003E  2800     R  	jmp _L3
 145  003F              _L10:
 153  003F              #line 153 "k:\55555555555555\test\saier-a600n-2260-usa4g-aal-bg95-ui-v1.0-6\lcd.c"
 153  003F  0F01        	mov a,1
 153  0040  0080     E  	mov ra,a
 153  0041              _L3:
 156  0041              #line 156 "k:\55555555555555\test\saier-a600n-2260-usa4g-aal-bg95-ui-v1.0-6\lcd.c"
 156  0041  0700     E  	mov a,ra
 156  0042  0003        	ret
 156  0043              _bian endp
 156  0043              #line 156 "k:\55555555555555\test\saier-a600n-2260-usa4g-aal-bg95-ui-v1.0-6\lcd.c"
 156  0043              #pragma debug scope 1 1
 156  0043              _SEG equ [1024]
 156  0043              public _LCD_INIT_OFF
 156  0043              #pragma debug scope 4 1
 169  0043              #line 169 "k:\55555555555555\test\saier-a600n-2260-usa4g-aal-bg95-ui-v1.0-6\lcd.c"
 169  0000              _LCD_INIT_OFF .section 'code'
 169  0000              _LCD_INIT_OFF proc
 169  0000  0F20        	mov a,32
 169  0001  0080     E  	mov ra,a
 171  0002              #line 171 "k:\55555555555555\test\saier-a600n-2260-usa4g-aal-bg95-ui-v1.0-6\lcd.c"
 171  0002  1F00     E  	clr rb
 171  0003              _L14:
 173  0003              #line 173 "k:\55555555555555\test\saier-a600n-2260-usa4g-aal-bg95-ui-v1.0-6\lcd.c"
 173  0003  0F00        	mov a,low offset _SEG
 173  0004  0300     E  	add a,rb
 173  0005  0083        	mov mp,a
 173  0006  0F04        	mov a,high offset _SEG
 173  0007  1F04        	clr sbp
 173  0008  1384        	adcm a,sbp
 173  0009  0F00        	mov a,0
 173  000A  0082        	mov ir,a
 171  000B              #line 171 "k:\55555555555555\test\saier-a600n-2260-usa4g-aal-bg95-ui-v1.0-6\lcd.c"
 171  000B  1480     E  	inc rb
 171  000C  1780     E  	sdz ra
 171  000D  2800     R  	jmp _L14
 171  000E  0003        	ret
文件：lcd.c        编译器版本 HGASM 0202 页次5

 171  000F              _LCD_INIT_OFF endp
 171  000F              #line 171 "k:\55555555555555\test\saier-a600n-2260-usa4g-aal-bg95-ui-v1.0-6\lcd.c"
 171  000F              #pragma debug scope 1 1
 171  000F              public _LCD_INIT_ON
 171  000F              #pragma debug scope 5 1
 184  000F              #line 184 "k:\55555555555555\test\saier-a600n-2260-usa4g-aal-bg95-ui-v1.0-6\lcd.c"
 184  0000              _LCD_INIT_ON .section 'code'
 184  0000              _LCD_INIT_ON proc
 184  0000  0F20        	mov a,32
 184  0001  0080     E  	mov ra,a
 186  0002              #line 186 "k:\55555555555555\test\saier-a600n-2260-usa4g-aal-bg95-ui-v1.0-6\lcd.c"
 186  0002  1F00     E  	clr rb
 186  0003              _L17:
 188  0003              #line 188 "k:\55555555555555\test\saier-a600n-2260-usa4g-aal-bg95-ui-v1.0-6\lcd.c"
 188  0003  0F00        	mov a,low offset _SEG
 188  0004  0300     E  	add a,rb
 188  0005  0083        	mov mp,a
 188  0006  0F04        	mov a,high offset _SEG
 188  0007  1F04        	clr sbp
 188  0008  1384        	adcm a,sbp
 188  0009  0FFF        	mov a,255
 188  000A  0082        	mov ir,a
 186  000B              #line 186 "k:\55555555555555\test\saier-a600n-2260-usa4g-aal-bg95-ui-v1.0-6\lcd.c"
 186  000B  1480     E  	inc rb
 186  000C  1780     E  	sdz ra
 186  000D  2800     R  	jmp _L17
 186  000E  0003        	ret
 186  000F              _LCD_INIT_ON endp
 186  000F              #line 186 "k:\55555555555555\test\saier-a600n-2260-usa4g-aal-bg95-ui-v1.0-6\lcd.c"
 186  000F              #pragma debug scope 1 1
 186  000F              public _SBR_DISP_DOT_COLD_ON
 186  000F              #pragma debug scope 6 1
 194  000F              #line 194 "k:\55555555555555\test\saier-a600n-2260-usa4g-aal-bg95-ui-v1.0-6\lcd.c"
 194  0000              _SBR_DISP_DOT_COLD_ON .section 'code'
 194  0000              _SBR_DISP_DOT_COLD_ON proc
 195  0000              #line 195 "k:\55555555555555\test\saier-a600n-2260-usa4g-aal-bg95-ui-v1.0-6\lcd.c"
 195  0000  B083 0004   	lset [1027].1
 195  0002  0003        	ret
 195  0003              _SBR_DISP_DOT_COLD_ON endp
 195  0003              #line 195 "k:\55555555555555\test\saier-a600n-2260-usa4g-aal-bg95-ui-v1.0-6\lcd.c"
 195  0003              #pragma debug scope 1 1
 195  0003              public _SBR_DISP_DOT_COLD_OFF
 195  0003              #pragma debug scope 7 1
 199  0003              #line 199 "k:\55555555555555\test\saier-a600n-2260-usa4g-aal-bg95-ui-v1.0-6\lcd.c"
 199  0000              _SBR_DISP_DOT_COLD_OFF .section 'code'
 199  0000              _SBR_DISP_DOT_COLD_OFF proc
 200  0000              #line 200 "k:\55555555555555\test\saier-a600n-2260-usa4g-aal-bg95-ui-v1.0-6\lcd.c"
 200  0000  B483 0004   	lclr [1027].1
 200  0002  0003        	ret
 200  0003              _SBR_DISP_DOT_COLD_OFF endp
 200  0003              #line 200 "k:\55555555555555\test\saier-a600n-2260-usa4g-aal-bg95-ui-v1.0-6\lcd.c"
 200  0003              #pragma debug scope 1 1
 200  0003              public _SBR_DISP_DOT_COL_ON
 200  0003              #pragma debug scope 8 1
 204  0003              #line 204 "k:\55555555555555\test\saier-a600n-2260-usa4g-aal-bg95-ui-v1.0-6\lcd.c"
 204  0000              _SBR_DISP_DOT_COL_ON .section 'code'
 204  0000              _SBR_DISP_DOT_COL_ON proc
 205  0000              #line 205 "k:\55555555555555\test\saier-a600n-2260-usa4g-aal-bg95-ui-v1.0-6\lcd.c"
 205  0000  B18A 0004   	lset [1034].3
 205  0002  0003        	ret
文件：lcd.c        编译器版本 HGASM 0202 页次6

 205  0003              _SBR_DISP_DOT_COL_ON endp
 205  0003              #line 205 "k:\55555555555555\test\saier-a600n-2260-usa4g-aal-bg95-ui-v1.0-6\lcd.c"
 205  0003              #pragma debug scope 1 1
 205  0003              public _SBR_DISP_DOT_COL_OFF
 205  0003              #pragma debug scope 9 1
 208  0003              #line 208 "k:\55555555555555\test\saier-a600n-2260-usa4g-aal-bg95-ui-v1.0-6\lcd.c"
 208  0000              _SBR_DISP_DOT_COL_OFF .section 'code'
 208  0000              _SBR_DISP_DOT_COL_OFF proc
 209  0000              #line 209 "k:\55555555555555\test\saier-a600n-2260-usa4g-aal-bg95-ui-v1.0-6\lcd.c"
 209  0000  B58A 0004   	lclr [1034].3
 209  0002  0003        	ret
 209  0003              _SBR_DISP_DOT_COL_OFF endp
 209  0003              #line 209 "k:\55555555555555\test\saier-a600n-2260-usa4g-aal-bg95-ui-v1.0-6\lcd.c"
 209  0003              #pragma debug scope 1 1
 209  0003              public _SBR_DISP_DOT_JIA_ON
 209  0003              #pragma debug scope 10 1
 214  0003              #line 214 "k:\55555555555555\test\saier-a600n-2260-usa4g-aal-bg95-ui-v1.0-6\lcd.c"
 214  0000              _SBR_DISP_DOT_JIA_ON .section 'code'
 214  0000              _SBR_DISP_DOT_JIA_ON proc
 215  0000              #line 215 "k:\55555555555555\test\saier-a600n-2260-usa4g-aal-bg95-ui-v1.0-6\lcd.c"
 215  0000  B008 0004   	lset [1032].0
 215  0002  0003        	ret
 215  0003              _SBR_DISP_DOT_JIA_ON endp
 215  0003              #line 215 "k:\55555555555555\test\saier-a600n-2260-usa4g-aal-bg95-ui-v1.0-6\lcd.c"
 215  0003              #pragma debug scope 1 1
 215  0003              public _SBR_DISP_DOT_JIA_OFF
 215  0003              #pragma debug scope 11 1
 219  0003              #line 219 "k:\55555555555555\test\saier-a600n-2260-usa4g-aal-bg95-ui-v1.0-6\lcd.c"
 219  0000              _SBR_DISP_DOT_JIA_OFF .section 'code'
 219  0000              _SBR_DISP_DOT_JIA_OFF proc
 220  0000              #line 220 "k:\55555555555555\test\saier-a600n-2260-usa4g-aal-bg95-ui-v1.0-6\lcd.c"
 220  0000  B408 0004   	lclr [1032].0
 220  0002  0003        	ret
 220  0003              _SBR_DISP_DOT_JIA_OFF endp
 220  0003              #line 220 "k:\55555555555555\test\saier-a600n-2260-usa4g-aal-bg95-ui-v1.0-6\lcd.c"
 220  0003              #pragma debug scope 1 1
 220  0003              public _SBR_DISP_DOT_JIAN_ON
 220  0003              #pragma debug scope 12 1
 225  0003              #line 225 "k:\55555555555555\test\saier-a600n-2260-usa4g-aal-bg95-ui-v1.0-6\lcd.c"
 225  0000              _SBR_DISP_DOT_JIAN_ON .section 'code'
 225  0000              _SBR_DISP_DOT_JIAN_ON proc
 226  0000              #line 226 "k:\55555555555555\test\saier-a600n-2260-usa4g-aal-bg95-ui-v1.0-6\lcd.c"
 226  0000  B096 0004   	lset [1046].1
 226  0002  0003        	ret
 226  0003              _SBR_DISP_DOT_JIAN_ON endp
 226  0003              #line 226 "k:\55555555555555\test\saier-a600n-2260-usa4g-aal-bg95-ui-v1.0-6\lcd.c"
 226  0003              #pragma debug scope 1 1
 226  0003              public _SBR_DISP_DOT_JIAN_OFF
 226  0003              #pragma debug scope 13 1
 229  0003              #line 229 "k:\55555555555555\test\saier-a600n-2260-usa4g-aal-bg95-ui-v1.0-6\lcd.c"
 229  0000              _SBR_DISP_DOT_JIAN_OFF .section 'code'
 229  0000              _SBR_DISP_DOT_JIAN_OFF proc
 230  0000              #line 230 "k:\55555555555555\test\saier-a600n-2260-usa4g-aal-bg95-ui-v1.0-6\lcd.c"
 230  0000  B496 0004   	lclr [1046].1
 230  0002  0003        	ret
 230  0003              _SBR_DISP_DOT_JIAN_OFF endp
 230  0003              #line 230 "k:\55555555555555\test\saier-a600n-2260-usa4g-aal-bg95-ui-v1.0-6\lcd.c"
 230  0003              #pragma debug scope 1 1
 230  0003              public _SBR_DISP_DOT_DIA_ON
 230  0003              #pragma debug scope 14 1
文件：lcd.c        编译器版本 HGASM 0202 页次7

 248  0003              #line 248 "k:\55555555555555\test\saier-a600n-2260-usa4g-aal-bg95-ui-v1.0-6\lcd.c"
 248  0000              _SBR_DISP_DOT_DIA_ON .section 'code'
 248  0000              _SBR_DISP_DOT_DIA_ON proc
 249  0000              #line 249 "k:\55555555555555\test\saier-a600n-2260-usa4g-aal-bg95-ui-v1.0-6\lcd.c"
 249  0000  B10F 0004   	lset [1039].2
 249  0002  0003        	ret
 249  0003              _SBR_DISP_DOT_DIA_ON endp
 249  0003              #line 249 "k:\55555555555555\test\saier-a600n-2260-usa4g-aal-bg95-ui-v1.0-6\lcd.c"
 249  0003              #pragma debug scope 1 1
 249  0003              public _SBR_DISP_DOT_DIA_OFF
 249  0003              #pragma debug scope 15 1
 253  0003              #line 253 "k:\55555555555555\test\saier-a600n-2260-usa4g-aal-bg95-ui-v1.0-6\lcd.c"
 253  0000              _SBR_DISP_DOT_DIA_OFF .section 'code'
 253  0000              _SBR_DISP_DOT_DIA_OFF proc
 254  0000              #line 254 "k:\55555555555555\test\saier-a600n-2260-usa4g-aal-bg95-ui-v1.0-6\lcd.c"
 254  0000  B50F 0004   	lclr [1039].2
 254  0002  0003        	ret
 254  0003              _SBR_DISP_DOT_DIA_OFF endp
 254  0003              #line 254 "k:\55555555555555\test\saier-a600n-2260-usa4g-aal-bg95-ui-v1.0-6\lcd.c"
 254  0003              #pragma debug scope 1 1
 254  0003              public _SBR_DISP_DP1_ON
 254  0003              #pragma debug scope 16 1
 258  0003              #line 258 "k:\55555555555555\test\saier-a600n-2260-usa4g-aal-bg95-ui-v1.0-6\lcd.c"
 258  0000              _SBR_DISP_DP1_ON .section 'code'
 258  0000              _SBR_DISP_DP1_ON proc
 259  0000              #line 259 "k:\55555555555555\test\saier-a600n-2260-usa4g-aal-bg95-ui-v1.0-6\lcd.c"
 259  0000  B00C 0004   	lset [1036].0
 259  0002  0003        	ret
 259  0003              _SBR_DISP_DP1_ON endp
 259  0003              #line 259 "k:\55555555555555\test\saier-a600n-2260-usa4g-aal-bg95-ui-v1.0-6\lcd.c"
 259  0003              #pragma debug scope 1 1
 259  0003              public _SBR_DISP_DP1_OFF
 259  0003              #pragma debug scope 17 1
 263  0003              #line 263 "k:\55555555555555\test\saier-a600n-2260-usa4g-aal-bg95-ui-v1.0-6\lcd.c"
 263  0000              _SBR_DISP_DP1_OFF .section 'code'
 263  0000              _SBR_DISP_DP1_OFF proc
 264  0000              #line 264 "k:\55555555555555\test\saier-a600n-2260-usa4g-aal-bg95-ui-v1.0-6\lcd.c"
 264  0000  B40C 0004   	lclr [1036].0
 264  0002  0003        	ret
 264  0003              _SBR_DISP_DP1_OFF endp
 264  0003              #line 264 "k:\55555555555555\test\saier-a600n-2260-usa4g-aal-bg95-ui-v1.0-6\lcd.c"
 264  0003              #pragma debug scope 1 1
 264  0003              public _SBR_DISP_DP2_ON
 264  0003              #pragma debug scope 18 1
 268  0003              #line 268 "k:\55555555555555\test\saier-a600n-2260-usa4g-aal-bg95-ui-v1.0-6\lcd.c"
 268  0000              _SBR_DISP_DP2_ON .section 'code'
 268  0000              _SBR_DISP_DP2_ON proc
 269  0000              #line 269 "k:\55555555555555\test\saier-a600n-2260-usa4g-aal-bg95-ui-v1.0-6\lcd.c"
 269  0000  B111 0004   	lset [1041].2
 269  0002  0003        	ret
 269  0003              _SBR_DISP_DP2_ON endp
 269  0003              #line 269 "k:\55555555555555\test\saier-a600n-2260-usa4g-aal-bg95-ui-v1.0-6\lcd.c"
 269  0003              #pragma debug scope 1 1
 269  0003              public _SBR_DISP_DP2_OFF
 269  0003              #pragma debug scope 19 1
 273  0003              #line 273 "k:\55555555555555\test\saier-a600n-2260-usa4g-aal-bg95-ui-v1.0-6\lcd.c"
 273  0000              _SBR_DISP_DP2_OFF .section 'code'
 273  0000              _SBR_DISP_DP2_OFF proc
 274  0000              #line 274 "k:\55555555555555\test\saier-a600n-2260-usa4g-aal-bg95-ui-v1.0-6\lcd.c"
 274  0000  B511 0004   	lclr [1041].2
文件：lcd.c        编译器版本 HGASM 0202 页次8

 274  0002  0003        	ret
 274  0003              _SBR_DISP_DP2_OFF endp
 274  0003              #line 274 "k:\55555555555555\test\saier-a600n-2260-usa4g-aal-bg95-ui-v1.0-6\lcd.c"
 274  0003              #pragma debug scope 1 1
 274  0003              public _SBR_DISP_DOT_KPA_ON
 274  0003              #pragma debug scope 20 1
 279  0003              #line 279 "k:\55555555555555\test\saier-a600n-2260-usa4g-aal-bg95-ui-v1.0-6\lcd.c"
 279  0000              _SBR_DISP_DOT_KPA_ON .section 'code'
 279  0000              _SBR_DISP_DOT_KPA_ON proc
 280  0000              #line 280 "k:\55555555555555\test\saier-a600n-2260-usa4g-aal-bg95-ui-v1.0-6\lcd.c"
 280  0000  B112 0004   	lset [1042].2
 280  0002  0003        	ret
 280  0003              _SBR_DISP_DOT_KPA_ON endp
 280  0003              #line 280 "k:\55555555555555\test\saier-a600n-2260-usa4g-aal-bg95-ui-v1.0-6\lcd.c"
 280  0003              #pragma debug scope 1 1
 280  0003              public _SBR_DISP_DOT_KPA_OFF
 280  0003              #pragma debug scope 21 1
 284  0003              #line 284 "k:\55555555555555\test\saier-a600n-2260-usa4g-aal-bg95-ui-v1.0-6\lcd.c"
 284  0000              _SBR_DISP_DOT_KPA_OFF .section 'code'
 284  0000              _SBR_DISP_DOT_KPA_OFF proc
 285  0000              #line 285 "k:\55555555555555\test\saier-a600n-2260-usa4g-aal-bg95-ui-v1.0-6\lcd.c"
 285  0000  B512 0004   	lclr [1042].2
 285  0002  0003        	ret
 285  0003              _SBR_DISP_DOT_KPA_OFF endp
 285  0003              #line 285 "k:\55555555555555\test\saier-a600n-2260-usa4g-aal-bg95-ui-v1.0-6\lcd.c"
 285  0003              #pragma debug scope 1 1
 285  0003              public _SBR_DISP_DOT_MEMORY_ON
 285  0003              #pragma debug scope 22 1
 290  0003              #line 290 "k:\55555555555555\test\saier-a600n-2260-usa4g-aal-bg95-ui-v1.0-6\lcd.c"
 290  0000              _SBR_DISP_DOT_MEMORY_ON .section 'code'
 290  0000              _SBR_DISP_DOT_MEMORY_ON proc
 291  0000              #line 291 "k:\55555555555555\test\saier-a600n-2260-usa4g-aal-bg95-ui-v1.0-6\lcd.c"
 291  0000  B197 0004   	lset [1047].3
 291  0002  0003        	ret
 291  0003              _SBR_DISP_DOT_MEMORY_ON endp
 291  0003              #line 291 "k:\55555555555555\test\saier-a600n-2260-usa4g-aal-bg95-ui-v1.0-6\lcd.c"
 291  0003              #pragma debug scope 1 1
 291  0003              public _SBR_DISP_DOT_MEMORY_OFF
 291  0003              #pragma debug scope 23 1
 295  0003              #line 295 "k:\55555555555555\test\saier-a600n-2260-usa4g-aal-bg95-ui-v1.0-6\lcd.c"
 295  0000              _SBR_DISP_DOT_MEMORY_OFF .section 'code'
 295  0000              _SBR_DISP_DOT_MEMORY_OFF proc
 296  0000              #line 296 "k:\55555555555555\test\saier-a600n-2260-usa4g-aal-bg95-ui-v1.0-6\lcd.c"
 296  0000  B597 0004   	lclr [1047].3
 296  0002  0003        	ret
 296  0003              _SBR_DISP_DOT_MEMORY_OFF endp
 296  0003              #line 296 "k:\55555555555555\test\saier-a600n-2260-usa4g-aal-bg95-ui-v1.0-6\lcd.c"
 296  0003              #pragma debug scope 1 1
 296  0003              public _SBR_DISP_DOT_HEART_ON
 296  0003              #pragma debug scope 24 1
 300  0003              #line 300 "k:\55555555555555\test\saier-a600n-2260-usa4g-aal-bg95-ui-v1.0-6\lcd.c"
 300  0000              _SBR_DISP_DOT_HEART_ON .section 'code'
 300  0000              _SBR_DISP_DOT_HEART_ON proc
 301  0000              #line 301 "k:\55555555555555\test\saier-a600n-2260-usa4g-aal-bg95-ui-v1.0-6\lcd.c"
 301  0000  B195 0004   	lset [1045].3
 301  0002  0003        	ret
 301  0003              _SBR_DISP_DOT_HEART_ON endp
 301  0003              #line 301 "k:\55555555555555\test\saier-a600n-2260-usa4g-aal-bg95-ui-v1.0-6\lcd.c"
 301  0003              #pragma debug scope 1 1
 301  0003              public _SBR_DISP_DOT_HEART_OFF
文件：lcd.c        编译器版本 HGASM 0202 页次9

 301  0003              #pragma debug scope 25 1
 305  0003              #line 305 "k:\55555555555555\test\saier-a600n-2260-usa4g-aal-bg95-ui-v1.0-6\lcd.c"
 305  0000              _SBR_DISP_DOT_HEART_OFF .section 'code'
 305  0000              _SBR_DISP_DOT_HEART_OFF proc
 306  0000              #line 306 "k:\55555555555555\test\saier-a600n-2260-usa4g-aal-bg95-ui-v1.0-6\lcd.c"
 306  0000  B595 0004   	lclr [1045].3
 306  0002  0003        	ret
 306  0003              _SBR_DISP_DOT_HEART_OFF endp
 306  0003              #line 306 "k:\55555555555555\test\saier-a600n-2260-usa4g-aal-bg95-ui-v1.0-6\lcd.c"
 306  0003              #pragma debug scope 1 1
 306  0003              public _SBR_DISP_DOT_HEART2_ON
 306  0003              #pragma debug scope 26 1
 311  0003              #line 311 "k:\55555555555555\test\saier-a600n-2260-usa4g-aal-bg95-ui-v1.0-6\lcd.c"
 311  0000              _SBR_DISP_DOT_HEART2_ON .section 'code'
 311  0000              _SBR_DISP_DOT_HEART2_ON proc
 312  0000              #line 312 "k:\55555555555555\test\saier-a600n-2260-usa4g-aal-bg95-ui-v1.0-6\lcd.c"
 312  0000  B194 0004   	lset [1044].3
 312  0002  0003        	ret
 312  0003              _SBR_DISP_DOT_HEART2_ON endp
 312  0003              #line 312 "k:\55555555555555\test\saier-a600n-2260-usa4g-aal-bg95-ui-v1.0-6\lcd.c"
 312  0003              #pragma debug scope 1 1
 312  0003              public _SBR_DISP_DOT_HEART2_OFF
 312  0003              #pragma debug scope 27 1
 316  0003              #line 316 "k:\55555555555555\test\saier-a600n-2260-usa4g-aal-bg95-ui-v1.0-6\lcd.c"
 316  0000              _SBR_DISP_DOT_HEART2_OFF .section 'code'
 316  0000              _SBR_DISP_DOT_HEART2_OFF proc
 317  0000              #line 317 "k:\55555555555555\test\saier-a600n-2260-usa4g-aal-bg95-ui-v1.0-6\lcd.c"
 317  0000  B594 0004   	lclr [1044].3
 317  0002  0003        	ret
 317  0003              _SBR_DISP_DOT_HEART2_OFF endp
 317  0003              #line 317 "k:\55555555555555\test\saier-a600n-2260-usa4g-aal-bg95-ui-v1.0-6\lcd.c"
 317  0003              #pragma debug scope 1 1
 317  0003              public _SBR_DISP_DOT_LO_ON
 317  0003              #pragma debug scope 28 1
 322  0003              #line 322 "k:\55555555555555\test\saier-a600n-2260-usa4g-aal-bg95-ui-v1.0-6\lcd.c"
 322  0000              _SBR_DISP_DOT_LO_ON .section 'code'
 322  0000              _SBR_DISP_DOT_LO_ON proc
 323  0000              #line 323 "k:\55555555555555\test\saier-a600n-2260-usa4g-aal-bg95-ui-v1.0-6\lcd.c"
 323  0000  B006 0004   	lset [1030].0
 323  0002  0003        	ret
 323  0003              _SBR_DISP_DOT_LO_ON endp
 323  0003              #line 323 "k:\55555555555555\test\saier-a600n-2260-usa4g-aal-bg95-ui-v1.0-6\lcd.c"
 323  0003              #pragma debug scope 1 1
 323  0003              public _SBR_DISP_DOT_LO_OFF
 323  0003              #pragma debug scope 29 1
 326  0003              #line 326 "k:\55555555555555\test\saier-a600n-2260-usa4g-aal-bg95-ui-v1.0-6\lcd.c"
 326  0000              _SBR_DISP_DOT_LO_OFF .section 'code'
 326  0000              _SBR_DISP_DOT_LO_OFF proc
 327  0000              #line 327 "k:\55555555555555\test\saier-a600n-2260-usa4g-aal-bg95-ui-v1.0-6\lcd.c"
 327  0000  B406 0004   	lclr [1030].0
 327  0002  0003        	ret
 327  0003              _SBR_DISP_DOT_LO_OFF endp
 327  0003              #line 327 "k:\55555555555555\test\saier-a600n-2260-usa4g-aal-bg95-ui-v1.0-6\lcd.c"
 327  0003              #pragma debug scope 1 1
 327  0003              public _SBR_DISP_DOT_GPRST_ON
 327  0003              #pragma debug scope 30 1
 331  0003              #line 331 "k:\55555555555555\test\saier-a600n-2260-usa4g-aal-bg95-ui-v1.0-6\lcd.c"
 331  0000              _SBR_DISP_DOT_GPRST_ON .section 'code'
 331  0000              _SBR_DISP_DOT_GPRST_ON proc
 332  0000              #line 332 "k:\55555555555555\test\saier-a600n-2260-usa4g-aal-bg95-ui-v1.0-6\lcd.c"
文件：lcd.c        编译器版本 HGASM 0202 页次10

 332  0000  B196 0004   	lset [1046].3
 332  0002  0003        	ret
 332  0003              _SBR_DISP_DOT_GPRST_ON endp
 332  0003              #line 332 "k:\55555555555555\test\saier-a600n-2260-usa4g-aal-bg95-ui-v1.0-6\lcd.c"
 332  0003              #pragma debug scope 1 1
 332  0003              public _SBR_DISP_DOT_GPRST_OFF
 332  0003              #pragma debug scope 31 1
 335  0003              #line 335 "k:\55555555555555\test\saier-a600n-2260-usa4g-aal-bg95-ui-v1.0-6\lcd.c"
 335  0000              _SBR_DISP_DOT_GPRST_OFF .section 'code'
 335  0000              _SBR_DISP_DOT_GPRST_OFF proc
 336  0000              #line 336 "k:\55555555555555\test\saier-a600n-2260-usa4g-aal-bg95-ui-v1.0-6\lcd.c"
 336  0000  B596 0004   	lclr [1046].3
 336  0002  0003        	ret
 336  0003              _SBR_DISP_DOT_GPRST_OFF endp
 336  0003              #line 336 "k:\55555555555555\test\saier-a600n-2260-usa4g-aal-bg95-ui-v1.0-6\lcd.c"
 336  0003              #pragma debug scope 1 1
 336  0003              public _SBR_DISP_DOT_GPRSS_ON
 336  0003              #pragma debug scope 32 1
 340  0003              #line 340 "k:\55555555555555\test\saier-a600n-2260-usa4g-aal-bg95-ui-v1.0-6\lcd.c"
 340  0000              _SBR_DISP_DOT_GPRSS_ON .section 'code'
 340  0000              _SBR_DISP_DOT_GPRSS_ON proc
 341  0000              #line 341 "k:\55555555555555\test\saier-a600n-2260-usa4g-aal-bg95-ui-v1.0-6\lcd.c"
 341  0000  B294 0004   	lset [1044].5
 341  0002  0003        	ret
 341  0003              _SBR_DISP_DOT_GPRSS_ON endp
 341  0003              #line 341 "k:\55555555555555\test\saier-a600n-2260-usa4g-aal-bg95-ui-v1.0-6\lcd.c"
 341  0003              #pragma debug scope 1 1
 341  0003              public _SBR_DISP_DOT_GPRSS_OFF
 341  0003              #pragma debug scope 33 1
 344  0003              #line 344 "k:\55555555555555\test\saier-a600n-2260-usa4g-aal-bg95-ui-v1.0-6\lcd.c"
 344  0000              _SBR_DISP_DOT_GPRSS_OFF .section 'code'
 344  0000              _SBR_DISP_DOT_GPRSS_OFF proc
 345  0000              #line 345 "k:\55555555555555\test\saier-a600n-2260-usa4g-aal-bg95-ui-v1.0-6\lcd.c"
 345  0000  B694 0004   	lclr [1044].5
 345  0002  0003        	ret
 345  0003              _SBR_DISP_DOT_GPRSS_OFF endp
 345  0003              #line 345 "k:\55555555555555\test\saier-a600n-2260-usa4g-aal-bg95-ui-v1.0-6\lcd.c"
 345  0003              #pragma debug scope 1 1
 345  0003              public _SBR_DISP_DOT_MOVE_ON
 345  0003              #pragma debug scope 34 1
 370  0003              #line 370 "k:\55555555555555\test\saier-a600n-2260-usa4g-aal-bg95-ui-v1.0-6\lcd.c"
 370  0000              _SBR_DISP_DOT_MOVE_ON .section 'code'
 370  0000              _SBR_DISP_DOT_MOVE_ON proc
 371  0000              #line 371 "k:\55555555555555\test\saier-a600n-2260-usa4g-aal-bg95-ui-v1.0-6\lcd.c"
 371  0000  B116 0004   	lset [1046].2
 371  0002  0003        	ret
 371  0003              _SBR_DISP_DOT_MOVE_ON endp
 371  0003              #line 371 "k:\55555555555555\test\saier-a600n-2260-usa4g-aal-bg95-ui-v1.0-6\lcd.c"
 371  0003              #pragma debug scope 1 1
 371  0003              public _SBR_DISP_DOT_MOVE_OFF
 371  0003              #pragma debug scope 35 1
 374  0003              #line 374 "k:\55555555555555\test\saier-a600n-2260-usa4g-aal-bg95-ui-v1.0-6\lcd.c"
 374  0000              _SBR_DISP_DOT_MOVE_OFF .section 'code'
 374  0000              _SBR_DISP_DOT_MOVE_OFF proc
 375  0000              #line 375 "k:\55555555555555\test\saier-a600n-2260-usa4g-aal-bg95-ui-v1.0-6\lcd.c"
 375  0000  B516 0004   	lclr [1046].2
 375  0002  0003        	ret
 375  0003              _SBR_DISP_DOT_MOVE_OFF endp
 375  0003              #line 375 "k:\55555555555555\test\saier-a600n-2260-usa4g-aal-bg95-ui-v1.0-6\lcd.c"
 375  0003              #pragma debug scope 1 1
文件：lcd.c        编译器版本 HGASM 0202 页次11

 375  0003              public _SBR_DISP_DOT_ASCVD_ON
 375  0003              #pragma debug scope 36 1
 381  0003              #line 381 "k:\55555555555555\test\saier-a600n-2260-usa4g-aal-bg95-ui-v1.0-6\lcd.c"
 381  0000              _SBR_DISP_DOT_ASCVD_ON .section 'code'
 381  0000              _SBR_DISP_DOT_ASCVD_ON proc
 382  0000              #line 382 "k:\55555555555555\test\saier-a600n-2260-usa4g-aal-bg95-ui-v1.0-6\lcd.c"
 382  0000  B214 0004   	lset [1044].4
 382  0002  0003        	ret
 382  0003              _SBR_DISP_DOT_ASCVD_ON endp
 382  0003              #line 382 "k:\55555555555555\test\saier-a600n-2260-usa4g-aal-bg95-ui-v1.0-6\lcd.c"
 382  0003              #pragma debug scope 1 1
 382  0003              public _SBR_DISP_DOT_ASCVD_OFF
 382  0003              #pragma debug scope 37 1
 385  0003              #line 385 "k:\55555555555555\test\saier-a600n-2260-usa4g-aal-bg95-ui-v1.0-6\lcd.c"
 385  0000              _SBR_DISP_DOT_ASCVD_OFF .section 'code'
 385  0000              _SBR_DISP_DOT_ASCVD_OFF proc
 386  0000              #line 386 "k:\55555555555555\test\saier-a600n-2260-usa4g-aal-bg95-ui-v1.0-6\lcd.c"
 386  0000  B614 0004   	lclr [1044].4
 386  0002  0003        	ret
 386  0003              _SBR_DISP_DOT_ASCVD_OFF endp
 386  0003              #line 386 "k:\55555555555555\test\saier-a600n-2260-usa4g-aal-bg95-ui-v1.0-6\lcd.c"
 386  0003              #pragma debug scope 1 1
 386  0003              public _SBR_DISP_DOT_U2_ON
 386  0003              #pragma debug scope 38 1
 389  0003              #line 389 "k:\55555555555555\test\saier-a600n-2260-usa4g-aal-bg95-ui-v1.0-6\lcd.c"
 389  0000              _SBR_DISP_DOT_U2_ON .section 'code'
 389  0000              _SBR_DISP_DOT_U2_ON proc
 390  0000              #line 390 "k:\55555555555555\test\saier-a600n-2260-usa4g-aal-bg95-ui-v1.0-6\lcd.c"
 390  0000  B108 0004   	lset [1032].2
 390  0002  0003        	ret
 390  0003              _SBR_DISP_DOT_U2_ON endp
 390  0003              #line 390 "k:\55555555555555\test\saier-a600n-2260-usa4g-aal-bg95-ui-v1.0-6\lcd.c"
 390  0003              #pragma debug scope 1 1
 390  0003              public _SBR_DISP_DOT_U2_OFF
 390  0003              #pragma debug scope 39 1
 393  0003              #line 393 "k:\55555555555555\test\saier-a600n-2260-usa4g-aal-bg95-ui-v1.0-6\lcd.c"
 393  0000              _SBR_DISP_DOT_U2_OFF .section 'code'
 393  0000              _SBR_DISP_DOT_U2_OFF proc
 394  0000              #line 394 "k:\55555555555555\test\saier-a600n-2260-usa4g-aal-bg95-ui-v1.0-6\lcd.c"
 394  0000  B508 0004   	lclr [1032].2
 394  0002  0003        	ret
 394  0003              _SBR_DISP_DOT_U2_OFF endp
 394  0003              #line 394 "k:\55555555555555\test\saier-a600n-2260-usa4g-aal-bg95-ui-v1.0-6\lcd.c"
 394  0003              #pragma debug scope 1 1
 394  0003              public _SBR_DISP_DOT_U1_ON
 394  0003              #pragma debug scope 40 1
 397  0003              #line 397 "k:\55555555555555\test\saier-a600n-2260-usa4g-aal-bg95-ui-v1.0-6\lcd.c"
 397  0000              _SBR_DISP_DOT_U1_ON .section 'code'
 397  0000              _SBR_DISP_DOT_U1_ON proc
 398  0000              #line 398 "k:\55555555555555\test\saier-a600n-2260-usa4g-aal-bg95-ui-v1.0-6\lcd.c"
 398  0000  B107 0004   	lset [1031].2
 398  0002  0003        	ret
 398  0003              _SBR_DISP_DOT_U1_ON endp
 398  0003              #line 398 "k:\55555555555555\test\saier-a600n-2260-usa4g-aal-bg95-ui-v1.0-6\lcd.c"
 398  0003              #pragma debug scope 1 1
 398  0003              public _SBR_DISP_DOT_U1_OFF
 398  0003              #pragma debug scope 41 1
 401  0003              #line 401 "k:\55555555555555\test\saier-a600n-2260-usa4g-aal-bg95-ui-v1.0-6\lcd.c"
 401  0000              _SBR_DISP_DOT_U1_OFF .section 'code'
 401  0000              _SBR_DISP_DOT_U1_OFF proc
文件：lcd.c        编译器版本 HGASM 0202 页次12

 402  0000              #line 402 "k:\55555555555555\test\saier-a600n-2260-usa4g-aal-bg95-ui-v1.0-6\lcd.c"
 402  0000  B507 0004   	lclr [1031].2
 402  0002  0003        	ret
 402  0003              _SBR_DISP_DOT_U1_OFF endp
 402  0003              #line 402 "k:\55555555555555\test\saier-a600n-2260-usa4g-aal-bg95-ui-v1.0-6\lcd.c"
 402  0003              #pragma debug scope 1 1
 402  0003              public _SBR_DISP_DOT_OK_ON
 402  0003              #pragma debug scope 42 1
 407  0003              #line 407 "k:\55555555555555\test\saier-a600n-2260-usa4g-aal-bg95-ui-v1.0-6\lcd.c"
 407  0000              _SBR_DISP_DOT_OK_ON .section 'code'
 407  0000              _SBR_DISP_DOT_OK_ON proc
 408  0000              #line 408 "k:\55555555555555\test\saier-a600n-2260-usa4g-aal-bg95-ui-v1.0-6\lcd.c"
 408  0000  B295 0004   	lset [1045].5
 408  0002  0003        	ret
 408  0003              _SBR_DISP_DOT_OK_ON endp
 408  0003              #line 408 "k:\55555555555555\test\saier-a600n-2260-usa4g-aal-bg95-ui-v1.0-6\lcd.c"
 408  0003              #pragma debug scope 1 1
 408  0003              public _SBR_DISP_DOT_OK_OFF
 408  0003              #pragma debug scope 43 1
 411  0003              #line 411 "k:\55555555555555\test\saier-a600n-2260-usa4g-aal-bg95-ui-v1.0-6\lcd.c"
 411  0000              _SBR_DISP_DOT_OK_OFF .section 'code'
 411  0000              _SBR_DISP_DOT_OK_OFF proc
 412  0000              #line 412 "k:\55555555555555\test\saier-a600n-2260-usa4g-aal-bg95-ui-v1.0-6\lcd.c"
 412  0000  B695 0004   	lclr [1045].5
 412  0002  0003        	ret
 412  0003              _SBR_DISP_DOT_OK_OFF endp
 412  0003              #line 412 "k:\55555555555555\test\saier-a600n-2260-usa4g-aal-bg95-ui-v1.0-6\lcd.c"
 412  0003              #pragma debug scope 1 1
 412  0003              public _SBR_DISP_DOT_OKQ_ON
 412  0003              #pragma debug scope 44 1
 416  0003              #line 416 "k:\55555555555555\test\saier-a600n-2260-usa4g-aal-bg95-ui-v1.0-6\lcd.c"
 416  0000              _SBR_DISP_DOT_OKQ_ON .section 'code'
 416  0000              _SBR_DISP_DOT_OKQ_ON proc
 417  0000              #line 417 "k:\55555555555555\test\saier-a600n-2260-usa4g-aal-bg95-ui-v1.0-6\lcd.c"
 417  0000  B215 0004   	lset [1045].4
 417  0002  0003        	ret
 417  0003              _SBR_DISP_DOT_OKQ_ON endp
 417  0003              #line 417 "k:\55555555555555\test\saier-a600n-2260-usa4g-aal-bg95-ui-v1.0-6\lcd.c"
 417  0003              #pragma debug scope 1 1
 417  0003              public _SBR_DISP_DOT_OKQ_OFF
 417  0003              #pragma debug scope 45 1
 420  0003              #line 420 "k:\55555555555555\test\saier-a600n-2260-usa4g-aal-bg95-ui-v1.0-6\lcd.c"
 420  0000              _SBR_DISP_DOT_OKQ_OFF .section 'code'
 420  0000              _SBR_DISP_DOT_OKQ_OFF proc
 421  0000              #line 421 "k:\55555555555555\test\saier-a600n-2260-usa4g-aal-bg95-ui-v1.0-6\lcd.c"
 421  0000  B615 0004   	lclr [1045].4
 421  0002  0003        	ret
 421  0003              _SBR_DISP_DOT_OKQ_OFF endp
 421  0003              #line 421 "k:\55555555555555\test\saier-a600n-2260-usa4g-aal-bg95-ui-v1.0-6\lcd.c"
 421  0003              #pragma debug scope 1 1
 421  0003              public _SBR_DISP_DOT_BTT
 421  0003              #pragma debug scope 46 1
 524  0003              #line 524 "k:\55555555555555\test\saier-a600n-2260-usa4g-aal-bg95-ui-v1.0-6\lcd.c"
 524  0000              _SBR_DISP_DOT_BTT .section 'code'
 524  0000              _SBR_DISP_DOT_BTT proc
 524  0000  0002[           local _SBR_DISP_DOT_BTT_2 db 2 dup(?)	; 0,2
            00
            ]
 524  0000  0080     R  	mov _SBR_DISP_DOT_BTT_2[0],a
 524  0001              #pragma debug variable 8 46 _SBR_DISP_DOT_BTT_2+0 "w_level"
文件：lcd.c        编译器版本 HGASM 0202 页次13

 527  0001              #line 527 "k:\55555555555555\test\saier-a600n-2260-usa4g-aal-bg95-ui-v1.0-6\lcd.c"
 527  0001  0F01        	mov a,1
 527  0002  0080     E  	mov ra,a
 528  0003              #line 528 "k:\55555555555555\test\saier-a600n-2260-usa4g-aal-bg95-ui-v1.0-6\lcd.c"
 528  0003  1F00     E  	clr rb
 528  0004              _L59:
 528  0004              #line 528 "k:\55555555555555\test\saier-a600n-2260-usa4g-aal-bg95-ui-v1.0-6\lcd.c"
 528  0004  0700     E  	mov a,rb
 528  0005  0200     R  	sub a,_SBR_DISP_DOT_BTT_2[0]
 528  0006  3D0A        	sz z
 528  0007  2800     R  	jmp _L69
 530  0008              #line 530 "k:\55555555555555\test\saier-a600n-2260-usa4g-aal-bg95-ui-v1.0-6\lcd.c"
 530  0008  0700     E  	mov a,ra
 530  0009  0380     E  	addm a,ra
 528  000A              #line 528 "k:\55555555555555\test\saier-a600n-2260-usa4g-aal-bg95-ui-v1.0-6\lcd.c"
 528  000A  1480     E  	inc rb
 528  000B  2800     R  	jmp _L59
 528  000C              _L69:
 534  000C              #line 534 "k:\55555555555555\test\saier-a600n-2260-usa4g-aal-bg95-ui-v1.0-6\lcd.c"
 534  000C  B616 0004   	lclr [1046].4
 535  000E              #line 535 "k:\55555555555555\test\saier-a600n-2260-usa4g-aal-bg95-ui-v1.0-6\lcd.c"
 535  000E  B617 0004   	lclr [1047].4
 532  0010              #line 532 "k:\55555555555555\test\saier-a600n-2260-usa4g-aal-bg95-ui-v1.0-6\lcd.c"
 532  0010  1500     E  	deca ra
 532  0011  0080     R  	mov _SBR_DISP_DOT_BTT_2[1],a
 536  0012              #line 536 "k:\55555555555555\test\saier-a600n-2260-usa4g-aal-bg95-ui-v1.0-6\lcd.c"
 536  0012  3800     R  	snz _SBR_DISP_DOT_BTT_2[1].0
 536  0013  2800     R  	jmp _L61
 538  0014              #line 538 "k:\55555555555555\test\saier-a600n-2260-usa4g-aal-bg95-ui-v1.0-6\lcd.c"
 538  0014  B216 0004   	lset [1046].4
 538  0016              _L61:
 540  0016              #line 540 "k:\55555555555555\test\saier-a600n-2260-usa4g-aal-bg95-ui-v1.0-6\lcd.c"
 540  0016  3800     R  	snz _SBR_DISP_DOT_BTT_2[1].1
 540  0017  2800     R  	jmp _L58
 542  0018              #line 542 "k:\55555555555555\test\saier-a600n-2260-usa4g-aal-bg95-ui-v1.0-6\lcd.c"
 542  0018  B217 0004   	lset [1047].4
 542  001A              _L58:
 542  001A  0003        	ret
 542  001B              _SBR_DISP_DOT_BTT endp
 542  001B              #line 542 "k:\55555555555555\test\saier-a600n-2260-usa4g-aal-bg95-ui-v1.0-6\lcd.c"
 542  001B              #pragma debug scope 1 1
 542  001B              public _SBR_DISP_DOT_WX
 542  001B              #pragma debug scope 47 1
 555  001B              #line 555 "k:\55555555555555\test\saier-a600n-2260-usa4g-aal-bg95-ui-v1.0-6\lcd.c"
 555  0000              _SBR_DISP_DOT_WX .section 'code'
 555  0000              _SBR_DISP_DOT_WX proc
 555  0000  0002[           local _SBR_DISP_DOT_WX_2 db 2 dup(?)	; 0,2
            00
            ]
 555  0000  0080     R  	mov _SBR_DISP_DOT_WX_2[0],a
 555  0001              #pragma debug variable 8 47 _SBR_DISP_DOT_WX_2+0 "w_level"
 558  0001              #line 558 "k:\55555555555555\test\saier-a600n-2260-usa4g-aal-bg95-ui-v1.0-6\lcd.c"
 558  0001  0F01        	mov a,1
 558  0002  0080     E  	mov ra,a
 559  0003              #line 559 "k:\55555555555555\test\saier-a600n-2260-usa4g-aal-bg95-ui-v1.0-6\lcd.c"
 559  0003  1F00     E  	clr rb
 559  0004              _L71:
 559  0004              #line 559 "k:\55555555555555\test\saier-a600n-2260-usa4g-aal-bg95-ui-v1.0-6\lcd.c"
 559  0004  0700     E  	mov a,rb
 559  0005  0200     R  	sub a,_SBR_DISP_DOT_WX_2[0]
文件：lcd.c        编译器版本 HGASM 0202 页次14

 559  0006  3D0A        	sz z
 559  0007  2800     R  	jmp _L105
 561  0008              #line 561 "k:\55555555555555\test\saier-a600n-2260-usa4g-aal-bg95-ui-v1.0-6\lcd.c"
 561  0008  0700     E  	mov a,ra
 561  0009  0380     E  	addm a,ra
 559  000A              #line 559 "k:\55555555555555\test\saier-a600n-2260-usa4g-aal-bg95-ui-v1.0-6\lcd.c"
 559  000A  1480     E  	inc rb
 559  000B  2800     R  	jmp _L71
 559  000C              _L105:
 565  000C              #line 565 "k:\55555555555555\test\saier-a600n-2260-usa4g-aal-bg95-ui-v1.0-6\lcd.c"
 565  000C  0F38        	mov a,56
 565  000D  8697 0004   	landm a,[1047]
 566  000F              #line 566 "k:\55555555555555\test\saier-a600n-2260-usa4g-aal-bg95-ui-v1.0-6\lcd.c"
 566  000F  0F3E        	mov a,62
 566  0010  8696 0004   	landm a,[1046]
 567  0012              #line 567 "k:\55555555555555\test\saier-a600n-2260-usa4g-aal-bg95-ui-v1.0-6\lcd.c"
 567  0012  0F3C        	mov a,60
 567  0013  8687 0004   	landm a,[1031]
 568  0015              #line 568 "k:\55555555555555\test\saier-a600n-2260-usa4g-aal-bg95-ui-v1.0-6\lcd.c"
 568  0015  0F39        	mov a,57
 568  0016  8686 0004   	landm a,[1030]
 563  0018              #line 563 "k:\55555555555555\test\saier-a600n-2260-usa4g-aal-bg95-ui-v1.0-6\lcd.c"
 563  0018  1500     E  	deca ra
 563  0019  0080     R  	mov _SBR_DISP_DOT_WX_2[1],a
 570  001A              #line 570 "k:\55555555555555\test\saier-a600n-2260-usa4g-aal-bg95-ui-v1.0-6\lcd.c"
 570  001A  3800     R  	snz _SBR_DISP_DOT_WX_2[1].0
 570  001B  2800     R  	jmp _L73
 572  001C              #line 572 "k:\55555555555555\test\saier-a600n-2260-usa4g-aal-bg95-ui-v1.0-6\lcd.c"
 572  001C  B117 0004   	lset [1047].2
 572  001E              _L73:
 574  001E              #line 574 "k:\55555555555555\test\saier-a600n-2260-usa4g-aal-bg95-ui-v1.0-6\lcd.c"
 574  001E  3800     R  	snz _SBR_DISP_DOT_WX_2[1].1
 574  001F  2800     R  	jmp _L74
 576  0020              #line 576 "k:\55555555555555\test\saier-a600n-2260-usa4g-aal-bg95-ui-v1.0-6\lcd.c"
 576  0020  B097 0004   	lset [1047].1
 576  0022              _L74:
 578  0022              #line 578 "k:\55555555555555\test\saier-a600n-2260-usa4g-aal-bg95-ui-v1.0-6\lcd.c"
 578  0022  3800     R  	snz _SBR_DISP_DOT_WX_2[1].2
 578  0023  2800     R  	jmp _L75
 580  0024              #line 580 "k:\55555555555555\test\saier-a600n-2260-usa4g-aal-bg95-ui-v1.0-6\lcd.c"
 580  0024  B017 0004   	lset [1047].0
 580  0026              _L75:
 582  0026              #line 582 "k:\55555555555555\test\saier-a600n-2260-usa4g-aal-bg95-ui-v1.0-6\lcd.c"
 582  0026  3800     R  	snz _SBR_DISP_DOT_WX_2[1].3
 582  0027  2800     R  	jmp _L76
 584  0028              #line 584 "k:\55555555555555\test\saier-a600n-2260-usa4g-aal-bg95-ui-v1.0-6\lcd.c"
 584  0028  B016 0004   	lset [1046].0
 584  002A              _L76:
 586  002A              #line 586 "k:\55555555555555\test\saier-a600n-2260-usa4g-aal-bg95-ui-v1.0-6\lcd.c"
 586  002A  3800     R  	snz _SBR_DISP_DOT_WX_2[1].4
 586  002B  2800     R  	jmp _L77
 588  002C              #line 588 "k:\55555555555555\test\saier-a600n-2260-usa4g-aal-bg95-ui-v1.0-6\lcd.c"
 588  002C  B007 0004   	lset [1031].0
 588  002E              _L77:
 590  002E              #line 590 "k:\55555555555555\test\saier-a600n-2260-usa4g-aal-bg95-ui-v1.0-6\lcd.c"
 590  002E  3800     R  	snz _SBR_DISP_DOT_WX_2[1].5
 590  002F  2800     R  	jmp _L78
 592  0030              #line 592 "k:\55555555555555\test\saier-a600n-2260-usa4g-aal-bg95-ui-v1.0-6\lcd.c"
 592  0030  B087 0004   	lset [1031].1
 592  0032              _L78:
文件：lcd.c        编译器版本 HGASM 0202 页次15

 594  0032              #line 594 "k:\55555555555555\test\saier-a600n-2260-usa4g-aal-bg95-ui-v1.0-6\lcd.c"
 594  0032  3800     R  	snz _SBR_DISP_DOT_WX_2[1].6
 594  0033  2800     R  	jmp _L79
 596  0034              #line 596 "k:\55555555555555\test\saier-a600n-2260-usa4g-aal-bg95-ui-v1.0-6\lcd.c"
 596  0034  B106 0004   	lset [1030].2
 596  0036              _L79:
 598  0036              #line 598 "k:\55555555555555\test\saier-a600n-2260-usa4g-aal-bg95-ui-v1.0-6\lcd.c"
 598  0036  3800     R  	snz _SBR_DISP_DOT_WX_2[1].7
 598  0037  2800     R  	jmp _L70
 600  0038              #line 600 "k:\55555555555555\test\saier-a600n-2260-usa4g-aal-bg95-ui-v1.0-6\lcd.c"
 600  0038  B086 0004   	lset [1030].1
 600  003A              _L70:
 600  003A  0003        	ret
 600  003B              _SBR_DISP_DOT_WX endp
 600  003B              #line 600 "k:\55555555555555\test\saier-a600n-2260-usa4g-aal-bg95-ui-v1.0-6\lcd.c"
 600  003B              #pragma debug scope 1 1
 600  003B              public _SBR_DISP_DOT_WX_DIA
 600  003B              #pragma debug scope 48 1
 611  003B              #line 611 "k:\55555555555555\test\saier-a600n-2260-usa4g-aal-bg95-ui-v1.0-6\lcd.c"
 611  0000              _SBR_DISP_DOT_WX_DIA .section 'code'
 611  0000              _SBR_DISP_DOT_WX_DIA proc
 611  0000  0002[           local _SBR_DISP_DOT_WX_DIA_2 db 2 dup(?)	; 0,2
            00
            ]
 611  0000  0080     R  	mov _SBR_DISP_DOT_WX_DIA_2[0],a
 611  0001              #pragma debug variable 8 48 _SBR_DISP_DOT_WX_DIA_2+0 "w_level"
 614  0001              #line 614 "k:\55555555555555\test\saier-a600n-2260-usa4g-aal-bg95-ui-v1.0-6\lcd.c"
 614  0001  0F01        	mov a,1
 614  0002  0080     E  	mov ra,a
 615  0003              #line 615 "k:\55555555555555\test\saier-a600n-2260-usa4g-aal-bg95-ui-v1.0-6\lcd.c"
 615  0003  1F00     E  	clr rb
 615  0004              _L107:
 615  0004              #line 615 "k:\55555555555555\test\saier-a600n-2260-usa4g-aal-bg95-ui-v1.0-6\lcd.c"
 615  0004  0700     E  	mov a,rb
 615  0005  0200     R  	sub a,_SBR_DISP_DOT_WX_DIA_2[0]
 615  0006  3D0A        	sz z
 615  0007  2800     R  	jmp _L137
 617  0008              #line 617 "k:\55555555555555\test\saier-a600n-2260-usa4g-aal-bg95-ui-v1.0-6\lcd.c"
 617  0008  0700     E  	mov a,ra
 617  0009  0380     E  	addm a,ra
 615  000A              #line 615 "k:\55555555555555\test\saier-a600n-2260-usa4g-aal-bg95-ui-v1.0-6\lcd.c"
 615  000A  1480     E  	inc rb
 615  000B  2800     R  	jmp _L107
 615  000C              _L137:
 619  000C              #line 619 "k:\55555555555555\test\saier-a600n-2260-usa4g-aal-bg95-ui-v1.0-6\lcd.c"
 619  000C  1500     E  	deca ra
 619  000D  0080     R  	mov _SBR_DISP_DOT_WX_DIA_2[1],a
 622  000E              #line 622 "k:\55555555555555\test\saier-a600n-2260-usa4g-aal-bg95-ui-v1.0-6\lcd.c"
 622  000E  3800     R  	snz _SBR_DISP_DOT_WX_DIA_2[1].0
 622  000F  2800     R  	jmp _L109
 624  0010              #line 624 "k:\55555555555555\test\saier-a600n-2260-usa4g-aal-bg95-ui-v1.0-6\lcd.c"
 624  0010  B517 0004   	lclr [1047].2
 624  0012              _L109:
 626  0012              #line 626 "k:\55555555555555\test\saier-a600n-2260-usa4g-aal-bg95-ui-v1.0-6\lcd.c"
 626  0012  3800     R  	snz _SBR_DISP_DOT_WX_DIA_2[1].1
 626  0013  2800     R  	jmp _L110
 628  0014              #line 628 "k:\55555555555555\test\saier-a600n-2260-usa4g-aal-bg95-ui-v1.0-6\lcd.c"
 628  0014  B497 0004   	lclr [1047].1
 628  0016              _L110:
 630  0016              #line 630 "k:\55555555555555\test\saier-a600n-2260-usa4g-aal-bg95-ui-v1.0-6\lcd.c"
文件：lcd.c        编译器版本 HGASM 0202 页次16

 630  0016  3800     R  	snz _SBR_DISP_DOT_WX_DIA_2[1].2
 630  0017  2800     R  	jmp _L111
 632  0018              #line 632 "k:\55555555555555\test\saier-a600n-2260-usa4g-aal-bg95-ui-v1.0-6\lcd.c"
 632  0018  B417 0004   	lclr [1047].0
 632  001A              _L111:
 634  001A              #line 634 "k:\55555555555555\test\saier-a600n-2260-usa4g-aal-bg95-ui-v1.0-6\lcd.c"
 634  001A  3800     R  	snz _SBR_DISP_DOT_WX_DIA_2[1].3
 634  001B  2800     R  	jmp _L112
 636  001C              #line 636 "k:\55555555555555\test\saier-a600n-2260-usa4g-aal-bg95-ui-v1.0-6\lcd.c"
 636  001C  B416 0004   	lclr [1046].0
 636  001E              _L112:
 638  001E              #line 638 "k:\55555555555555\test\saier-a600n-2260-usa4g-aal-bg95-ui-v1.0-6\lcd.c"
 638  001E  3800     R  	snz _SBR_DISP_DOT_WX_DIA_2[1].4
 638  001F  2800     R  	jmp _L113
 640  0020              #line 640 "k:\55555555555555\test\saier-a600n-2260-usa4g-aal-bg95-ui-v1.0-6\lcd.c"
 640  0020  B407 0004   	lclr [1031].0
 640  0022              _L113:
 642  0022              #line 642 "k:\55555555555555\test\saier-a600n-2260-usa4g-aal-bg95-ui-v1.0-6\lcd.c"
 642  0022  3800     R  	snz _SBR_DISP_DOT_WX_DIA_2[1].5
 642  0023  2800     R  	jmp _L114
 644  0024              #line 644 "k:\55555555555555\test\saier-a600n-2260-usa4g-aal-bg95-ui-v1.0-6\lcd.c"
 644  0024  B487 0004   	lclr [1031].1
 644  0026              _L114:
 646  0026              #line 646 "k:\55555555555555\test\saier-a600n-2260-usa4g-aal-bg95-ui-v1.0-6\lcd.c"
 646  0026  3800     R  	snz _SBR_DISP_DOT_WX_DIA_2[1].6
 646  0027  2800     R  	jmp _L106
 648  0028              #line 648 "k:\55555555555555\test\saier-a600n-2260-usa4g-aal-bg95-ui-v1.0-6\lcd.c"
 648  0028  B506 0004   	lclr [1030].2
 648  002A              _L106:
 648  002A  0003        	ret
 648  002B              _SBR_DISP_DOT_WX_DIA endp
 648  002B              #line 648 "k:\55555555555555\test\saier-a600n-2260-usa4g-aal-bg95-ui-v1.0-6\lcd.c"
 648  002B              #pragma debug scope 1 1
 648  002B              ___mp1h equ [4]
 648  002B              ___mp1l equ [3]
 648  002B              _SFR_iar1 equ [2]
 648  002B              public _SBR_DISP_DIA
 648  002B              #pragma debug scope 49 1
 925  002B              #line 925 "k:\55555555555555\test\saier-a600n-2260-usa4g-aal-bg95-ui-v1.0-6\lcd.c"
 925  0000              _SBR_DISP_DIA .section 'code'
 925  0000              _SBR_DISP_DIA proc
 926  0000              #line 926 "k:\55555555555555\test\saier-a600n-2260-usa4g-aal-bg95-ui-v1.0-6\lcd.c"
 926  0000  0F04        	mov a,4
 926  0001  0084        	mov [4],a
 927  0002              #line 927 "k:\55555555555555\test\saier-a600n-2260-usa4g-aal-bg95-ui-v1.0-6\lcd.c"
 927  0002  0F15        	mov a,21
 927  0003  0083        	mov [3],a
 928  0004              #line 928 "k:\55555555555555\test\saier-a600n-2260-usa4g-aal-bg95-ui-v1.0-6\lcd.c"
 928  0004  0F38        	mov a,56
 928  0005  0682        	andm a,[2]
 929  0006              #line 929 "k:\55555555555555\test\saier-a600n-2260-usa4g-aal-bg95-ui-v1.0-6\lcd.c"
 929  0006  3800     E  	snz _BCD[2].5
 929  0007  2800     R  	jmp _L139
 931  0008              #line 931 "k:\55555555555555\test\saier-a600n-2260-usa4g-aal-bg95-ui-v1.0-6\lcd.c"
 931  0008  3002        	set [2].0
 931  0009              _L139:
 933  0009              #line 933 "k:\55555555555555\test\saier-a600n-2260-usa4g-aal-bg95-ui-v1.0-6\lcd.c"
 933  0009  3800     E  	snz _BCD[2].0
 933  000A  2800     R  	jmp _L140
 935  000B              #line 935 "k:\55555555555555\test\saier-a600n-2260-usa4g-aal-bg95-ui-v1.0-6\lcd.c"
文件：lcd.c        编译器版本 HGASM 0202 页次17

 935  000B  3082        	set [2].1
 935  000C              _L140:
 937  000C              #line 937 "k:\55555555555555\test\saier-a600n-2260-usa4g-aal-bg95-ui-v1.0-6\lcd.c"
 937  000C  3800     E  	snz _BCD[2].4
 937  000D  2800     R  	jmp _L141
 939  000E              #line 939 "k:\55555555555555\test\saier-a600n-2260-usa4g-aal-bg95-ui-v1.0-6\lcd.c"
 939  000E  3102        	set [2].2
 939  000F              _L141:
 941  000F              #line 941 "k:\55555555555555\test\saier-a600n-2260-usa4g-aal-bg95-ui-v1.0-6\lcd.c"
 941  000F  1583        	dec [3]
 942  0010              #line 942 "k:\55555555555555\test\saier-a600n-2260-usa4g-aal-bg95-ui-v1.0-6\lcd.c"
 942  0010  0F38        	mov a,56
 942  0011  0682        	andm a,[2]
 943  0012              #line 943 "k:\55555555555555\test\saier-a600n-2260-usa4g-aal-bg95-ui-v1.0-6\lcd.c"
 943  0012  3800     E  	snz _BCD[1].1
 943  0013  2800     R  	jmp _L142
 945  0014              #line 945 "k:\55555555555555\test\saier-a600n-2260-usa4g-aal-bg95-ui-v1.0-6\lcd.c"
 945  0014  3002        	set [2].0
 945  0015              _L142:
 947  0015              #line 947 "k:\55555555555555\test\saier-a600n-2260-usa4g-aal-bg95-ui-v1.0-6\lcd.c"
 947  0015  3800     E  	snz _BCD[1].4
 947  0016  2800     R  	jmp _L143
 949  0017              #line 949 "k:\55555555555555\test\saier-a600n-2260-usa4g-aal-bg95-ui-v1.0-6\lcd.c"
 949  0017  3082        	set [2].1
 949  0018              _L143:
 951  0018              #line 951 "k:\55555555555555\test\saier-a600n-2260-usa4g-aal-bg95-ui-v1.0-6\lcd.c"
 951  0018  3800     E  	snz _BCD[2].6
 951  0019  2800     R  	jmp _L144
 953  001A              #line 953 "k:\55555555555555\test\saier-a600n-2260-usa4g-aal-bg95-ui-v1.0-6\lcd.c"
 953  001A  3102        	set [2].2
 953  001B              _L144:
 957  001B              #line 957 "k:\55555555555555\test\saier-a600n-2260-usa4g-aal-bg95-ui-v1.0-6\lcd.c"
 957  001B  1583        	dec [3]
 958  001C              #line 958 "k:\55555555555555\test\saier-a600n-2260-usa4g-aal-bg95-ui-v1.0-6\lcd.c"
 958  001C  0F38        	mov a,56
 958  001D  0682        	andm a,[2]
 959  001E              #line 959 "k:\55555555555555\test\saier-a600n-2260-usa4g-aal-bg95-ui-v1.0-6\lcd.c"
 959  001E  3800     E  	snz _BCD[1].0
 959  001F  2800     R  	jmp _L145
 961  0020              #line 961 "k:\55555555555555\test\saier-a600n-2260-usa4g-aal-bg95-ui-v1.0-6\lcd.c"
 961  0020  3002        	set [2].0
 961  0021              _L145:
 963  0021              #line 963 "k:\55555555555555\test\saier-a600n-2260-usa4g-aal-bg95-ui-v1.0-6\lcd.c"
 963  0021  3800     E  	snz _BCD[1].2
 963  0022  2800     R  	jmp _L146
 965  0023              #line 965 "k:\55555555555555\test\saier-a600n-2260-usa4g-aal-bg95-ui-v1.0-6\lcd.c"
 965  0023  3082        	set [2].1
 965  0024              _L146:
 967  0024              #line 967 "k:\55555555555555\test\saier-a600n-2260-usa4g-aal-bg95-ui-v1.0-6\lcd.c"
 967  0024  3800     E  	snz _BCD[1].3
 967  0025  2800     R  	jmp _L147
 969  0026              #line 969 "k:\55555555555555\test\saier-a600n-2260-usa4g-aal-bg95-ui-v1.0-6\lcd.c"
 969  0026  3102        	set [2].2
 969  0027              _L147:
 972  0027              #line 972 "k:\55555555555555\test\saier-a600n-2260-usa4g-aal-bg95-ui-v1.0-6\lcd.c"
 972  0027  1583        	dec [3]
 973  0028              #line 973 "k:\55555555555555\test\saier-a600n-2260-usa4g-aal-bg95-ui-v1.0-6\lcd.c"
 973  0028  0F3C        	mov a,60
 973  0029  0682        	andm a,[2]
 974  002A              #line 974 "k:\55555555555555\test\saier-a600n-2260-usa4g-aal-bg95-ui-v1.0-6\lcd.c"
文件：lcd.c        编译器版本 HGASM 0202 页次18

 974  002A  3800     E  	snz _BCD[1].5
 974  002B  2800     R  	jmp _L148
 976  002C              #line 976 "k:\55555555555555\test\saier-a600n-2260-usa4g-aal-bg95-ui-v1.0-6\lcd.c"
 976  002C  3002        	set [2].0
 976  002D              _L148:
 978  002D              #line 978 "k:\55555555555555\test\saier-a600n-2260-usa4g-aal-bg95-ui-v1.0-6\lcd.c"
 978  002D  3800     E  	snz _BCD[1].6
 978  002E  2800     R  	jmp _L149
 980  002F              #line 980 "k:\55555555555555\test\saier-a600n-2260-usa4g-aal-bg95-ui-v1.0-6\lcd.c"
 980  002F  3082        	set [2].1
 980  0030              _L149:
 984  0030              #line 984 "k:\55555555555555\test\saier-a600n-2260-usa4g-aal-bg95-ui-v1.0-6\lcd.c"
 984  0030  1583        	dec [3]
 985  0031              #line 985 "k:\55555555555555\test\saier-a600n-2260-usa4g-aal-bg95-ui-v1.0-6\lcd.c"
 985  0031  0F3C        	mov a,60
 985  0032  0682        	andm a,[2]
 986  0033              #line 986 "k:\55555555555555\test\saier-a600n-2260-usa4g-aal-bg95-ui-v1.0-6\lcd.c"
 986  0033  3800     E  	snz _BCD[0].1
 986  0034  2800     R  	jmp _L150
 988  0035              #line 988 "k:\55555555555555\test\saier-a600n-2260-usa4g-aal-bg95-ui-v1.0-6\lcd.c"
 988  0035  3002        	set [2].0
 988  0036              _L150:
 990  0036              #line 990 "k:\55555555555555\test\saier-a600n-2260-usa4g-aal-bg95-ui-v1.0-6\lcd.c"
 990  0036  3800     E  	snz _BCD[0].4
 990  0037  2800     R  	jmp _L151
 992  0038              #line 992 "k:\55555555555555\test\saier-a600n-2260-usa4g-aal-bg95-ui-v1.0-6\lcd.c"
 992  0038  3082        	set [2].1
 992  0039              _L151:
 995  0039              #line 995 "k:\55555555555555\test\saier-a600n-2260-usa4g-aal-bg95-ui-v1.0-6\lcd.c"
 995  0039  1583        	dec [3]
 996  003A              #line 996 "k:\55555555555555\test\saier-a600n-2260-usa4g-aal-bg95-ui-v1.0-6\lcd.c"
 996  003A  0F38        	mov a,56
 996  003B  0682        	andm a,[2]
 997  003C              #line 997 "k:\55555555555555\test\saier-a600n-2260-usa4g-aal-bg95-ui-v1.0-6\lcd.c"
 997  003C  3800     E  	snz _BCD[0].0
 997  003D  2800     R  	jmp _L152
 999  003E              #line 999 "k:\55555555555555\test\saier-a600n-2260-usa4g-aal-bg95-ui-v1.0-6\lcd.c"
 999  003E  3002        	set [2].0
 999  003F              _L152:
1001  003F              #line 1001 "k:\55555555555555\test\saier-a600n-2260-usa4g-aal-bg95-ui-v1.0-6\lcd.c"
1001  003F  3800     E  	snz _BCD[0].2
1001  0040  2800     R  	jmp _L153
1003  0041              #line 1003 "k:\55555555555555\test\saier-a600n-2260-usa4g-aal-bg95-ui-v1.0-6\lcd.c"
1003  0041  3082        	set [2].1
1003  0042              _L153:
1005  0042              #line 1005 "k:\55555555555555\test\saier-a600n-2260-usa4g-aal-bg95-ui-v1.0-6\lcd.c"
1005  0042  3800     E  	snz _BCD[0].3
1005  0043  2800     R  	jmp _L154
1007  0044              #line 1007 "k:\55555555555555\test\saier-a600n-2260-usa4g-aal-bg95-ui-v1.0-6\lcd.c"
1007  0044  3102        	set [2].2
1007  0045              _L154:
1009  0045              #line 1009 "k:\55555555555555\test\saier-a600n-2260-usa4g-aal-bg95-ui-v1.0-6\lcd.c"
1009  0045  1583        	dec [3]
1010  0046              #line 1010 "k:\55555555555555\test\saier-a600n-2260-usa4g-aal-bg95-ui-v1.0-6\lcd.c"
1010  0046  0F3C        	mov a,60
1010  0047  0682        	andm a,[2]
1011  0048              #line 1011 "k:\55555555555555\test\saier-a600n-2260-usa4g-aal-bg95-ui-v1.0-6\lcd.c"
1011  0048  3800     E  	snz _BCD[0].5
1011  0049  2800     R  	jmp _L155
1013  004A              #line 1013 "k:\55555555555555\test\saier-a600n-2260-usa4g-aal-bg95-ui-v1.0-6\lcd.c"
文件：lcd.c        编译器版本 HGASM 0202 页次19

1013  004A  3002        	set [2].0
1013  004B              _L155:
1015  004B              #line 1015 "k:\55555555555555\test\saier-a600n-2260-usa4g-aal-bg95-ui-v1.0-6\lcd.c"
1015  004B  3800     E  	snz _BCD[0].6
1015  004C  2800     R  	jmp _L138
1017  004D              #line 1017 "k:\55555555555555\test\saier-a600n-2260-usa4g-aal-bg95-ui-v1.0-6\lcd.c"
1017  004D  3082        	set [2].1
1017  004E              _L138:
1017  004E  0003        	ret
1017  004F              _SBR_DISP_DIA endp
1017  004F              #line 1017 "k:\55555555555555\test\saier-a600n-2260-usa4g-aal-bg95-ui-v1.0-6\lcd.c"
1017  004F              #pragma debug scope 1 1
1017  004F              public _SBR_Disp_OFF_ON
1017  004F              #pragma debug scope 50 1
 916  004F              #line 916 "k:\55555555555555\test\saier-a600n-2260-usa4g-aal-bg95-ui-v1.0-6\lcd.c"
 916  0000              _SBR_Disp_OFF_ON .section 'code'
 916  0000              _SBR_Disp_OFF_ON proc
 917  0000              #line 917 "k:\55555555555555\test\saier-a600n-2260-usa4g-aal-bg95-ui-v1.0-6\lcd.c"
 917  0000  0F5C        	mov a,92
 917  0001  0080     E  	mov _BCD[0],a
 918  0002              #line 918 "k:\55555555555555\test\saier-a600n-2260-usa4g-aal-bg95-ui-v1.0-6\lcd.c"
 918  0002  0F1A        	mov a,26
 918  0003  0080     E  	mov _BCD[1],a
 919  0004              #line 919 "k:\55555555555555\test\saier-a600n-2260-usa4g-aal-bg95-ui-v1.0-6\lcd.c"
 919  0004  1F00     E  	clr _BCD[2]
 920  0005              #line 920 "k:\55555555555555\test\saier-a600n-2260-usa4g-aal-bg95-ui-v1.0-6\lcd.c"
 920  0005              	fcall _SBR_DISP_DIA
 920  000C  0003        	ret
 920  000D              _SBR_Disp_OFF_ON endp
 920  000D              #line 920 "k:\55555555555555\test\saier-a600n-2260-usa4g-aal-bg95-ui-v1.0-6\lcd.c"
 920  000D              #pragma debug scope 1 1
 920  000D              public _SBR_DISP_SYS
 920  000D              #pragma debug scope 51 1
1025  000D              #line 1025 "k:\55555555555555\test\saier-a600n-2260-usa4g-aal-bg95-ui-v1.0-6\lcd.c"
1025  0000              _SBR_DISP_SYS .section 'code'
1025  0000              _SBR_DISP_SYS proc
1027  0000              #line 1027 "k:\55555555555555\test\saier-a600n-2260-usa4g-aal-bg95-ui-v1.0-6\lcd.c"
1027  0000  0F04        	mov a,4
1027  0001  0084        	mov [4],a
1028  0002              #line 1028 "k:\55555555555555\test\saier-a600n-2260-usa4g-aal-bg95-ui-v1.0-6\lcd.c"
1028  0002  0F08        	mov a,8
1028  0003  0083        	mov [3],a
1029  0004              #line 1029 "k:\55555555555555\test\saier-a600n-2260-usa4g-aal-bg95-ui-v1.0-6\lcd.c"
1029  0004  0F3D        	mov a,61
1029  0005  0682        	andm a,[2]
1030  0006              #line 1030 "k:\55555555555555\test\saier-a600n-2260-usa4g-aal-bg95-ui-v1.0-6\lcd.c"
1030  0006  3800     E  	snz _BCD[2].4
1030  0007  2800     R  	jmp _L213
1032  0008              #line 1032 "k:\55555555555555\test\saier-a600n-2260-usa4g-aal-bg95-ui-v1.0-6\lcd.c"
1032  0008  3082        	set [2].1
1032  0009              _L213:
1034  0009              #line 1034 "k:\55555555555555\test\saier-a600n-2260-usa4g-aal-bg95-ui-v1.0-6\lcd.c"
1034  0009  1483        	inc [3]
1035  000A              #line 1035 "k:\55555555555555\test\saier-a600n-2260-usa4g-aal-bg95-ui-v1.0-6\lcd.c"
1035  000A  0F38        	mov a,56
1035  000B  0682        	andm a,[2]
1036  000C              #line 1036 "k:\55555555555555\test\saier-a600n-2260-usa4g-aal-bg95-ui-v1.0-6\lcd.c"
1036  000C  3800     E  	snz _BCD[2].6
1036  000D  2800     R  	jmp _L214
1038  000E              #line 1038 "k:\55555555555555\test\saier-a600n-2260-usa4g-aal-bg95-ui-v1.0-6\lcd.c"
文件：lcd.c        编译器版本 HGASM 0202 页次20

1038  000E  3002        	set [2].0
1038  000F              _L214:
1040  000F              #line 1040 "k:\55555555555555\test\saier-a600n-2260-usa4g-aal-bg95-ui-v1.0-6\lcd.c"
1040  000F  3800     E  	snz _BCD[2].0
1040  0010  2800     R  	jmp _L215
1042  0011              #line 1042 "k:\55555555555555\test\saier-a600n-2260-usa4g-aal-bg95-ui-v1.0-6\lcd.c"
1042  0011  3082        	set [2].1
1042  0012              _L215:
1044  0012              #line 1044 "k:\55555555555555\test\saier-a600n-2260-usa4g-aal-bg95-ui-v1.0-6\lcd.c"
1044  0012  3800     E  	snz _BCD[2].5
1044  0013  2800     R  	jmp _L216
1046  0014              #line 1046 "k:\55555555555555\test\saier-a600n-2260-usa4g-aal-bg95-ui-v1.0-6\lcd.c"
1046  0014  3102        	set [2].2
1046  0015              _L216:
1048  0015              #line 1048 "k:\55555555555555\test\saier-a600n-2260-usa4g-aal-bg95-ui-v1.0-6\lcd.c"
1048  0015  1483        	inc [3]
1049  0016              #line 1049 "k:\55555555555555\test\saier-a600n-2260-usa4g-aal-bg95-ui-v1.0-6\lcd.c"
1049  0016  0F38        	mov a,56
1049  0017  0682        	andm a,[2]
1050  0018              #line 1050 "k:\55555555555555\test\saier-a600n-2260-usa4g-aal-bg95-ui-v1.0-6\lcd.c"
1050  0018  3800     E  	snz _BCD[1].3
1050  0019  2800     R  	jmp _L217
1052  001A              #line 1052 "k:\55555555555555\test\saier-a600n-2260-usa4g-aal-bg95-ui-v1.0-6\lcd.c"
1052  001A  3002        	set [2].0
1052  001B              _L217:
1054  001B              #line 1054 "k:\55555555555555\test\saier-a600n-2260-usa4g-aal-bg95-ui-v1.0-6\lcd.c"
1054  001B  3800     E  	snz _BCD[1].4
1054  001C  2800     R  	jmp _L218
1056  001D              #line 1056 "k:\55555555555555\test\saier-a600n-2260-usa4g-aal-bg95-ui-v1.0-6\lcd.c"
1056  001D  3082        	set [2].1
1056  001E              _L218:
1058  001E              #line 1058 "k:\55555555555555\test\saier-a600n-2260-usa4g-aal-bg95-ui-v1.0-6\lcd.c"
1058  001E  3800     E  	snz _BCD[1].1
1058  001F  2800     R  	jmp _L219
1060  0020              #line 1060 "k:\55555555555555\test\saier-a600n-2260-usa4g-aal-bg95-ui-v1.0-6\lcd.c"
1060  0020  3102        	set [2].2
1060  0021              _L219:
1062  0021              #line 1062 "k:\55555555555555\test\saier-a600n-2260-usa4g-aal-bg95-ui-v1.0-6\lcd.c"
1062  0021  1483        	inc [3]
1063  0022              #line 1063 "k:\55555555555555\test\saier-a600n-2260-usa4g-aal-bg95-ui-v1.0-6\lcd.c"
1063  0022  0F38        	mov a,56
1063  0023  0682        	andm a,[2]
1064  0024              #line 1064 "k:\55555555555555\test\saier-a600n-2260-usa4g-aal-bg95-ui-v1.0-6\lcd.c"
1064  0024  3800     E  	snz _BCD[1].6
1064  0025  2800     R  	jmp _L220
1066  0026              #line 1066 "k:\55555555555555\test\saier-a600n-2260-usa4g-aal-bg95-ui-v1.0-6\lcd.c"
1066  0026  3002        	set [2].0
1066  0027              _L220:
1068  0027              #line 1068 "k:\55555555555555\test\saier-a600n-2260-usa4g-aal-bg95-ui-v1.0-6\lcd.c"
1068  0027  3800     E  	snz _BCD[1].2
1068  0028  2800     R  	jmp _L221
1070  0029              #line 1070 "k:\55555555555555\test\saier-a600n-2260-usa4g-aal-bg95-ui-v1.0-6\lcd.c"
1070  0029  3082        	set [2].1
1070  002A              _L221:
1072  002A              #line 1072 "k:\55555555555555\test\saier-a600n-2260-usa4g-aal-bg95-ui-v1.0-6\lcd.c"
1072  002A  3800     E  	snz _BCD[1].0
1072  002B  2800     R  	jmp _L222
1074  002C              #line 1074 "k:\55555555555555\test\saier-a600n-2260-usa4g-aal-bg95-ui-v1.0-6\lcd.c"
1074  002C  3102        	set [2].2
1074  002D              _L222:
文件：lcd.c        编译器版本 HGASM 0202 页次21

1076  002D              #line 1076 "k:\55555555555555\test\saier-a600n-2260-usa4g-aal-bg95-ui-v1.0-6\lcd.c"
1076  002D  1483        	inc [3]
1077  002E              #line 1077 "k:\55555555555555\test\saier-a600n-2260-usa4g-aal-bg95-ui-v1.0-6\lcd.c"
1077  002E  0F39        	mov a,57
1077  002F  0682        	andm a,[2]
1078  0030              #line 1078 "k:\55555555555555\test\saier-a600n-2260-usa4g-aal-bg95-ui-v1.0-6\lcd.c"
1078  0030  3800     E  	snz _BCD[1].5
1078  0031  2800     R  	jmp _L223
1080  0032              #line 1080 "k:\55555555555555\test\saier-a600n-2260-usa4g-aal-bg95-ui-v1.0-6\lcd.c"
1080  0032  3102        	set [2].2
1080  0033              _L223:
1082  0033              #line 1082 "k:\55555555555555\test\saier-a600n-2260-usa4g-aal-bg95-ui-v1.0-6\lcd.c"
1082  0033  3800     E  	snz _BCD[0].4
1082  0034  2800     R  	jmp _L224
1084  0035              #line 1084 "k:\55555555555555\test\saier-a600n-2260-usa4g-aal-bg95-ui-v1.0-6\lcd.c"
1084  0035  3082        	set [2].1
1084  0036              _L224:
1086  0036              #line 1086 "k:\55555555555555\test\saier-a600n-2260-usa4g-aal-bg95-ui-v1.0-6\lcd.c"
1086  0036  1483        	inc [3]
1087  0037              #line 1087 "k:\55555555555555\test\saier-a600n-2260-usa4g-aal-bg95-ui-v1.0-6\lcd.c"
1087  0037  0F38        	mov a,56
1087  0038  0682        	andm a,[2]
1088  0039              #line 1088 "k:\55555555555555\test\saier-a600n-2260-usa4g-aal-bg95-ui-v1.0-6\lcd.c"
1088  0039  3800     E  	snz _BCD[0].3
1088  003A  2800     R  	jmp _L225
1090  003B              #line 1090 "k:\55555555555555\test\saier-a600n-2260-usa4g-aal-bg95-ui-v1.0-6\lcd.c"
1090  003B  3002        	set [2].0
1090  003C              _L225:
1092  003C              #line 1092 "k:\55555555555555\test\saier-a600n-2260-usa4g-aal-bg95-ui-v1.0-6\lcd.c"
1092  003C  3800     E  	snz _BCD[0].2
1092  003D  2800     R  	jmp _L226
1094  003E              #line 1094 "k:\55555555555555\test\saier-a600n-2260-usa4g-aal-bg95-ui-v1.0-6\lcd.c"
1094  003E  3082        	set [2].1
1094  003F              _L226:
1096  003F              #line 1096 "k:\55555555555555\test\saier-a600n-2260-usa4g-aal-bg95-ui-v1.0-6\lcd.c"
1096  003F  3800     E  	snz _BCD[0].1
1096  0040  2800     R  	jmp _L227
1098  0041              #line 1098 "k:\55555555555555\test\saier-a600n-2260-usa4g-aal-bg95-ui-v1.0-6\lcd.c"
1098  0041  3102        	set [2].2
1098  0042              _L227:
1100  0042              #line 1100 "k:\55555555555555\test\saier-a600n-2260-usa4g-aal-bg95-ui-v1.0-6\lcd.c"
1100  0042  1483        	inc [3]
1101  0043              #line 1101 "k:\55555555555555\test\saier-a600n-2260-usa4g-aal-bg95-ui-v1.0-6\lcd.c"
1101  0043  0F38        	mov a,56
1101  0044  0682        	andm a,[2]
1102  0045              #line 1102 "k:\55555555555555\test\saier-a600n-2260-usa4g-aal-bg95-ui-v1.0-6\lcd.c"
1102  0045  3800     E  	snz _BCD[0].6
1102  0046  2800     R  	jmp _L228
1104  0047              #line 1104 "k:\55555555555555\test\saier-a600n-2260-usa4g-aal-bg95-ui-v1.0-6\lcd.c"
1104  0047  3002        	set [2].0
1104  0048              _L228:
1106  0048              #line 1106 "k:\55555555555555\test\saier-a600n-2260-usa4g-aal-bg95-ui-v1.0-6\lcd.c"
1106  0048  3800     E  	snz _BCD[0].5
1106  0049  2800     R  	jmp _L229
1108  004A              #line 1108 "k:\55555555555555\test\saier-a600n-2260-usa4g-aal-bg95-ui-v1.0-6\lcd.c"
1108  004A  3082        	set [2].1
1108  004B              _L229:
1110  004B              #line 1110 "k:\55555555555555\test\saier-a600n-2260-usa4g-aal-bg95-ui-v1.0-6\lcd.c"
1110  004B  3800     E  	snz _BCD[0].0
1110  004C  2800     R  	jmp _L212
文件：lcd.c        编译器版本 HGASM 0202 页次22

1112  004D              #line 1112 "k:\55555555555555\test\saier-a600n-2260-usa4g-aal-bg95-ui-v1.0-6\lcd.c"
1112  004D  3102        	set [2].2
1112  004E              _L212:
1112  004E  0003        	ret
1112  004F              _SBR_DISP_SYS endp
1112  004F              #line 1112 "k:\55555555555555\test\saier-a600n-2260-usa4g-aal-bg95-ui-v1.0-6\lcd.c"
1112  004F              #pragma debug scope 1 1
1112  004F              public _SBR_DISP_CLR_ON
1112  004F              #pragma debug scope 52 1
 674  004F              #line 674 "k:\55555555555555\test\saier-a600n-2260-usa4g-aal-bg95-ui-v1.0-6\lcd.c"
 674  0000              _SBR_DISP_CLR_ON .section 'code'
 674  0000              _SBR_DISP_CLR_ON proc
 675  0000              #line 675 "k:\55555555555555\test\saier-a600n-2260-usa4g-aal-bg95-ui-v1.0-6\lcd.c"
 675  0000  0F04        	mov a,4
 675  0001  0080     E  	mov _BCD[0],a
 676  0002              #line 676 "k:\55555555555555\test\saier-a600n-2260-usa4g-aal-bg95-ui-v1.0-6\lcd.c"
 676  0002  0F04        	mov a,4
 676  0003  0080     E  	mov _BCD[1],a
 677  0004              #line 677 "k:\55555555555555\test\saier-a600n-2260-usa4g-aal-bg95-ui-v1.0-6\lcd.c"
 677  0004  1F00     E  	clr _BCD[2]
 678  0005              #line 678 "k:\55555555555555\test\saier-a600n-2260-usa4g-aal-bg95-ui-v1.0-6\lcd.c"
 678  0005              	fcall _SBR_DISP_DIA
 680  000C              #line 680 "k:\55555555555555\test\saier-a600n-2260-usa4g-aal-bg95-ui-v1.0-6\lcd.c"
 680  000C  1F00     E  	clr _BCD[0]
 681  000D              #line 681 "k:\55555555555555\test\saier-a600n-2260-usa4g-aal-bg95-ui-v1.0-6\lcd.c"
 681  000D  1F00     E  	clr _BCD[1]
 682  000E              #line 682 "k:\55555555555555\test\saier-a600n-2260-usa4g-aal-bg95-ui-v1.0-6\lcd.c"
 682  000E  1F00     E  	clr _BCD[2]
 683  000F              #line 683 "k:\55555555555555\test\saier-a600n-2260-usa4g-aal-bg95-ui-v1.0-6\lcd.c"
 683  000F              	fcall _SBR_DISP_SYS
 683  0016  0003        	ret
 683  0017              _SBR_DISP_CLR_ON endp
 683  0017              #line 683 "k:\55555555555555\test\saier-a600n-2260-usa4g-aal-bg95-ui-v1.0-6\lcd.c"
 683  0017              #pragma debug scope 1 1
 683  0017              public _SBR_DISP_E1_ON
 683  0017              #pragma debug scope 53 1
 687  0017              #line 687 "k:\55555555555555\test\saier-a600n-2260-usa4g-aal-bg95-ui-v1.0-6\lcd.c"
 687  0000              _SBR_DISP_E1_ON .section 'code'
 687  0000              _SBR_DISP_E1_ON proc
 688  0000              #line 688 "k:\55555555555555\test\saier-a600n-2260-usa4g-aal-bg95-ui-v1.0-6\lcd.c"
 688  0000  0F1F        	mov a,31
 688  0001  0080     E  	mov _BCD[0],a
 689  0002              #line 689 "k:\55555555555555\test\saier-a600n-2260-usa4g-aal-bg95-ui-v1.0-6\lcd.c"
 689  0002  1F00     E  	clr _BCD[1]
 690  0003              #line 690 "k:\55555555555555\test\saier-a600n-2260-usa4g-aal-bg95-ui-v1.0-6\lcd.c"
 690  0003  1F00     E  	clr _BCD[2]
 691  0004              #line 691 "k:\55555555555555\test\saier-a600n-2260-usa4g-aal-bg95-ui-v1.0-6\lcd.c"
 691  0004              	fcall _SBR_DISP_SYS
 692  000B              #line 692 "k:\55555555555555\test\saier-a600n-2260-usa4g-aal-bg95-ui-v1.0-6\lcd.c"
 692  000B  0F60        	mov a,96
 692  000C  0080     E  	mov _BCD[0],a
 693  000D              #line 693 "k:\55555555555555\test\saier-a600n-2260-usa4g-aal-bg95-ui-v1.0-6\lcd.c"
 693  000D  0F7B        	mov a,123
 693  000E  0080     E  	mov _BCD[1],a
 694  000F              #line 694 "k:\55555555555555\test\saier-a600n-2260-usa4g-aal-bg95-ui-v1.0-6\lcd.c"
 694  000F  1F00     E  	clr _BCD[2]
 695  0010              #line 695 "k:\55555555555555\test\saier-a600n-2260-usa4g-aal-bg95-ui-v1.0-6\lcd.c"
 695  0010              	fcall _SBR_DISP_DIA
 696  0017              #line 696 "k:\55555555555555\test\saier-a600n-2260-usa4g-aal-bg95-ui-v1.0-6\lcd.c"
 696  0017              	fcall _SBR_DISP_DP2_OFF
文件：lcd.c        编译器版本 HGASM 0202 页次23

 696  001E  0003        	ret
 696  001F              _SBR_DISP_E1_ON endp
 696  001F              #line 696 "k:\55555555555555\test\saier-a600n-2260-usa4g-aal-bg95-ui-v1.0-6\lcd.c"
 696  001F              #pragma debug scope 1 1
 696  001F              public _SBR_DISP_E2_ON
 696  001F              #pragma debug scope 54 1
 700  001F              #line 700 "k:\55555555555555\test\saier-a600n-2260-usa4g-aal-bg95-ui-v1.0-6\lcd.c"
 700  0000              _SBR_DISP_E2_ON .section 'code'
 700  0000              _SBR_DISP_E2_ON proc
 701  0000              #line 701 "k:\55555555555555\test\saier-a600n-2260-usa4g-aal-bg95-ui-v1.0-6\lcd.c"
 701  0000  0F1F        	mov a,31
 701  0001  0080     E  	mov _BCD[0],a
 702  0002              #line 702 "k:\55555555555555\test\saier-a600n-2260-usa4g-aal-bg95-ui-v1.0-6\lcd.c"
 702  0002  1F00     E  	clr _BCD[1]
 703  0003              #line 703 "k:\55555555555555\test\saier-a600n-2260-usa4g-aal-bg95-ui-v1.0-6\lcd.c"
 703  0003  1F00     E  	clr _BCD[2]
 704  0004              #line 704 "k:\55555555555555\test\saier-a600n-2260-usa4g-aal-bg95-ui-v1.0-6\lcd.c"
 704  0004              	fcall _SBR_DISP_SYS
 705  000B              #line 705 "k:\55555555555555\test\saier-a600n-2260-usa4g-aal-bg95-ui-v1.0-6\lcd.c"
 705  000B  0F3D        	mov a,61
 705  000C  0080     E  	mov _BCD[0],a
 706  000D              #line 706 "k:\55555555555555\test\saier-a600n-2260-usa4g-aal-bg95-ui-v1.0-6\lcd.c"
 706  000D  0F7B        	mov a,123
 706  000E  0080     E  	mov _BCD[1],a
 707  000F              #line 707 "k:\55555555555555\test\saier-a600n-2260-usa4g-aal-bg95-ui-v1.0-6\lcd.c"
 707  000F  1F00     E  	clr _BCD[2]
 708  0010              #line 708 "k:\55555555555555\test\saier-a600n-2260-usa4g-aal-bg95-ui-v1.0-6\lcd.c"
 708  0010              	fcall _SBR_DISP_DIA
 709  0017              #line 709 "k:\55555555555555\test\saier-a600n-2260-usa4g-aal-bg95-ui-v1.0-6\lcd.c"
 709  0017              	fcall _SBR_DISP_DP2_OFF
 709  001E  0003        	ret
 709  001F              _SBR_DISP_E2_ON endp
 709  001F              #line 709 "k:\55555555555555\test\saier-a600n-2260-usa4g-aal-bg95-ui-v1.0-6\lcd.c"
 709  001F              #pragma debug scope 1 1
 709  001F              public _SBR_DISP_E3_ON
 709  001F              #pragma debug scope 55 1
 713  001F              #line 713 "k:\55555555555555\test\saier-a600n-2260-usa4g-aal-bg95-ui-v1.0-6\lcd.c"
 713  0000              _SBR_DISP_E3_ON .section 'code'
 713  0000              _SBR_DISP_E3_ON proc
 714  0000              #line 714 "k:\55555555555555\test\saier-a600n-2260-usa4g-aal-bg95-ui-v1.0-6\lcd.c"
 714  0000  0F1F        	mov a,31
 714  0001  0080     E  	mov _BCD[0],a
 715  0002              #line 715 "k:\55555555555555\test\saier-a600n-2260-usa4g-aal-bg95-ui-v1.0-6\lcd.c"
 715  0002  1F00     E  	clr _BCD[1]
 716  0003              #line 716 "k:\55555555555555\test\saier-a600n-2260-usa4g-aal-bg95-ui-v1.0-6\lcd.c"
 716  0003  1F00     E  	clr _BCD[2]
 717  0004              #line 717 "k:\55555555555555\test\saier-a600n-2260-usa4g-aal-bg95-ui-v1.0-6\lcd.c"
 717  0004              	fcall _SBR_DISP_SYS
 718  000B              #line 718 "k:\55555555555555\test\saier-a600n-2260-usa4g-aal-bg95-ui-v1.0-6\lcd.c"
 718  000B  0F6D        	mov a,109
 718  000C  0080     E  	mov _BCD[0],a
 719  000D              #line 719 "k:\55555555555555\test\saier-a600n-2260-usa4g-aal-bg95-ui-v1.0-6\lcd.c"
 719  000D  0F7B        	mov a,123
 719  000E  0080     E  	mov _BCD[1],a
 720  000F              #line 720 "k:\55555555555555\test\saier-a600n-2260-usa4g-aal-bg95-ui-v1.0-6\lcd.c"
 720  000F  1F00     E  	clr _BCD[2]
 721  0010              #line 721 "k:\55555555555555\test\saier-a600n-2260-usa4g-aal-bg95-ui-v1.0-6\lcd.c"
 721  0010              	fcall _SBR_DISP_DIA
 722  0017              #line 722 "k:\55555555555555\test\saier-a600n-2260-usa4g-aal-bg95-ui-v1.0-6\lcd.c"
 722  0017              	fcall _SBR_DISP_DP2_OFF
文件：lcd.c        编译器版本 HGASM 0202 页次24

 722  001E  0003        	ret
 722  001F              _SBR_DISP_E3_ON endp
 722  001F              #line 722 "k:\55555555555555\test\saier-a600n-2260-usa4g-aal-bg95-ui-v1.0-6\lcd.c"
 722  001F              #pragma debug scope 1 1
 722  001F              public _SBR_DISP_E4_ON
 722  001F              #pragma debug scope 56 1
 727  001F              #line 727 "k:\55555555555555\test\saier-a600n-2260-usa4g-aal-bg95-ui-v1.0-6\lcd.c"
 727  0000              _SBR_DISP_E4_ON .section 'code'
 727  0000              _SBR_DISP_E4_ON proc
 728  0000              #line 728 "k:\55555555555555\test\saier-a600n-2260-usa4g-aal-bg95-ui-v1.0-6\lcd.c"
 728  0000  0F1F        	mov a,31
 728  0001  0080     E  	mov _BCD[0],a
 729  0002              #line 729 "k:\55555555555555\test\saier-a600n-2260-usa4g-aal-bg95-ui-v1.0-6\lcd.c"
 729  0002  1F00     E  	clr _BCD[1]
 730  0003              #line 730 "k:\55555555555555\test\saier-a600n-2260-usa4g-aal-bg95-ui-v1.0-6\lcd.c"
 730  0003  1F00     E  	clr _BCD[2]
 731  0004              #line 731 "k:\55555555555555\test\saier-a600n-2260-usa4g-aal-bg95-ui-v1.0-6\lcd.c"
 731  0004              	fcall _SBR_DISP_SYS
 732  000B              #line 732 "k:\55555555555555\test\saier-a600n-2260-usa4g-aal-bg95-ui-v1.0-6\lcd.c"
 732  000B  0F66        	mov a,102
 732  000C  0080     E  	mov _BCD[0],a
 733  000D              #line 733 "k:\55555555555555\test\saier-a600n-2260-usa4g-aal-bg95-ui-v1.0-6\lcd.c"
 733  000D  0F7B        	mov a,123
 733  000E  0080     E  	mov _BCD[1],a
 734  000F              #line 734 "k:\55555555555555\test\saier-a600n-2260-usa4g-aal-bg95-ui-v1.0-6\lcd.c"
 734  000F  1F00     E  	clr _BCD[2]
 735  0010              #line 735 "k:\55555555555555\test\saier-a600n-2260-usa4g-aal-bg95-ui-v1.0-6\lcd.c"
 735  0010              	fcall _SBR_DISP_DIA
 736  0017              #line 736 "k:\55555555555555\test\saier-a600n-2260-usa4g-aal-bg95-ui-v1.0-6\lcd.c"
 736  0017              	fcall _SBR_DISP_DP2_OFF
 736  001E  0003        	ret
 736  001F              _SBR_DISP_E4_ON endp
 736  001F              #line 736 "k:\55555555555555\test\saier-a600n-2260-usa4g-aal-bg95-ui-v1.0-6\lcd.c"
 736  001F              #pragma debug scope 1 1
 736  001F              public _SBR_DISP_E5_ON
 736  001F              #pragma debug scope 57 1
 741  001F              #line 741 "k:\55555555555555\test\saier-a600n-2260-usa4g-aal-bg95-ui-v1.0-6\lcd.c"
 741  0000              _SBR_DISP_E5_ON .section 'code'
 741  0000              _SBR_DISP_E5_ON proc
 742  0000              #line 742 "k:\55555555555555\test\saier-a600n-2260-usa4g-aal-bg95-ui-v1.0-6\lcd.c"
 742  0000  0F1F        	mov a,31
 742  0001  0080     E  	mov _BCD[0],a
 743  0002              #line 743 "k:\55555555555555\test\saier-a600n-2260-usa4g-aal-bg95-ui-v1.0-6\lcd.c"
 743  0002  1F00     E  	clr _BCD[1]
 744  0003              #line 744 "k:\55555555555555\test\saier-a600n-2260-usa4g-aal-bg95-ui-v1.0-6\lcd.c"
 744  0003  1F00     E  	clr _BCD[2]
 745  0004              #line 745 "k:\55555555555555\test\saier-a600n-2260-usa4g-aal-bg95-ui-v1.0-6\lcd.c"
 745  0004              	fcall _SBR_DISP_SYS
 746  000B              #line 746 "k:\55555555555555\test\saier-a600n-2260-usa4g-aal-bg95-ui-v1.0-6\lcd.c"
 746  000B  0F4F        	mov a,79
 746  000C  0080     E  	mov _BCD[0],a
 747  000D              #line 747 "k:\55555555555555\test\saier-a600n-2260-usa4g-aal-bg95-ui-v1.0-6\lcd.c"
 747  000D  0F7B        	mov a,123
 747  000E  0080     E  	mov _BCD[1],a
 748  000F              #line 748 "k:\55555555555555\test\saier-a600n-2260-usa4g-aal-bg95-ui-v1.0-6\lcd.c"
 748  000F  1F00     E  	clr _BCD[2]
 749  0010              #line 749 "k:\55555555555555\test\saier-a600n-2260-usa4g-aal-bg95-ui-v1.0-6\lcd.c"
 749  0010              	fcall _SBR_DISP_DIA
 750  0017              #line 750 "k:\55555555555555\test\saier-a600n-2260-usa4g-aal-bg95-ui-v1.0-6\lcd.c"
 750  0017              	fcall _SBR_DISP_DP2_OFF
文件：lcd.c        编译器版本 HGASM 0202 页次25

 750  001E  0003        	ret
 750  001F              _SBR_DISP_E5_ON endp
 750  001F              #line 750 "k:\55555555555555\test\saier-a600n-2260-usa4g-aal-bg95-ui-v1.0-6\lcd.c"
 750  001F              #pragma debug scope 1 1
 750  001F              public _SBR_DISP_E6_ON
 750  001F              #pragma debug scope 58 1
 755  001F              #line 755 "k:\55555555555555\test\saier-a600n-2260-usa4g-aal-bg95-ui-v1.0-6\lcd.c"
 755  0000              _SBR_DISP_E6_ON .section 'code'
 755  0000              _SBR_DISP_E6_ON proc
 756  0000              #line 756 "k:\55555555555555\test\saier-a600n-2260-usa4g-aal-bg95-ui-v1.0-6\lcd.c"
 756  0000  0F1F        	mov a,31
 756  0001  0080     E  	mov _BCD[0],a
 757  0002              #line 757 "k:\55555555555555\test\saier-a600n-2260-usa4g-aal-bg95-ui-v1.0-6\lcd.c"
 757  0002  1F00     E  	clr _BCD[1]
 758  0003              #line 758 "k:\55555555555555\test\saier-a600n-2260-usa4g-aal-bg95-ui-v1.0-6\lcd.c"
 758  0003  1F00     E  	clr _BCD[2]
 759  0004              #line 759 "k:\55555555555555\test\saier-a600n-2260-usa4g-aal-bg95-ui-v1.0-6\lcd.c"
 759  0004              	fcall _SBR_DISP_SYS
 760  000B              #line 760 "k:\55555555555555\test\saier-a600n-2260-usa4g-aal-bg95-ui-v1.0-6\lcd.c"
 760  000B  0F5F        	mov a,95
 760  000C  0080     E  	mov _BCD[0],a
 761  000D              #line 761 "k:\55555555555555\test\saier-a600n-2260-usa4g-aal-bg95-ui-v1.0-6\lcd.c"
 761  000D  0F7B        	mov a,123
 761  000E  0080     E  	mov _BCD[1],a
 762  000F              #line 762 "k:\55555555555555\test\saier-a600n-2260-usa4g-aal-bg95-ui-v1.0-6\lcd.c"
 762  000F  1F00     E  	clr _BCD[2]
 763  0010              #line 763 "k:\55555555555555\test\saier-a600n-2260-usa4g-aal-bg95-ui-v1.0-6\lcd.c"
 763  0010              	fcall _SBR_DISP_DIA
 764  0017              #line 764 "k:\55555555555555\test\saier-a600n-2260-usa4g-aal-bg95-ui-v1.0-6\lcd.c"
 764  0017              	fcall _SBR_DISP_DP2_OFF
 764  001E  0003        	ret
 764  001F              _SBR_DISP_E6_ON endp
 764  001F              #line 764 "k:\55555555555555\test\saier-a600n-2260-usa4g-aal-bg95-ui-v1.0-6\lcd.c"
 764  001F              #pragma debug scope 1 1
 764  001F              public _SBR_DISP_E7_ON
 764  001F              #pragma debug scope 59 1
 769  001F              #line 769 "k:\55555555555555\test\saier-a600n-2260-usa4g-aal-bg95-ui-v1.0-6\lcd.c"
 769  0000              _SBR_DISP_E7_ON .section 'code'
 769  0000              _SBR_DISP_E7_ON proc
 770  0000              #line 770 "k:\55555555555555\test\saier-a600n-2260-usa4g-aal-bg95-ui-v1.0-6\lcd.c"
 770  0000  0F1F        	mov a,31
 770  0001  0080     E  	mov _BCD[0],a
 771  0002              #line 771 "k:\55555555555555\test\saier-a600n-2260-usa4g-aal-bg95-ui-v1.0-6\lcd.c"
 771  0002  1F00     E  	clr _BCD[1]
 772  0003              #line 772 "k:\55555555555555\test\saier-a600n-2260-usa4g-aal-bg95-ui-v1.0-6\lcd.c"
 772  0003  1F00     E  	clr _BCD[2]
 773  0004              #line 773 "k:\55555555555555\test\saier-a600n-2260-usa4g-aal-bg95-ui-v1.0-6\lcd.c"
 773  0004              	fcall _SBR_DISP_SYS
 774  000B              #line 774 "k:\55555555555555\test\saier-a600n-2260-usa4g-aal-bg95-ui-v1.0-6\lcd.c"
 774  000B  0F61        	mov a,97
 774  000C  0080     E  	mov _BCD[0],a
 775  000D              #line 775 "k:\55555555555555\test\saier-a600n-2260-usa4g-aal-bg95-ui-v1.0-6\lcd.c"
 775  000D  0F7B        	mov a,123
 775  000E  0080     E  	mov _BCD[1],a
 776  000F              #line 776 "k:\55555555555555\test\saier-a600n-2260-usa4g-aal-bg95-ui-v1.0-6\lcd.c"
 776  000F  1F00     E  	clr _BCD[2]
 777  0010              #line 777 "k:\55555555555555\test\saier-a600n-2260-usa4g-aal-bg95-ui-v1.0-6\lcd.c"
 777  0010              	fcall _SBR_DISP_DIA
 778  0017              #line 778 "k:\55555555555555\test\saier-a600n-2260-usa4g-aal-bg95-ui-v1.0-6\lcd.c"
 778  0017              	fcall _SBR_DISP_DP2_OFF
文件：lcd.c        编译器版本 HGASM 0202 页次26

 778  001E  0003        	ret
 778  001F              _SBR_DISP_E7_ON endp
 778  001F              #line 778 "k:\55555555555555\test\saier-a600n-2260-usa4g-aal-bg95-ui-v1.0-6\lcd.c"
 778  001F              #pragma debug scope 1 1
 778  001F              public _SBR_DISP_U19_ON
 778  001F              #pragma debug scope 60 1
 794  001F              #line 794 "k:\55555555555555\test\saier-a600n-2260-usa4g-aal-bg95-ui-v1.0-6\lcd.c"
 794  0000              _SBR_DISP_U19_ON .section 'code'
 794  0000              _SBR_DISP_U19_ON proc
 795  0000              #line 795 "k:\55555555555555\test\saier-a600n-2260-usa4g-aal-bg95-ui-v1.0-6\lcd.c"
 795  0000  0F7A        	mov a,122
 795  0001  0080     E  	mov _BCD[0],a
 796  0002              #line 796 "k:\55555555555555\test\saier-a600n-2260-usa4g-aal-bg95-ui-v1.0-6\lcd.c"
 796  0002  1F00     E  	clr _BCD[1]
 797  0003              #line 797 "k:\55555555555555\test\saier-a600n-2260-usa4g-aal-bg95-ui-v1.0-6\lcd.c"
 797  0003  1F00     E  	clr _BCD[2]
 798  0004              #line 798 "k:\55555555555555\test\saier-a600n-2260-usa4g-aal-bg95-ui-v1.0-6\lcd.c"
 798  0004              	fcall _SBR_DISP_SYS
 799  000B              #line 799 "k:\55555555555555\test\saier-a600n-2260-usa4g-aal-bg95-ui-v1.0-6\lcd.c"
 799  000B  0F7B        	mov a,123
 799  000C  0080     E  	mov _BCD[0],a
 800  000D              #line 800 "k:\55555555555555\test\saier-a600n-2260-usa4g-aal-bg95-ui-v1.0-6\lcd.c"
 800  000D  0F60        	mov a,96
 800  000E  0080     E  	mov _BCD[1],a
 801  000F              #line 801 "k:\55555555555555\test\saier-a600n-2260-usa4g-aal-bg95-ui-v1.0-6\lcd.c"
 801  000F  1F00     E  	clr _BCD[2]
 802  0010              #line 802 "k:\55555555555555\test\saier-a600n-2260-usa4g-aal-bg95-ui-v1.0-6\lcd.c"
 802  0010              	fcall _SBR_DISP_DIA
 803  0017              #line 803 "k:\55555555555555\test\saier-a600n-2260-usa4g-aal-bg95-ui-v1.0-6\lcd.c"
 803  0017              	fcall _SBR_DISP_DP2_ON
 803  001E  0003        	ret
 803  001F              _SBR_DISP_U19_ON endp
 803  001F              #line 803 "k:\55555555555555\test\saier-a600n-2260-usa4g-aal-bg95-ui-v1.0-6\lcd.c"
 803  001F              #pragma debug scope 1 1
 803  001F              public _SBR_DISP_NOMON_ON
 803  001F              #pragma debug scope 61 1
 807  001F              #line 807 "k:\55555555555555\test\saier-a600n-2260-usa4g-aal-bg95-ui-v1.0-6\lcd.c"
 807  0000              _SBR_DISP_NOMON_ON .section 'code'
 807  0000              _SBR_DISP_NOMON_ON proc
 808  0000              #line 808 "k:\55555555555555\test\saier-a600n-2260-usa4g-aal-bg95-ui-v1.0-6\lcd.c"
 808  0000  0F04        	mov a,4
 808  0001  0080     E  	mov _BCD[0],a
 809  0002              #line 809 "k:\55555555555555\test\saier-a600n-2260-usa4g-aal-bg95-ui-v1.0-6\lcd.c"
 809  0002  0F04        	mov a,4
 809  0003  0080     E  	mov _BCD[1],a
 810  0004              #line 810 "k:\55555555555555\test\saier-a600n-2260-usa4g-aal-bg95-ui-v1.0-6\lcd.c"
 810  0004  1F00     E  	clr _BCD[2]
 811  0005              #line 811 "k:\55555555555555\test\saier-a600n-2260-usa4g-aal-bg95-ui-v1.0-6\lcd.c"
 811  0005              	fcall _SBR_DISP_SYS
 812  000C              #line 812 "k:\55555555555555\test\saier-a600n-2260-usa4g-aal-bg95-ui-v1.0-6\lcd.c"
 812  000C  0F04        	mov a,4
 812  000D  0080     E  	mov _BCD[0],a
 813  000E              #line 813 "k:\55555555555555\test\saier-a600n-2260-usa4g-aal-bg95-ui-v1.0-6\lcd.c"
 813  000E  0F04        	mov a,4
 813  000F  0080     E  	mov _BCD[1],a
 814  0010              #line 814 "k:\55555555555555\test\saier-a600n-2260-usa4g-aal-bg95-ui-v1.0-6\lcd.c"
 814  0010  1F00     E  	clr _BCD[2]
 815  0011              #line 815 "k:\55555555555555\test\saier-a600n-2260-usa4g-aal-bg95-ui-v1.0-6\lcd.c"
 815  0011              	fcall _SBR_DISP_DIA
 815  0018  0003        	ret
文件：lcd.c        编译器版本 HGASM 0202 页次27

 815  0019              _SBR_DISP_NOMON_ON endp
 815  0019              #line 815 "k:\55555555555555\test\saier-a600n-2260-usa4g-aal-bg95-ui-v1.0-6\lcd.c"
 815  0019              #pragma debug scope 1 1
 815  0019              public _SBR_Disp_YS_ON
 815  0019              #pragma debug scope 62 1
 884  0019              #line 884 "k:\55555555555555\test\saier-a600n-2260-usa4g-aal-bg95-ui-v1.0-6\lcd.c"
 884  0000              _SBR_Disp_YS_ON .section 'code'
 884  0000              _SBR_Disp_YS_ON proc
 885  0000              #line 885 "k:\55555555555555\test\saier-a600n-2260-usa4g-aal-bg95-ui-v1.0-6\lcd.c"
 885  0000  0F4F        	mov a,79
 885  0001  0080     E  	mov _BCD[0],a
 886  0002              #line 886 "k:\55555555555555\test\saier-a600n-2260-usa4g-aal-bg95-ui-v1.0-6\lcd.c"
 886  0002  0F6E        	mov a,110
 886  0003  0080     E  	mov _BCD[1],a
 887  0004              #line 887 "k:\55555555555555\test\saier-a600n-2260-usa4g-aal-bg95-ui-v1.0-6\lcd.c"
 887  0004  1F00     E  	clr _BCD[2]
 888  0005              #line 888 "k:\55555555555555\test\saier-a600n-2260-usa4g-aal-bg95-ui-v1.0-6\lcd.c"
 888  0005              	fcall _SBR_DISP_SYS
 888  000C  0003        	ret
 888  000D              _SBR_Disp_YS_ON endp
 888  000D              #line 888 "k:\55555555555555\test\saier-a600n-2260-usa4g-aal-bg95-ui-v1.0-6\lcd.c"
 888  000D              #pragma debug scope 1 1
 888  000D              public _SBR_Disp_NO_ON
 888  000D              #pragma debug scope 63 1
 893  000D              #line 893 "k:\55555555555555\test\saier-a600n-2260-usa4g-aal-bg95-ui-v1.0-6\lcd.c"
 893  0000              _SBR_Disp_NO_ON .section 'code'
 893  0000              _SBR_Disp_NO_ON proc
 894  0000              #line 894 "k:\55555555555555\test\saier-a600n-2260-usa4g-aal-bg95-ui-v1.0-6\lcd.c"
 894  0000  0F5C        	mov a,92
 894  0001  0080     E  	mov _BCD[0],a
 895  0002              #line 895 "k:\55555555555555\test\saier-a600n-2260-usa4g-aal-bg95-ui-v1.0-6\lcd.c"
 895  0002  0F54        	mov a,84
 895  0003  0080     E  	mov _BCD[1],a
 896  0004              #line 896 "k:\55555555555555\test\saier-a600n-2260-usa4g-aal-bg95-ui-v1.0-6\lcd.c"
 896  0004  1F00     E  	clr _BCD[2]
 897  0005              #line 897 "k:\55555555555555\test\saier-a600n-2260-usa4g-aal-bg95-ui-v1.0-6\lcd.c"
 897  0005              	fcall _SBR_DISP_SYS
 897  000C  0003        	ret
 897  000D              _SBR_Disp_NO_ON endp
 897  000D              #line 897 "k:\55555555555555\test\saier-a600n-2260-usa4g-aal-bg95-ui-v1.0-6\lcd.c"
 897  000D              #pragma debug scope 1 1
 897  000D              public _SBR_DISP_DIA_OFF
 897  000D              #pragma debug scope 64 1
1125  000D              #line 1125 "k:\55555555555555\test\saier-a600n-2260-usa4g-aal-bg95-ui-v1.0-6\lcd.c"
1125  0000              _SBR_DISP_DIA_OFF .section 'code'
1125  0000              _SBR_DISP_DIA_OFF proc
1126  0000              #line 1126 "k:\55555555555555\test\saier-a600n-2260-usa4g-aal-bg95-ui-v1.0-6\lcd.c"
1126  0000  1F00     E  	clr _BCD[0]
1127  0001              #line 1127 "k:\55555555555555\test\saier-a600n-2260-usa4g-aal-bg95-ui-v1.0-6\lcd.c"
1127  0001  1F00     E  	clr _BCD[1]
1128  0002              #line 1128 "k:\55555555555555\test\saier-a600n-2260-usa4g-aal-bg95-ui-v1.0-6\lcd.c"
1128  0002  1F00     E  	clr _BCD[2]
1129  0003              #line 1129 "k:\55555555555555\test\saier-a600n-2260-usa4g-aal-bg95-ui-v1.0-6\lcd.c"
1129  0003              	fcall _SBR_DISP_DIA
1129  000A  0003        	ret
1129  000B              _SBR_DISP_DIA_OFF endp
1129  000B              #line 1129 "k:\55555555555555\test\saier-a600n-2260-usa4g-aal-bg95-ui-v1.0-6\lcd.c"
1129  000B              #pragma debug scope 1 1
1129  000B              public _SBR_Disp_E1_OFF
1129  000B              #pragma debug scope 65 1
文件：lcd.c        编译器版本 HGASM 0202 页次28

 661  000B              #line 661 "k:\55555555555555\test\saier-a600n-2260-usa4g-aal-bg95-ui-v1.0-6\lcd.c"
 661  0000              _SBR_Disp_E1_OFF .section 'code'
 661  0000              _SBR_Disp_E1_OFF proc
 662  0000              #line 662 "k:\55555555555555\test\saier-a600n-2260-usa4g-aal-bg95-ui-v1.0-6\lcd.c"
 662  0000              	fcall _SBR_DISP_DIA_OFF
 662  0007  0003        	ret
 662  0008              _SBR_Disp_E1_OFF endp
 662  0008              #line 662 "k:\55555555555555\test\saier-a600n-2260-usa4g-aal-bg95-ui-v1.0-6\lcd.c"
 662  0008              #pragma debug scope 1 1
 662  0008              public _SBR_Disp_E2_OFF
 662  0008              #pragma debug scope 66 1
 666  0008              #line 666 "k:\55555555555555\test\saier-a600n-2260-usa4g-aal-bg95-ui-v1.0-6\lcd.c"
 666  0000              _SBR_Disp_E2_OFF .section 'code'
 666  0000              _SBR_Disp_E2_OFF proc
 667  0000              #line 667 "k:\55555555555555\test\saier-a600n-2260-usa4g-aal-bg95-ui-v1.0-6\lcd.c"
 667  0000              	fcall _SBR_DISP_DIA_OFF
 667  0007  0003        	ret
 667  0008              _SBR_Disp_E2_OFF endp
 667  0008              #line 667 "k:\55555555555555\test\saier-a600n-2260-usa4g-aal-bg95-ui-v1.0-6\lcd.c"
 667  0008              #pragma debug scope 1 1
 667  0008              public _SBR_Disp_E3_OFF
 667  0008              #pragma debug scope 67 1
 670  0008              #line 670 "k:\55555555555555\test\saier-a600n-2260-usa4g-aal-bg95-ui-v1.0-6\lcd.c"
 670  0000              _SBR_Disp_E3_OFF .section 'code'
 670  0000              _SBR_Disp_E3_OFF proc
 671  0000              #line 671 "k:\55555555555555\test\saier-a600n-2260-usa4g-aal-bg95-ui-v1.0-6\lcd.c"
 671  0000              	fcall _SBR_DISP_DIA_OFF
 671  0007  0003        	ret
 671  0008              _SBR_Disp_E3_OFF endp
 671  0008              #line 671 "k:\55555555555555\test\saier-a600n-2260-usa4g-aal-bg95-ui-v1.0-6\lcd.c"
 671  0008              #pragma debug scope 1 1
 671  0008              public _SBR_Disp_ON_OFF
 671  0008              #pragma debug scope 68 1
 900  0008              #line 900 "k:\55555555555555\test\saier-a600n-2260-usa4g-aal-bg95-ui-v1.0-6\lcd.c"
 900  0000              _SBR_Disp_ON_OFF .section 'code'
 900  0000              _SBR_Disp_ON_OFF proc
 901  0000              #line 901 "k:\55555555555555\test\saier-a600n-2260-usa4g-aal-bg95-ui-v1.0-6\lcd.c"
 901  0000              	fcall _SBR_DISP_DIA_OFF
 901  0007  0003        	ret
 901  0008              _SBR_Disp_ON_OFF endp
 901  0008              #line 901 "k:\55555555555555\test\saier-a600n-2260-usa4g-aal-bg95-ui-v1.0-6\lcd.c"
 901  0008              #pragma debug scope 1 1
 901  0008              public _SBR_Disp_OFF_OFF
 901  0008              #pragma debug scope 69 1
 912  0008              #line 912 "k:\55555555555555\test\saier-a600n-2260-usa4g-aal-bg95-ui-v1.0-6\lcd.c"
 912  0000              _SBR_Disp_OFF_OFF .section 'code'
 912  0000              _SBR_Disp_OFF_OFF proc
 913  0000              #line 913 "k:\55555555555555\test\saier-a600n-2260-usa4g-aal-bg95-ui-v1.0-6\lcd.c"
 913  0000              	fcall _SBR_DISP_DIA_OFF
 913  0007  0003        	ret
 913  0008              _SBR_Disp_OFF_OFF endp
 913  0008              #line 913 "k:\55555555555555\test\saier-a600n-2260-usa4g-aal-bg95-ui-v1.0-6\lcd.c"
 913  0008              #pragma debug scope 1 1
 913  0008              public _SBR_DISP_SP_OFF
 913  0008              #pragma debug scope 70 1
1141  0008              #line 1141 "k:\55555555555555\test\saier-a600n-2260-usa4g-aal-bg95-ui-v1.0-6\lcd.c"
1141  0000              _SBR_DISP_SP_OFF .section 'code'
1141  0000              _SBR_DISP_SP_OFF proc
1142  0000              #line 1142 "k:\55555555555555\test\saier-a600n-2260-usa4g-aal-bg95-ui-v1.0-6\lcd.c"
1142  0000  1F00     E  	clr _BCD[2]
文件：lcd.c        编译器版本 HGASM 0202 页次29

1143  0001              #line 1143 "k:\55555555555555\test\saier-a600n-2260-usa4g-aal-bg95-ui-v1.0-6\lcd.c"
1143  0001  0F4F        	mov a,79
1143  0002  0080     E  	mov _BCD[1],a
1144  0003              #line 1144 "k:\55555555555555\test\saier-a600n-2260-usa4g-aal-bg95-ui-v1.0-6\lcd.c"
1144  0003  0F37        	mov a,55
1144  0004  0080     E  	mov _BCD[0],a
1145  0005              #line 1145 "k:\55555555555555\test\saier-a600n-2260-usa4g-aal-bg95-ui-v1.0-6\lcd.c"
1145  0005              	fcall _SBR_DISP_SYS
1146  000C              #line 1146 "k:\55555555555555\test\saier-a600n-2260-usa4g-aal-bg95-ui-v1.0-6\lcd.c"
1146  000C  1F00     E  	clr _BCD[2]
1147  000D              #line 1147 "k:\55555555555555\test\saier-a600n-2260-usa4g-aal-bg95-ui-v1.0-6\lcd.c"
1147  000D  0F5C        	mov a,92
1147  000E  0080     E  	mov _BCD[1],a
1148  000F              #line 1148 "k:\55555555555555\test\saier-a600n-2260-usa4g-aal-bg95-ui-v1.0-6\lcd.c"
1148  000F  0F17        	mov a,23
1148  0010  0080     E  	mov _BCD[0],a
1149  0011              #line 1149 "k:\55555555555555\test\saier-a600n-2260-usa4g-aal-bg95-ui-v1.0-6\lcd.c"
1149  0011              	fcall _SBR_DISP_DIA
1149  0018  0003        	ret
1149  0019              _SBR_DISP_SP_OFF endp
1149  0019              #line 1149 "k:\55555555555555\test\saier-a600n-2260-usa4g-aal-bg95-ui-v1.0-6\lcd.c"
1149  0019              #pragma debug scope 1 1
1149  0019              public _SBR_DISP_SP_ON
1149  0019              #pragma debug scope 71 1
1152  0019              #line 1152 "k:\55555555555555\test\saier-a600n-2260-usa4g-aal-bg95-ui-v1.0-6\lcd.c"
1152  0000              _SBR_DISP_SP_ON .section 'code'
1152  0000              _SBR_DISP_SP_ON proc
1153  0000              #line 1153 "k:\55555555555555\test\saier-a600n-2260-usa4g-aal-bg95-ui-v1.0-6\lcd.c"
1153  0000  1F00     E  	clr _BCD[2]
1154  0001              #line 1154 "k:\55555555555555\test\saier-a600n-2260-usa4g-aal-bg95-ui-v1.0-6\lcd.c"
1154  0001  0F4F        	mov a,79
1154  0002  0080     E  	mov _BCD[1],a
1155  0003              #line 1155 "k:\55555555555555\test\saier-a600n-2260-usa4g-aal-bg95-ui-v1.0-6\lcd.c"
1155  0003  0F37        	mov a,55
1155  0004  0080     E  	mov _BCD[0],a
1156  0005              #line 1156 "k:\55555555555555\test\saier-a600n-2260-usa4g-aal-bg95-ui-v1.0-6\lcd.c"
1156  0005              	fcall _SBR_DISP_SYS
1157  000C              #line 1157 "k:\55555555555555\test\saier-a600n-2260-usa4g-aal-bg95-ui-v1.0-6\lcd.c"
1157  000C  1F00     E  	clr _BCD[2]
1158  000D              #line 1158 "k:\55555555555555\test\saier-a600n-2260-usa4g-aal-bg95-ui-v1.0-6\lcd.c"
1158  000D  0F5C        	mov a,92
1158  000E  0080     E  	mov _BCD[1],a
1159  000F              #line 1159 "k:\55555555555555\test\saier-a600n-2260-usa4g-aal-bg95-ui-v1.0-6\lcd.c"
1159  000F  0F54        	mov a,84
1159  0010  0080     E  	mov _BCD[0],a
1160  0011              #line 1160 "k:\55555555555555\test\saier-a600n-2260-usa4g-aal-bg95-ui-v1.0-6\lcd.c"
1160  0011              	fcall _SBR_DISP_DIA
1160  0018  0003        	ret
1160  0019              _SBR_DISP_SP_ON endp
1160  0019              #line 1160 "k:\55555555555555\test\saier-a600n-2260-usa4g-aal-bg95-ui-v1.0-6\lcd.c"
1160  0019              #pragma debug scope 1 1
1160  0019              public _SBR_DISP_SYS_OFF
1160  0019              #pragma debug scope 72 1
1171  0019              #line 1171 "k:\55555555555555\test\saier-a600n-2260-usa4g-aal-bg95-ui-v1.0-6\lcd.c"
1171  0000              _SBR_DISP_SYS_OFF .section 'code'
1171  0000              _SBR_DISP_SYS_OFF proc
1172  0000              #line 1172 "k:\55555555555555\test\saier-a600n-2260-usa4g-aal-bg95-ui-v1.0-6\lcd.c"
1172  0000  1F00     E  	clr _BCD[0]
1173  0001              #line 1173 "k:\55555555555555\test\saier-a600n-2260-usa4g-aal-bg95-ui-v1.0-6\lcd.c"
1173  0001  1F00     E  	clr _BCD[1]
文件：lcd.c        编译器版本 HGASM 0202 页次30

1174  0002              #line 1174 "k:\55555555555555\test\saier-a600n-2260-usa4g-aal-bg95-ui-v1.0-6\lcd.c"
1174  0002  1F00     E  	clr _BCD[2]
1175  0003              #line 1175 "k:\55555555555555\test\saier-a600n-2260-usa4g-aal-bg95-ui-v1.0-6\lcd.c"
1175  0003              	fcall _SBR_DISP_SYS
1175  000A  0003        	ret
1175  000B              _SBR_DISP_SYS_OFF endp
1175  000B              #line 1175 "k:\55555555555555\test\saier-a600n-2260-usa4g-aal-bg95-ui-v1.0-6\lcd.c"
1175  000B              #pragma debug scope 1 1
1175  000B              public _SBR_BIN_TO_BCD
1175  000B              #pragma debug scope 73 1
1232  000B              #line 1232 "k:\55555555555555\test\saier-a600n-2260-usa4g-aal-bg95-ui-v1.0-6\lcd.c"
1232  0000              _SBR_BIN_TO_BCD .section 'code'
1232  0000              _SBR_BIN_TO_BCD proc
1235  0000              #line 1235 "k:\55555555555555\test\saier-a600n-2260-usa4g-aal-bg95-ui-v1.0-6\lcd.c"
1235  0000  0700     E  	mov a,_R_TEMPDATA[0]
1235  0001  0080     E  	mov rb,a
1235  0002  0700     E  	mov a,_R_TEMPDATA[1]
1235  0003  0080     E  	mov rc,a
1235  0004  0F05        	mov a,5
1235  0005  0080     E  	mov ra,a
1236  0006              #line 1236 "k:\55555555555555\test\saier-a600n-2260-usa4g-aal-bg95-ui-v1.0-6\lcd.c"
1236  0006  1F00     E  	clr rf
1236  0007              _L308:
1238  0007              #line 1238 "k:\55555555555555\test\saier-a600n-2260-usa4g-aal-bg95-ui-v1.0-6\lcd.c"
1238  0007  1F00     E  	clr _builtin_holtek_udivmodhi4_2[6]
1238  0008  0700     E  	mov a,rb  
1238  0009  0080     E  	mov _builtin_holtek_udivmodhi4_2[0],a  
1238  000A  0700     E  	mov a,rc  
1238  000B  0080     E  	mov _builtin_holtek_udivmodhi4_2[1],a
1238  000C  0F0A        	mov a,10  
1238  000D  0080     E  	mov _builtin_holtek_udivmodhi4_2[2],a  
1238  000E  1F00     E  	clr _builtin_holtek_udivmodhi4_2[3]
1238  000F              	fcall _builtin_holtek_udivmodhi4
1238  0016  0700     E  	mov a,_builtin_holtek_udivmodhi4_2[4]  
1238  0017  0080     E  	mov rd,a  
1238  0018  0700     E  	mov a,_builtin_holtek_udivmodhi4_2[5]  
1238  0019  0080     E  	mov re,a
1238  001A  0F00     E  	mov a,low offset _BCD
1238  001B  0300     E  	add a,rf
1238  001C  0083        	mov mp,a
1238  001D  0F00     E  	mov a,high offset _BCD
1238  001E  1F04        	clr sbp
1238  001F  1384        	adcm a,sbp
1238  0020  0700     E  	mov a,rd
1238  0021  0082        	mov ir,a
1239  0022              #line 1239 "k:\55555555555555\test\saier-a600n-2260-usa4g-aal-bg95-ui-v1.0-6\lcd.c"
1239  0022  1F00     E  	clr _builtin_holtek_udivmodhi4_2[6]
1239  0023  0700     E  	mov a,rb  
1239  0024  0080     E  	mov _builtin_holtek_udivmodhi4_2[0],a  
1239  0025  0700     E  	mov a,rc  
1239  0026  0080     E  	mov _builtin_holtek_udivmodhi4_2[1],a
1239  0027  0F0A        	mov a,10  
1239  0028  0080     E  	mov _builtin_holtek_udivmodhi4_2[2],a  
1239  0029  1F00     E  	clr _builtin_holtek_udivmodhi4_2[3]
1239  002A              	fcall _builtin_holtek_udivmodhi4
1239  0031  0700     E  	mov a,_builtin_holtek_udivmodhi4_2[0]  
1239  0032  0080     E  	mov rb,a  
1239  0033  0700     E  	mov a,_builtin_holtek_udivmodhi4_2[1]  
1239  0034  0080     E  	mov rc,a
1236  0035              #line 1236 "k:\55555555555555\test\saier-a600n-2260-usa4g-aal-bg95-ui-v1.0-6\lcd.c"
文件：lcd.c        编译器版本 HGASM 0202 页次31

1236  0035  1480     E  	inc rf
1236  0036  1780     E  	sdz ra
1236  0037  2800     R  	jmp _L308
1236  0038  0003        	ret
1236  0039              _SBR_BIN_TO_BCD endp
1236  0039              #line 1236 "k:\55555555555555\test\saier-a600n-2260-usa4g-aal-bg95-ui-v1.0-6\lcd.c"
1236  0039              #pragma debug scope 1 1
1236  0039              public _SBR_DISP_SYS_ON
1236  0039              #pragma debug scope 74 1
1180  0039              #line 1180 "k:\55555555555555\test\saier-a600n-2260-usa4g-aal-bg95-ui-v1.0-6\lcd.c"
1180  0000              _SBR_DISP_SYS_ON .section 'code'
1180  0000              _SBR_DISP_SYS_ON proc
1181  0000              #line 1181 "k:\55555555555555\test\saier-a600n-2260-usa4g-aal-bg95-ui-v1.0-6\lcd.c"
1181  0000              	fcall _SBR_BIN_TO_BCD
1182  0007              #line 1182 "k:\55555555555555\test\saier-a600n-2260-usa4g-aal-bg95-ui-v1.0-6\lcd.c"
1182  0007  0F03        	mov a,3
1182  0008  0200     E  	sub a,_BCD[2]
1182  0009  3C0A        	sz c
1182  000A  2800     R  	jmp _L310
1184  000B              #line 1184 "k:\55555555555555\test\saier-a600n-2260-usa4g-aal-bg95-ui-v1.0-6\lcd.c"
1184  000B  1F00     E  	clr _BCD[2]
1184  000C              _L310:
1186  000C              #line 1186 "k:\55555555555555\test\saier-a600n-2260-usa4g-aal-bg95-ui-v1.0-6\lcd.c"
1186  000C  1080     E  	sz _BCD[2]
1186  000D  2800     R  	jmp _L312
1188  000E              #line 1188 "k:\55555555555555\test\saier-a600n-2260-usa4g-aal-bg95-ui-v1.0-6\lcd.c"
1188  000E  0F10        	mov a,16
1188  000F  0080     E  	mov _BCD[2],a
1189  0010              #line 1189 "k:\55555555555555\test\saier-a600n-2260-usa4g-aal-bg95-ui-v1.0-6\lcd.c"
1189  0010  1080     E  	sz _BCD[1]
1189  0011  2800     R  	jmp _L312
1191  0012              #line 1191 "k:\55555555555555\test\saier-a600n-2260-usa4g-aal-bg95-ui-v1.0-6\lcd.c"
1191  0012  0F10        	mov a,16
1191  0013  0080     E  	mov _BCD[1],a
1191  0014              _L312:
1195  0014              #line 1195 "k:\55555555555555\test\saier-a600n-2260-usa4g-aal-bg95-ui-v1.0-6\lcd.c"
1195  0014  0F00     R  	mov a,low offset _display_num
1195  0015  0300     E  	add a,_BCD[0]
1195  0016  0083        	mov mp,a
1195  0017  0F00     R  	mov a,high offset _display_num
1195  0018  1F04        	clr sbp
1195  0019  1384        	adcm a,sbp
1195  001A              	fcall _Crom2Prom
1195  0021  0080     E  	mov _BCD[0],a
1196  0022              #line 1196 "k:\55555555555555\test\saier-a600n-2260-usa4g-aal-bg95-ui-v1.0-6\lcd.c"
1196  0022  0F00     R  	mov a,low offset _display_num
1196  0023  0300     E  	add a,_BCD[1]
1196  0024  0083        	mov mp,a
1196  0025  0F00     R  	mov a,high offset _display_num
1196  0026  1F04        	clr sbp
1196  0027  1384        	adcm a,sbp
1196  0028              	fcall _Crom2Prom
1196  002F  0080     E  	mov _BCD[1],a
1197  0030              #line 1197 "k:\55555555555555\test\saier-a600n-2260-usa4g-aal-bg95-ui-v1.0-6\lcd.c"
1197  0030  0F00     R  	mov a,low offset _display_num
1197  0031  0300     E  	add a,_BCD[2]
1197  0032  0083        	mov mp,a
1197  0033  0F00     R  	mov a,high offset _display_num
1197  0034  1F04        	clr sbp
1197  0035  1384        	adcm a,sbp
文件：lcd.c        编译器版本 HGASM 0202 页次32

1197  0036              	fcall _Crom2Prom
1197  003D  0080     E  	mov _BCD[2],a
1198  003E              #line 1198 "k:\55555555555555\test\saier-a600n-2260-usa4g-aal-bg95-ui-v1.0-6\lcd.c"
1198  003E              	fcall _SBR_DISP_SYS
1198  0045  0003        	ret
1198  0046              _SBR_DISP_SYS_ON endp
1198  0046              #line 1198 "k:\55555555555555\test\saier-a600n-2260-usa4g-aal-bg95-ui-v1.0-6\lcd.c"
1198  0046              #pragma debug scope 1 1
1198  0046              public _disp_sys
1198  0046              #pragma debug scope 75 1
  92  0046              #line 92 "k:\55555555555555\test\saier-a600n-2260-usa4g-aal-bg95-ui-v1.0-6\lcd.c"
  92  0000              _disp_sys .section 'code'
  92  0000              _disp_sys proc
  92  0000              public _disp_sys_2
  92  0000  0002[           local _disp_sys_2 db 2 dup(?)	; 2,0
            00
            ]
  92  0002              #pragma debug variable 10 75 _disp_sys_2+0 "da"
  93  0002              #line 93 "k:\55555555555555\test\saier-a600n-2260-usa4g-aal-bg95-ui-v1.0-6\lcd.c"
  93  0000  3C00     E  	sz _MODEFLAG[0].7
  93  0001  2800     R  	jmp _L315
  95  0002              #line 95 "k:\55555555555555\test\saier-a600n-2260-usa4g-aal-bg95-ui-v1.0-6\lcd.c"
  95  0002  0700     R  	mov a,_disp_sys_2[0]
  95  0003  0080     E  	mov _R_TEMPDATA[0],a
  95  0004  0700     R  	mov a,_disp_sys_2[1]
  95  0005  0080     E  	mov _R_TEMPDATA[1],a
  95  0006              #pragma debug scope 76 75
  95  0006              ;begin block, line: 95.-1
  95  0006              #pragma debug scope 77 76
  95  0006              ;begin block, line: 95.-1
 264  0006              #line 264 "k:\55555555555555\test\saier-a600n-2260-usa4g-aal-bg95-ui-v1.0-6\lcd.c"
 264  0006  B40C 0004   	lclr [1036].0
 264  0008              #pragma debug scope 76 75
 264  0008              #pragma debug scope 75 1
  97  0008              #line 97 "k:\55555555555555\test\saier-a600n-2260-usa4g-aal-bg95-ui-v1.0-6\lcd.c"
  97  0008              	fcall _SBR_DISP_SYS_ON
  97  000F  2800     R  	jmp _L314
  97  0010              _L315:
 101  0010              #line 101 "k:\55555555555555\test\saier-a600n-2260-usa4g-aal-bg95-ui-v1.0-6\lcd.c"
 101  0010  0700     R  	mov a,_disp_sys_2[0]
 101  0011  0080     R  	mov _mmhg_chance_kpa_2[0],a
 101  0012  0700     R  	mov a,_disp_sys_2[1]
 101  0013  0080     R  	mov _mmhg_chance_kpa_2[1],a
 101  0014              	fcall _mmhg_chance_kpa
 101  001B  0700     E  	mov a,ra
 101  001C  0080     E  	mov _R_TEMPDATA[0],a
 101  001D  0700     E  	mov a,rb
 101  001E  0080     E  	mov _R_TEMPDATA[1],a
 101  001F              #pragma debug scope 78 75
 101  001F              ;begin block, line: 101.-1
 101  001F              #pragma debug scope 79 78
 101  001F              ;begin block, line: 101.-1
 259  001F              #line 259 "k:\55555555555555\test\saier-a600n-2260-usa4g-aal-bg95-ui-v1.0-6\lcd.c"
 259  001F  B00C 0004   	lset [1036].0
 259  0021              #pragma debug scope 78 75
 259  0021              #pragma debug scope 75 1
 103  0021              #line 103 "k:\55555555555555\test\saier-a600n-2260-usa4g-aal-bg95-ui-v1.0-6\lcd.c"
 103  0021              	fcall _SBR_DISP_SYS_ON
 104  0028              #line 104 "k:\55555555555555\test\saier-a600n-2260-usa4g-aal-bg95-ui-v1.0-6\lcd.c"
 104  0028  0F09        	mov a,9
文件：lcd.c        编译器版本 HGASM 0202 页次33

 104  0029  0200     E  	sub a,_R_TEMPDATA[0]
 104  002A  0F00        	mov a,0
 104  002B  1200     E  	sbc a,_R_TEMPDATA[1]
 104  002C  380A        	snz c
 104  002D  2800     R  	jmp _L314
 106  002E              #line 106 "k:\55555555555555\test\saier-a600n-2260-usa4g-aal-bg95-ui-v1.0-6\lcd.c"
 106  002E  0F04        	mov a,4
 106  002F  0084        	mov [4],a
 107  0030              #line 107 "k:\55555555555555\test\saier-a600n-2260-usa4g-aal-bg95-ui-v1.0-6\lcd.c"
 107  0030  0F0A        	mov a,10
 107  0031  0083        	mov [3],a
 108  0032              #line 108 "k:\55555555555555\test\saier-a600n-2260-usa4g-aal-bg95-ui-v1.0-6\lcd.c"
 108  0032  3002        	set [2].0
 109  0033              #line 109 "k:\55555555555555\test\saier-a600n-2260-usa4g-aal-bg95-ui-v1.0-6\lcd.c"
 109  0033  3082        	set [2].1
 110  0034              #line 110 "k:\55555555555555\test\saier-a600n-2260-usa4g-aal-bg95-ui-v1.0-6\lcd.c"
 110  0034  3102        	set [2].2
 111  0035              #line 111 "k:\55555555555555\test\saier-a600n-2260-usa4g-aal-bg95-ui-v1.0-6\lcd.c"
 111  0035  1483        	inc [3]
 112  0036              #line 112 "k:\55555555555555\test\saier-a600n-2260-usa4g-aal-bg95-ui-v1.0-6\lcd.c"
 112  0036  3002        	set [2].0
 113  0037              #line 113 "k:\55555555555555\test\saier-a600n-2260-usa4g-aal-bg95-ui-v1.0-6\lcd.c"
 113  0037  3102        	set [2].2
 114  0038              #line 114 "k:\55555555555555\test\saier-a600n-2260-usa4g-aal-bg95-ui-v1.0-6\lcd.c"
 114  0038  1483        	inc [3]
 115  0039              #line 115 "k:\55555555555555\test\saier-a600n-2260-usa4g-aal-bg95-ui-v1.0-6\lcd.c"
 115  0039  3102        	set [2].2
 115  003A              _L314:
 115  003A  0003        	ret
 115  003B              _disp_sys endp
 115  003B              #line 115 "k:\55555555555555\test\saier-a600n-2260-usa4g-aal-bg95-ui-v1.0-6\lcd.c"
 115  003B              #pragma debug scope 1 1
 115  003B              public _SBR_DISP_DIA_ON
 115  003B              #pragma debug scope 80 1
1203  003B              #line 1203 "k:\55555555555555\test\saier-a600n-2260-usa4g-aal-bg95-ui-v1.0-6\lcd.c"
1203  0000              _SBR_DISP_DIA_ON .section 'code'
1203  0000              _SBR_DISP_DIA_ON proc
1204  0000              #line 1204 "k:\55555555555555\test\saier-a600n-2260-usa4g-aal-bg95-ui-v1.0-6\lcd.c"
1204  0000              	fcall _SBR_BIN_TO_BCD
1205  0007              #line 1205 "k:\55555555555555\test\saier-a600n-2260-usa4g-aal-bg95-ui-v1.0-6\lcd.c"
1205  0007  0F03        	mov a,3
1205  0008  0200     E  	sub a,_BCD[2]
1205  0009  3C0A        	sz c
1205  000A  2800     R  	jmp _L318
1207  000B              #line 1207 "k:\55555555555555\test\saier-a600n-2260-usa4g-aal-bg95-ui-v1.0-6\lcd.c"
1207  000B  1F00     E  	clr _BCD[2]
1207  000C              _L318:
1209  000C              #line 1209 "k:\55555555555555\test\saier-a600n-2260-usa4g-aal-bg95-ui-v1.0-6\lcd.c"
1209  000C  1080     E  	sz _BCD[2]
1209  000D  2800     R  	jmp _L320
1211  000E              #line 1211 "k:\55555555555555\test\saier-a600n-2260-usa4g-aal-bg95-ui-v1.0-6\lcd.c"
1211  000E  0F10        	mov a,16
1211  000F  0080     E  	mov _BCD[2],a
1212  0010              #line 1212 "k:\55555555555555\test\saier-a600n-2260-usa4g-aal-bg95-ui-v1.0-6\lcd.c"
1212  0010  1080     E  	sz _BCD[1]
1212  0011  2800     R  	jmp _L320
1214  0012              #line 1214 "k:\55555555555555\test\saier-a600n-2260-usa4g-aal-bg95-ui-v1.0-6\lcd.c"
1214  0012  0F10        	mov a,16
1214  0013  0080     E  	mov _BCD[1],a
1214  0014              _L320:
文件：lcd.c        编译器版本 HGASM 0202 页次34

1218  0014              #line 1218 "k:\55555555555555\test\saier-a600n-2260-usa4g-aal-bg95-ui-v1.0-6\lcd.c"
1218  0014  0F00     R  	mov a,low offset _display_num
1218  0015  0300     E  	add a,_BCD[0]
1218  0016  0083        	mov mp,a
1218  0017  0F00     R  	mov a,high offset _display_num
1218  0018  1F04        	clr sbp
1218  0019  1384        	adcm a,sbp
1218  001A              	fcall _Crom2Prom
1218  0021  0080     E  	mov _BCD[0],a
1219  0022              #line 1219 "k:\55555555555555\test\saier-a600n-2260-usa4g-aal-bg95-ui-v1.0-6\lcd.c"
1219  0022  0F00     R  	mov a,low offset _display_num
1219  0023  0300     E  	add a,_BCD[1]
1219  0024  0083        	mov mp,a
1219  0025  0F00     R  	mov a,high offset _display_num
1219  0026  1F04        	clr sbp
1219  0027  1384        	adcm a,sbp
1219  0028              	fcall _Crom2Prom
1219  002F  0080     E  	mov _BCD[1],a
1220  0030              #line 1220 "k:\55555555555555\test\saier-a600n-2260-usa4g-aal-bg95-ui-v1.0-6\lcd.c"
1220  0030  0F00     R  	mov a,low offset _display_num
1220  0031  0300     E  	add a,_BCD[2]
1220  0032  0083        	mov mp,a
1220  0033  0F00     R  	mov a,high offset _display_num
1220  0034  1F04        	clr sbp
1220  0035  1384        	adcm a,sbp
1220  0036              	fcall _Crom2Prom
1220  003D  0080     E  	mov _BCD[2],a
1221  003E              #line 1221 "k:\55555555555555\test\saier-a600n-2260-usa4g-aal-bg95-ui-v1.0-6\lcd.c"
1221  003E              	fcall _SBR_DISP_DIA
1221  0045  0003        	ret
1221  0046              _SBR_DISP_DIA_ON endp
1221  0046              #line 1221 "k:\55555555555555\test\saier-a600n-2260-usa4g-aal-bg95-ui-v1.0-6\lcd.c"
1221  0046              #pragma debug scope 1 1
1221  0046              public _disp_dia
1221  0046              #pragma debug scope 81 1
  59  0046              #line 59 "k:\55555555555555\test\saier-a600n-2260-usa4g-aal-bg95-ui-v1.0-6\lcd.c"
  59  0000              _disp_dia .section 'code'
  59  0000              _disp_dia proc
  59  0000              public _disp_dia_2
  59  0000  0002[           local _disp_dia_2 db 2 dup(?)	; 2,0
            00
            ]
  59  0002              #pragma debug variable 10 81 _disp_dia_2+0 "da"
  60  0002              #line 60 "k:\55555555555555\test\saier-a600n-2260-usa4g-aal-bg95-ui-v1.0-6\lcd.c"
  60  0000  3C00     E  	sz _MODEFLAG[0].7
  60  0001  2800     R  	jmp _L323
  62  0002              #line 62 "k:\55555555555555\test\saier-a600n-2260-usa4g-aal-bg95-ui-v1.0-6\lcd.c"
  62  0002              	fcall _SBR_DISP_DP2_OFF
  62  0009              #pragma debug scope 82 81
  62  0009              ;begin block, line: 62.-1
  62  0009              #pragma debug scope 83 82
  62  0009              ;begin block, line: 62.-1
 249  0009              #line 249 "k:\55555555555555\test\saier-a600n-2260-usa4g-aal-bg95-ui-v1.0-6\lcd.c"
 249  0009  B10F 0004   	lset [1039].2
 249  000B              #pragma debug scope 82 81
 249  000B              #pragma debug scope 81 1
 249  000B              #pragma debug scope 84 81
 249  000B              ;begin block, line: 249.-1
 249  000B              #pragma debug scope 85 84
 249  000B              ;begin block, line: 249.-1
文件：lcd.c        编译器版本 HGASM 0202 页次35

 285  000B              #line 285 "k:\55555555555555\test\saier-a600n-2260-usa4g-aal-bg95-ui-v1.0-6\lcd.c"
 285  000B  B512 0004   	lclr [1042].2
 285  000D              #pragma debug scope 84 81
 285  000D              #pragma debug scope 81 1
  65  000D              #line 65 "k:\55555555555555\test\saier-a600n-2260-usa4g-aal-bg95-ui-v1.0-6\lcd.c"
  65  000D  0700     R  	mov a,_disp_dia_2[0]
  65  000E  0080     E  	mov _R_TEMPDATA[0],a
  65  000F  0700     R  	mov a,_disp_dia_2[1]
  65  0010  0080     E  	mov _R_TEMPDATA[1],a
  66  0011              #line 66 "k:\55555555555555\test\saier-a600n-2260-usa4g-aal-bg95-ui-v1.0-6\lcd.c"
  66  0011              	fcall _SBR_DISP_DIA_ON
  66  0018  2800     R  	jmp _L322
  66  0019              _L323:
  70  0019              #line 70 "k:\55555555555555\test\saier-a600n-2260-usa4g-aal-bg95-ui-v1.0-6\lcd.c"
  70  0019  0700     R  	mov a,_disp_dia_2[0]
  70  001A  0080     R  	mov _mmhg_chance_kpa_2[0],a
  70  001B  0700     R  	mov a,_disp_dia_2[1]
  70  001C  0080     R  	mov _mmhg_chance_kpa_2[1],a
  70  001D              	fcall _mmhg_chance_kpa
  70  0024  0700     E  	mov a,ra
  70  0025  0080     E  	mov _R_TEMPDATA[0],a
  70  0026  0700     E  	mov a,rb
  70  0027  0080     E  	mov _R_TEMPDATA[1],a
  71  0028              #line 71 "k:\55555555555555\test\saier-a600n-2260-usa4g-aal-bg95-ui-v1.0-6\lcd.c"
  71  0028              	fcall _SBR_DISP_DP2_ON
  71  002F              #pragma debug scope 86 81
  71  002F              ;begin block, line: 71.-1
  71  002F              #pragma debug scope 87 86
  71  002F              ;begin block, line: 71.-1
 254  002F              #line 254 "k:\55555555555555\test\saier-a600n-2260-usa4g-aal-bg95-ui-v1.0-6\lcd.c"
 254  002F  B50F 0004   	lclr [1039].2
 254  0031              #pragma debug scope 86 81
 254  0031              #pragma debug scope 81 1
 254  0031              #pragma debug scope 88 81
 254  0031              ;begin block, line: 254.-1
 254  0031              #pragma debug scope 89 88
 254  0031              ;begin block, line: 254.-1
 280  0031              #line 280 "k:\55555555555555\test\saier-a600n-2260-usa4g-aal-bg95-ui-v1.0-6\lcd.c"
 280  0031  B112 0004   	lset [1042].2
 280  0033              #pragma debug scope 88 81
 280  0033              #pragma debug scope 81 1
  74  0033              #line 74 "k:\55555555555555\test\saier-a600n-2260-usa4g-aal-bg95-ui-v1.0-6\lcd.c"
  74  0033              	fcall _SBR_DISP_DIA_ON
  75  003A              #line 75 "k:\55555555555555\test\saier-a600n-2260-usa4g-aal-bg95-ui-v1.0-6\lcd.c"
  75  003A  0F09        	mov a,9
  75  003B  0200     E  	sub a,_R_TEMPDATA[0]
  75  003C  0F00        	mov a,0
  75  003D  1200     E  	sbc a,_R_TEMPDATA[1]
  75  003E  380A        	snz c
  75  003F  2800     R  	jmp _L322
  77  0040              #line 77 "k:\55555555555555\test\saier-a600n-2260-usa4g-aal-bg95-ui-v1.0-6\lcd.c"
  77  0040  0F04        	mov a,4
  77  0041  0084        	mov [4],a
  78  0042              #line 78 "k:\55555555555555\test\saier-a600n-2260-usa4g-aal-bg95-ui-v1.0-6\lcd.c"
  78  0042  0F14        	mov a,20
  78  0043  0083        	mov [3],a
  79  0044              #line 79 "k:\55555555555555\test\saier-a600n-2260-usa4g-aal-bg95-ui-v1.0-6\lcd.c"
  79  0044  3002        	set [2].0
  80  0045              #line 80 "k:\55555555555555\test\saier-a600n-2260-usa4g-aal-bg95-ui-v1.0-6\lcd.c"
  80  0045  3082        	set [2].1
文件：lcd.c        编译器版本 HGASM 0202 页次36

  81  0046              #line 81 "k:\55555555555555\test\saier-a600n-2260-usa4g-aal-bg95-ui-v1.0-6\lcd.c"
  81  0046  1583        	dec [3]
  82  0047              #line 82 "k:\55555555555555\test\saier-a600n-2260-usa4g-aal-bg95-ui-v1.0-6\lcd.c"
  82  0047  3002        	set [2].0
  83  0048              #line 83 "k:\55555555555555\test\saier-a600n-2260-usa4g-aal-bg95-ui-v1.0-6\lcd.c"
  83  0048  3102        	set [2].2
  84  0049              #line 84 "k:\55555555555555\test\saier-a600n-2260-usa4g-aal-bg95-ui-v1.0-6\lcd.c"
  84  0049  1583        	dec [3]
  85  004A              #line 85 "k:\55555555555555\test\saier-a600n-2260-usa4g-aal-bg95-ui-v1.0-6\lcd.c"
  85  004A  3002        	set [2].0
  86  004B              #line 86 "k:\55555555555555\test\saier-a600n-2260-usa4g-aal-bg95-ui-v1.0-6\lcd.c"
  86  004B  3082        	set [2].1
  86  004C              _L322:
  86  004C  0003        	ret
  86  004D              _disp_dia endp
  86  004D              #line 86 "k:\55555555555555\test\saier-a600n-2260-usa4g-aal-bg95-ui-v1.0-6\lcd.c"
  86  004D              #pragma debug scope 1 1
  86  004D              public _SBR_DISP_PLUSE
  86  004D              #pragma debug scope 90 1
1259  004D              #line 1259 "k:\55555555555555\test\saier-a600n-2260-usa4g-aal-bg95-ui-v1.0-6\lcd.c"
1259  0000              _SBR_DISP_PLUSE .section 'code'
1259  0000              _SBR_DISP_PLUSE proc
1260  0000              #line 1260 "k:\55555555555555\test\saier-a600n-2260-usa4g-aal-bg95-ui-v1.0-6\lcd.c"
1260  0000  0F04        	mov a,4
1260  0001  0084        	mov [4],a
1261  0002              #line 1261 "k:\55555555555555\test\saier-a600n-2260-usa4g-aal-bg95-ui-v1.0-6\lcd.c"
1261  0002  0F13        	mov a,19
1261  0003  0083        	mov [3],a
1262  0004              #line 1262 "k:\55555555555555\test\saier-a600n-2260-usa4g-aal-bg95-ui-v1.0-6\lcd.c"
1262  0004  0F07        	mov a,7
1262  0005  0682        	andm a,[2]
1263  0006              #line 1263 "k:\55555555555555\test\saier-a600n-2260-usa4g-aal-bg95-ui-v1.0-6\lcd.c"
1263  0006  3800     E  	snz _BCD[2].5
1263  0007  2800     R  	jmp _L326
1265  0008              #line 1265 "k:\55555555555555\test\saier-a600n-2260-usa4g-aal-bg95-ui-v1.0-6\lcd.c"
1265  0008  3282        	set [2].5
1265  0009              _L326:
1267  0009              #line 1267 "k:\55555555555555\test\saier-a600n-2260-usa4g-aal-bg95-ui-v1.0-6\lcd.c"
1267  0009  3800     E  	snz _BCD[1].1
1267  000A  2800     R  	jmp _L327
1269  000B              #line 1269 "k:\55555555555555\test\saier-a600n-2260-usa4g-aal-bg95-ui-v1.0-6\lcd.c"
1269  000B  3182        	set [2].3
1269  000C              _L327:
1271  000C              #line 1271 "k:\55555555555555\test\saier-a600n-2260-usa4g-aal-bg95-ui-v1.0-6\lcd.c"
1271  000C  3800     E  	snz _BCD[1].4
1271  000D  2800     R  	jmp _L328
1273  000E              #line 1273 "k:\55555555555555\test\saier-a600n-2260-usa4g-aal-bg95-ui-v1.0-6\lcd.c"
1273  000E  3202        	set [2].4
1273  000F              _L328:
1276  000F              #line 1276 "k:\55555555555555\test\saier-a600n-2260-usa4g-aal-bg95-ui-v1.0-6\lcd.c"
1276  000F  1583        	dec [3]
1277  0010              #line 1277 "k:\55555555555555\test\saier-a600n-2260-usa4g-aal-bg95-ui-v1.0-6\lcd.c"
1277  0010  0F07        	mov a,7
1277  0011  0682        	andm a,[2]
1278  0012              #line 1278 "k:\55555555555555\test\saier-a600n-2260-usa4g-aal-bg95-ui-v1.0-6\lcd.c"
1278  0012  3800     E  	snz _BCD[1].0
1278  0013  2800     R  	jmp _L329
1280  0014              #line 1280 "k:\55555555555555\test\saier-a600n-2260-usa4g-aal-bg95-ui-v1.0-6\lcd.c"
1280  0014  3182        	set [2].3
1280  0015              _L329:
文件：lcd.c        编译器版本 HGASM 0202 页次37

1282  0015              #line 1282 "k:\55555555555555\test\saier-a600n-2260-usa4g-aal-bg95-ui-v1.0-6\lcd.c"
1282  0015  3800     E  	snz _BCD[1].2
1282  0016  2800     R  	jmp _L330
1284  0017              #line 1284 "k:\55555555555555\test\saier-a600n-2260-usa4g-aal-bg95-ui-v1.0-6\lcd.c"
1284  0017  3202        	set [2].4
1284  0018              _L330:
1286  0018              #line 1286 "k:\55555555555555\test\saier-a600n-2260-usa4g-aal-bg95-ui-v1.0-6\lcd.c"
1286  0018  3800     E  	snz _BCD[1].3
1286  0019  2800     R  	jmp _L331
1288  001A              #line 1288 "k:\55555555555555\test\saier-a600n-2260-usa4g-aal-bg95-ui-v1.0-6\lcd.c"
1288  001A  3282        	set [2].5
1288  001B              _L331:
1291  001B              #line 1291 "k:\55555555555555\test\saier-a600n-2260-usa4g-aal-bg95-ui-v1.0-6\lcd.c"
1291  001B  1583        	dec [3]
1292  001C              #line 1292 "k:\55555555555555\test\saier-a600n-2260-usa4g-aal-bg95-ui-v1.0-6\lcd.c"
1292  001C  0F07        	mov a,7
1292  001D  0682        	andm a,[2]
1293  001E              #line 1293 "k:\55555555555555\test\saier-a600n-2260-usa4g-aal-bg95-ui-v1.0-6\lcd.c"
1293  001E  3800     E  	snz _BCD[1].5
1293  001F  2800     R  	jmp _L332
1295  0020              #line 1295 "k:\55555555555555\test\saier-a600n-2260-usa4g-aal-bg95-ui-v1.0-6\lcd.c"
1295  0020  3182        	set [2].3
1295  0021              _L332:
1297  0021              #line 1297 "k:\55555555555555\test\saier-a600n-2260-usa4g-aal-bg95-ui-v1.0-6\lcd.c"
1297  0021  3800     E  	snz _BCD[1].6
1297  0022  2800     R  	jmp _L333
1299  0023              #line 1299 "k:\55555555555555\test\saier-a600n-2260-usa4g-aal-bg95-ui-v1.0-6\lcd.c"
1299  0023  3202        	set [2].4
1299  0024              _L333:
1301  0024              #line 1301 "k:\55555555555555\test\saier-a600n-2260-usa4g-aal-bg95-ui-v1.0-6\lcd.c"
1301  0024  3800     E  	snz _BCD[0].4
1301  0025  2800     R  	jmp _L334
1303  0026              #line 1303 "k:\55555555555555\test\saier-a600n-2260-usa4g-aal-bg95-ui-v1.0-6\lcd.c"
1303  0026  3282        	set [2].5
1303  0027              _L334:
1307  0027              #line 1307 "k:\55555555555555\test\saier-a600n-2260-usa4g-aal-bg95-ui-v1.0-6\lcd.c"
1307  0027  1583        	dec [3]
1308  0028              #line 1308 "k:\55555555555555\test\saier-a600n-2260-usa4g-aal-bg95-ui-v1.0-6\lcd.c"
1308  0028  0F07        	mov a,7
1308  0029  0682        	andm a,[2]
1309  002A              #line 1309 "k:\55555555555555\test\saier-a600n-2260-usa4g-aal-bg95-ui-v1.0-6\lcd.c"
1309  002A  3800     E  	snz _BCD[0].1
1309  002B  2800     R  	jmp _L335
1311  002C              #line 1311 "k:\55555555555555\test\saier-a600n-2260-usa4g-aal-bg95-ui-v1.0-6\lcd.c"
1311  002C  3182        	set [2].3
1311  002D              _L335:
1313  002D              #line 1313 "k:\55555555555555\test\saier-a600n-2260-usa4g-aal-bg95-ui-v1.0-6\lcd.c"
1313  002D  3800     E  	snz _BCD[0].2
1313  002E  2800     R  	jmp _L336
1315  002F              #line 1315 "k:\55555555555555\test\saier-a600n-2260-usa4g-aal-bg95-ui-v1.0-6\lcd.c"
1315  002F  3202        	set [2].4
1315  0030              _L336:
1317  0030              #line 1317 "k:\55555555555555\test\saier-a600n-2260-usa4g-aal-bg95-ui-v1.0-6\lcd.c"
1317  0030  3800     E  	snz _BCD[0].3
1317  0031  2800     R  	jmp _L337
1319  0032              #line 1319 "k:\55555555555555\test\saier-a600n-2260-usa4g-aal-bg95-ui-v1.0-6\lcd.c"
1319  0032  3282        	set [2].5
1319  0033              _L337:
1323  0033              #line 1323 "k:\55555555555555\test\saier-a600n-2260-usa4g-aal-bg95-ui-v1.0-6\lcd.c"
1323  0033  1583        	dec [3]
文件：lcd.c        编译器版本 HGASM 0202 页次38

1324  0034              #line 1324 "k:\55555555555555\test\saier-a600n-2260-usa4g-aal-bg95-ui-v1.0-6\lcd.c"
1324  0034  0F07        	mov a,7
1324  0035  0682        	andm a,[2]
1325  0036              #line 1325 "k:\55555555555555\test\saier-a600n-2260-usa4g-aal-bg95-ui-v1.0-6\lcd.c"
1325  0036  3800     E  	snz _BCD[0].0
1325  0037  2800     R  	jmp _L338
1327  0038              #line 1327 "k:\55555555555555\test\saier-a600n-2260-usa4g-aal-bg95-ui-v1.0-6\lcd.c"
1327  0038  3182        	set [2].3
1327  0039              _L338:
1329  0039              #line 1329 "k:\55555555555555\test\saier-a600n-2260-usa4g-aal-bg95-ui-v1.0-6\lcd.c"
1329  0039  3800     E  	snz _BCD[0].5
1329  003A  2800     R  	jmp _L339
1331  003B              #line 1331 "k:\55555555555555\test\saier-a600n-2260-usa4g-aal-bg95-ui-v1.0-6\lcd.c"
1331  003B  3202        	set [2].4
1331  003C              _L339:
1333  003C              #line 1333 "k:\55555555555555\test\saier-a600n-2260-usa4g-aal-bg95-ui-v1.0-6\lcd.c"
1333  003C  3800     E  	snz _BCD[0].6
1333  003D  2800     R  	jmp _L325
1335  003E              #line 1335 "k:\55555555555555\test\saier-a600n-2260-usa4g-aal-bg95-ui-v1.0-6\lcd.c"
1335  003E  3282        	set [2].5
1335  003F              _L325:
1335  003F  0003        	ret
1335  0040              _SBR_DISP_PLUSE endp
1335  0040              #line 1335 "k:\55555555555555\test\saier-a600n-2260-usa4g-aal-bg95-ui-v1.0-6\lcd.c"
1335  0040              #pragma debug scope 1 1
1335  0040              public _SBR_DISP_PLUSE_OFF
1335  0040              #pragma debug scope 91 1
1251  0040              #line 1251 "k:\55555555555555\test\saier-a600n-2260-usa4g-aal-bg95-ui-v1.0-6\lcd.c"
1251  0000              _SBR_DISP_PLUSE_OFF .section 'code'
1251  0000              _SBR_DISP_PLUSE_OFF proc
1252  0000              #line 1252 "k:\55555555555555\test\saier-a600n-2260-usa4g-aal-bg95-ui-v1.0-6\lcd.c"
1252  0000  1F00     E  	clr _BCD[0]
1253  0001              #line 1253 "k:\55555555555555\test\saier-a600n-2260-usa4g-aal-bg95-ui-v1.0-6\lcd.c"
1253  0001  1F00     E  	clr _BCD[1]
1254  0002              #line 1254 "k:\55555555555555\test\saier-a600n-2260-usa4g-aal-bg95-ui-v1.0-6\lcd.c"
1254  0002  1F00     E  	clr _BCD[2]
1255  0003              #line 1255 "k:\55555555555555\test\saier-a600n-2260-usa4g-aal-bg95-ui-v1.0-6\lcd.c"
1255  0003              	fcall _SBR_DISP_PLUSE
1255  000A  0003        	ret
1255  000B              _SBR_DISP_PLUSE_OFF endp
1255  000B              #line 1255 "k:\55555555555555\test\saier-a600n-2260-usa4g-aal-bg95-ui-v1.0-6\lcd.c"
1255  000B              #pragma debug scope 1 1
1255  000B              public _SBR_DISP_E_NO
1255  000B              #pragma debug scope 92 1
 782  000B              #line 782 "k:\55555555555555\test\saier-a600n-2260-usa4g-aal-bg95-ui-v1.0-6\lcd.c"
 782  0000              _SBR_DISP_E_NO .section 'code'
 782  0000              _SBR_DISP_E_NO proc
 782  0000  00              local _SBR_DISP_E_NO_2 db 1 dup(?)	; 0,1
 782  0000  0080     R  	mov _SBR_DISP_E_NO_2[0],a
 782  0001              #pragma debug variable 8 92 _SBR_DISP_E_NO_2+0 "step1"
 783  0001              #line 783 "k:\55555555555555\test\saier-a600n-2260-usa4g-aal-bg95-ui-v1.0-6\lcd.c"
 783  0001  0F1F        	mov a,31
 783  0002  0080     E  	mov _BCD[0],a
 784  0003              #line 784 "k:\55555555555555\test\saier-a600n-2260-usa4g-aal-bg95-ui-v1.0-6\lcd.c"
 784  0003  1F00     E  	clr _BCD[1]
 785  0004              #line 785 "k:\55555555555555\test\saier-a600n-2260-usa4g-aal-bg95-ui-v1.0-6\lcd.c"
 785  0004  1F00     E  	clr _BCD[2]
 786  0005              #line 786 "k:\55555555555555\test\saier-a600n-2260-usa4g-aal-bg95-ui-v1.0-6\lcd.c"
 786  0005              	fcall _SBR_DISP_SYS
 787  000C              #line 787 "k:\55555555555555\test\saier-a600n-2260-usa4g-aal-bg95-ui-v1.0-6\lcd.c"
文件：lcd.c        编译器版本 HGASM 0202 页次39

 787  000C  0700     R  	mov a,_SBR_DISP_E_NO_2[0]
 787  000D  0080     E  	mov _R_TEMPDATA[0],a
 787  000E  1F00     E  	clr _R_TEMPDATA[1]
 788  000F              #line 788 "k:\55555555555555\test\saier-a600n-2260-usa4g-aal-bg95-ui-v1.0-6\lcd.c"
 788  000F              	fcall _SBR_DISP_DIA_ON
 789  0016              #line 789 "k:\55555555555555\test\saier-a600n-2260-usa4g-aal-bg95-ui-v1.0-6\lcd.c"
 789  0016              	fcall _SBR_DISP_DP2_OFF
 791  001D              #line 791 "k:\55555555555555\test\saier-a600n-2260-usa4g-aal-bg95-ui-v1.0-6\lcd.c"
 791  001D              	fcall _SBR_DISP_PLUSE_OFF
 791  0024  0003        	ret
 791  0025              _SBR_DISP_E_NO endp
 791  0025              #line 791 "k:\55555555555555\test\saier-a600n-2260-usa4g-aal-bg95-ui-v1.0-6\lcd.c"
 791  0025              #pragma debug scope 1 1
 791  0025              public _SBR_DISP_PLUSE_ON
 791  0025              #pragma debug scope 93 1
1341  0025              #line 1341 "k:\55555555555555\test\saier-a600n-2260-usa4g-aal-bg95-ui-v1.0-6\lcd.c"
1341  0000              _SBR_DISP_PLUSE_ON .section 'code'
1341  0000              _SBR_DISP_PLUSE_ON proc
1342  0000              #line 1342 "k:\55555555555555\test\saier-a600n-2260-usa4g-aal-bg95-ui-v1.0-6\lcd.c"
1342  0000              	fcall _SBR_BIN_TO_BCD
1343  0007              #line 1343 "k:\55555555555555\test\saier-a600n-2260-usa4g-aal-bg95-ui-v1.0-6\lcd.c"
1343  0007  0F01        	mov a,1
1343  0008  0200     E  	sub a,_BCD[2]
1343  0009  3C0A        	sz c
1343  000A  2800     R  	jmp _L389
1345  000B              #line 1345 "k:\55555555555555\test\saier-a600n-2260-usa4g-aal-bg95-ui-v1.0-6\lcd.c"
1345  000B  1F00     E  	clr _BCD[2]
1345  000C              _L389:
1347  000C              #line 1347 "k:\55555555555555\test\saier-a600n-2260-usa4g-aal-bg95-ui-v1.0-6\lcd.c"
1347  000C  1080     E  	sz _BCD[2]
1347  000D  2800     R  	jmp _L391
1349  000E              #line 1349 "k:\55555555555555\test\saier-a600n-2260-usa4g-aal-bg95-ui-v1.0-6\lcd.c"
1349  000E  0F10        	mov a,16
1349  000F  0080     E  	mov _BCD[2],a
1350  0010              #line 1350 "k:\55555555555555\test\saier-a600n-2260-usa4g-aal-bg95-ui-v1.0-6\lcd.c"
1350  0010  1080     E  	sz _BCD[1]
1350  0011  2800     R  	jmp _L391
1352  0012              #line 1352 "k:\55555555555555\test\saier-a600n-2260-usa4g-aal-bg95-ui-v1.0-6\lcd.c"
1352  0012  0F10        	mov a,16
1352  0013  0080     E  	mov _BCD[1],a
1352  0014              _L391:
1356  0014              #line 1356 "k:\55555555555555\test\saier-a600n-2260-usa4g-aal-bg95-ui-v1.0-6\lcd.c"
1356  0014  0F00     R  	mov a,low offset _display_num
1356  0015  0300     E  	add a,_BCD[0]
1356  0016  0083        	mov mp,a
1356  0017  0F00     R  	mov a,high offset _display_num
1356  0018  1F04        	clr sbp
1356  0019  1384        	adcm a,sbp
1356  001A              	fcall _Crom2Prom
1356  0021  0080     E  	mov _BCD[0],a
1357  0022              #line 1357 "k:\55555555555555\test\saier-a600n-2260-usa4g-aal-bg95-ui-v1.0-6\lcd.c"
1357  0022  0F00     R  	mov a,low offset _display_num
1357  0023  0300     E  	add a,_BCD[1]
1357  0024  0083        	mov mp,a
1357  0025  0F00     R  	mov a,high offset _display_num
1357  0026  1F04        	clr sbp
1357  0027  1384        	adcm a,sbp
1357  0028              	fcall _Crom2Prom
1357  002F  0080     E  	mov _BCD[1],a
1358  0030              #line 1358 "k:\55555555555555\test\saier-a600n-2260-usa4g-aal-bg95-ui-v1.0-6\lcd.c"
文件：lcd.c        编译器版本 HGASM 0202 页次40

1358  0030  0F00     R  	mov a,low offset _display_num
1358  0031  0300     E  	add a,_BCD[2]
1358  0032  0083        	mov mp,a
1358  0033  0F00     R  	mov a,high offset _display_num
1358  0034  1F04        	clr sbp
1358  0035  1384        	adcm a,sbp
1358  0036              	fcall _Crom2Prom
1358  003D  0080     E  	mov _BCD[2],a
1359  003E              #line 1359 "k:\55555555555555\test\saier-a600n-2260-usa4g-aal-bg95-ui-v1.0-6\lcd.c"
1359  003E              	fcall _SBR_DISP_PLUSE
1359  0045  0003        	ret
1359  0046              _SBR_DISP_PLUSE_ON endp
1359  0046              #line 1359 "k:\55555555555555\test\saier-a600n-2260-usa4g-aal-bg95-ui-v1.0-6\lcd.c"
1359  0046              #pragma debug scope 1 1
1359  0046              public _disp_pu
1359  0046              #pragma debug scope 94 1
  54  0046              #line 54 "k:\55555555555555\test\saier-a600n-2260-usa4g-aal-bg95-ui-v1.0-6\lcd.c"
  54  0000              _disp_pu .section 'code'
  54  0000              _disp_pu proc
  54  0000              public _disp_pu_2
  54  0000  0002[           local _disp_pu_2 db 2 dup(?)	; 2,0
            00
            ]
  54  0002              #pragma debug variable 10 94 _disp_pu_2+0 "da"
  55  0002              #line 55 "k:\55555555555555\test\saier-a600n-2260-usa4g-aal-bg95-ui-v1.0-6\lcd.c"
  55  0000  0700     R  	mov a,_disp_pu_2[0]
  55  0001  0080     E  	mov _R_TEMPDATA[0],a
  55  0002  0700     R  	mov a,_disp_pu_2[1]
  55  0003  0080     E  	mov _R_TEMPDATA[1],a
  56  0004              #line 56 "k:\55555555555555\test\saier-a600n-2260-usa4g-aal-bg95-ui-v1.0-6\lcd.c"
  56  0004              	fcall _SBR_DISP_PLUSE_ON
  56  000B  0003        	ret
  56  000C              _disp_pu endp
  56  000C              #line 56 "k:\55555555555555\test\saier-a600n-2260-usa4g-aal-bg95-ui-v1.0-6\lcd.c"
  56  000C              #pragma debug scope 1 1
  56  000C              public _SBR_DISP_MEMORY_OFF
  56  000C              #pragma debug scope 95 1
1371  000C              #line 1371 "k:\55555555555555\test\saier-a600n-2260-usa4g-aal-bg95-ui-v1.0-6\lcd.c"
1371  0000              _SBR_DISP_MEMORY_OFF .section 'code'
1371  0000              _SBR_DISP_MEMORY_OFF proc
1372  0000              #line 1372 "k:\55555555555555\test\saier-a600n-2260-usa4g-aal-bg95-ui-v1.0-6\lcd.c"
1372  0000  1F00     E  	clr _BCD[0]
1373  0001              #line 1373 "k:\55555555555555\test\saier-a600n-2260-usa4g-aal-bg95-ui-v1.0-6\lcd.c"
1373  0001  1F00     E  	clr _BCD[1]
1373  0002  0003        	ret
1373  0003              _SBR_DISP_MEMORY_OFF endp
1373  0003              #line 1373 "k:\55555555555555\test\saier-a600n-2260-usa4g-aal-bg95-ui-v1.0-6\lcd.c"
1373  0003              #pragma debug scope 1 1
1373  0003              public _SBR_DISP_MEMORY
1373  0003              #pragma debug scope 96 1
1378  0003              #line 1378 "k:\55555555555555\test\saier-a600n-2260-usa4g-aal-bg95-ui-v1.0-6\lcd.c"
1378  0000              _SBR_DISP_MEMORY .section 'code'
1378  0000              _SBR_DISP_MEMORY proc
1378  0000  0003        	ret
1378  0001              _SBR_DISP_MEMORY endp
1378  0001              #line 1378 "k:\55555555555555\test\saier-a600n-2260-usa4g-aal-bg95-ui-v1.0-6\lcd.c"
1378  0001              #pragma debug scope 1 1
1378  0001              public _SBR_DISP_MEMORY_ON
1378  0001              #pragma debug scope 97 1
1459  0001              #line 1459 "k:\55555555555555\test\saier-a600n-2260-usa4g-aal-bg95-ui-v1.0-6\lcd.c"
文件：lcd.c        编译器版本 HGASM 0202 页次41

1459  0000              _SBR_DISP_MEMORY_ON .section 'code'
1459  0000              _SBR_DISP_MEMORY_ON proc
1460  0000              #line 1460 "k:\55555555555555\test\saier-a600n-2260-usa4g-aal-bg95-ui-v1.0-6\lcd.c"
1460  0000              	fcall _SBR_BIN_TO_BCD
1468  0007              #line 1468 "k:\55555555555555\test\saier-a600n-2260-usa4g-aal-bg95-ui-v1.0-6\lcd.c"
1468  0007  0F00     R  	mov a,low offset _display_num
1468  0008  0300     E  	add a,_BCD[0]
1468  0009  0083        	mov mp,a
1468  000A  0F00     R  	mov a,high offset _display_num
1468  000B  1F04        	clr sbp
1468  000C  1384        	adcm a,sbp
1468  000D              	fcall _Crom2Prom
1468  0014  0080     E  	mov _BCD[0],a
1469  0015              #line 1469 "k:\55555555555555\test\saier-a600n-2260-usa4g-aal-bg95-ui-v1.0-6\lcd.c"
1469  0015  0F00     R  	mov a,low offset _display_num
1469  0016  0300     E  	add a,_BCD[1]
1469  0017  0083        	mov mp,a
1469  0018  0F00     R  	mov a,high offset _display_num
1469  0019  1F04        	clr sbp
1469  001A  1384        	adcm a,sbp
1469  001B              	fcall _Crom2Prom
1469  0022  0080     E  	mov _BCD[1],a
1469  0023  0003        	ret
1469  0024              _SBR_DISP_MEMORY_ON endp
1469  0024              #line 1469 "k:\55555555555555\test\saier-a600n-2260-usa4g-aal-bg95-ui-v1.0-6\lcd.c"
1469  0024              #pragma debug scope 1 1
1469  0024              public _SBR_DISP_MONTH
1469  0024              #pragma debug scope 98 1
1489  0024              #line 1489 "k:\55555555555555\test\saier-a600n-2260-usa4g-aal-bg95-ui-v1.0-6\lcd.c"
1489  0000              _SBR_DISP_MONTH .section 'code'
1489  0000              _SBR_DISP_MONTH proc
1490  0000              #line 1490 "k:\55555555555555\test\saier-a600n-2260-usa4g-aal-bg95-ui-v1.0-6\lcd.c"
1490  0000  0F04        	mov a,4
1490  0001  0084        	mov [4],a
1491  0002              #line 1491 "k:\55555555555555\test\saier-a600n-2260-usa4g-aal-bg95-ui-v1.0-6\lcd.c"
1491  0002  0F17        	mov a,23
1491  0003  0083        	mov [3],a
1492  0004              #line 1492 "k:\55555555555555\test\saier-a600n-2260-usa4g-aal-bg95-ui-v1.0-6\lcd.c"
1492  0004  0F1F        	mov a,31
1492  0005  0682        	andm a,[2]
1493  0006              #line 1493 "k:\55555555555555\test\saier-a600n-2260-usa4g-aal-bg95-ui-v1.0-6\lcd.c"
1493  0006  3800     E  	snz _BCD[1].5
1493  0007  2800     R  	jmp _L398
1495  0008              #line 1495 "k:\55555555555555\test\saier-a600n-2260-usa4g-aal-bg95-ui-v1.0-6\lcd.c"
1495  0008  3282        	set [2].5
1495  0009              _L398:
1497  0009              #line 1497 "k:\55555555555555\test\saier-a600n-2260-usa4g-aal-bg95-ui-v1.0-6\lcd.c"
1497  0009  1583        	dec [3]
1498  000A              #line 1498 "k:\55555555555555\test\saier-a600n-2260-usa4g-aal-bg95-ui-v1.0-6\lcd.c"
1498  000A  0F1F        	mov a,31
1498  000B  0682        	andm a,[2]
1499  000C              #line 1499 "k:\55555555555555\test\saier-a600n-2260-usa4g-aal-bg95-ui-v1.0-6\lcd.c"
1499  000C  3800     E  	snz _BCD[1].6
1499  000D  2800     R  	jmp _L399
1501  000E              #line 1501 "k:\55555555555555\test\saier-a600n-2260-usa4g-aal-bg95-ui-v1.0-6\lcd.c"
1501  000E  3282        	set [2].5
1501  000F              _L399:
1503  000F              #line 1503 "k:\55555555555555\test\saier-a600n-2260-usa4g-aal-bg95-ui-v1.0-6\lcd.c"
1503  000F  0F06        	mov a,6
1503  0010  0083        	mov [3],a
文件：lcd.c        编译器版本 HGASM 0202 页次42

1504  0011              #line 1504 "k:\55555555555555\test\saier-a600n-2260-usa4g-aal-bg95-ui-v1.0-6\lcd.c"
1504  0011  0F3E        	mov a,62
1504  0012  0682        	andm a,[2]
1505  0013              #line 1505 "k:\55555555555555\test\saier-a600n-2260-usa4g-aal-bg95-ui-v1.0-6\lcd.c"
1505  0013  3800     E  	snz _BCD[1].0
1505  0014  2800     R  	jmp _L400
1507  0015              #line 1507 "k:\55555555555555\test\saier-a600n-2260-usa4g-aal-bg95-ui-v1.0-6\lcd.c"
1507  0015  3002        	set [2].0
1507  0016              _L400:
1509  0016              #line 1509 "k:\55555555555555\test\saier-a600n-2260-usa4g-aal-bg95-ui-v1.0-6\lcd.c"
1509  0016  1583        	dec [3]
1510  0017              #line 1510 "k:\55555555555555\test\saier-a600n-2260-usa4g-aal-bg95-ui-v1.0-6\lcd.c"
1510  0017  0F38        	mov a,56
1510  0018  0682        	andm a,[2]
1511  0019              #line 1511 "k:\55555555555555\test\saier-a600n-2260-usa4g-aal-bg95-ui-v1.0-6\lcd.c"
1511  0019  3800     E  	snz _BCD[0].1
1511  001A  2800     R  	jmp _L401
1513  001B              #line 1513 "k:\55555555555555\test\saier-a600n-2260-usa4g-aal-bg95-ui-v1.0-6\lcd.c"
1513  001B  3002        	set [2].0
1513  001C              _L401:
1515  001C              #line 1515 "k:\55555555555555\test\saier-a600n-2260-usa4g-aal-bg95-ui-v1.0-6\lcd.c"
1515  001C  3800     E  	snz _BCD[0].4
1515  001D  2800     R  	jmp _L402
1517  001E              #line 1517 "k:\55555555555555\test\saier-a600n-2260-usa4g-aal-bg95-ui-v1.0-6\lcd.c"
1517  001E  3082        	set [2].1
1517  001F              _L402:
1519  001F              #line 1519 "k:\55555555555555\test\saier-a600n-2260-usa4g-aal-bg95-ui-v1.0-6\lcd.c"
1519  001F  3800     E  	snz _BCD[0].3
1519  0020  2800     R  	jmp _L403
1521  0021              #line 1521 "k:\55555555555555\test\saier-a600n-2260-usa4g-aal-bg95-ui-v1.0-6\lcd.c"
1521  0021  3102        	set [2].2
1521  0022              _L403:
1523  0022              #line 1523 "k:\55555555555555\test\saier-a600n-2260-usa4g-aal-bg95-ui-v1.0-6\lcd.c"
1523  0022  1583        	dec [3]
1524  0023              #line 1524 "k:\55555555555555\test\saier-a600n-2260-usa4g-aal-bg95-ui-v1.0-6\lcd.c"
1524  0023  0F38        	mov a,56
1524  0024  0682        	andm a,[2]
1525  0025              #line 1525 "k:\55555555555555\test\saier-a600n-2260-usa4g-aal-bg95-ui-v1.0-6\lcd.c"
1525  0025  3800     E  	snz _BCD[0].0
1525  0026  2800     R  	jmp _L404
1527  0027              #line 1527 "k:\55555555555555\test\saier-a600n-2260-usa4g-aal-bg95-ui-v1.0-6\lcd.c"
1527  0027  3002        	set [2].0
1527  0028              _L404:
1529  0028              #line 1529 "k:\55555555555555\test\saier-a600n-2260-usa4g-aal-bg95-ui-v1.0-6\lcd.c"
1529  0028  3800     E  	snz _BCD[0].2
1529  0029  2800     R  	jmp _L405
1531  002A              #line 1531 "k:\55555555555555\test\saier-a600n-2260-usa4g-aal-bg95-ui-v1.0-6\lcd.c"
1531  002A  3082        	set [2].1
1531  002B              _L405:
1533  002B              #line 1533 "k:\55555555555555\test\saier-a600n-2260-usa4g-aal-bg95-ui-v1.0-6\lcd.c"
1533  002B  3800     E  	snz _BCD[0].6
1533  002C  2800     R  	jmp _L406
1535  002D              #line 1535 "k:\55555555555555\test\saier-a600n-2260-usa4g-aal-bg95-ui-v1.0-6\lcd.c"
1535  002D  3102        	set [2].2
1535  002E              _L406:
1537  002E              #line 1537 "k:\55555555555555\test\saier-a600n-2260-usa4g-aal-bg95-ui-v1.0-6\lcd.c"
1537  002E  1583        	dec [3]
1538  002F              #line 1538 "k:\55555555555555\test\saier-a600n-2260-usa4g-aal-bg95-ui-v1.0-6\lcd.c"
1538  002F  0F3E        	mov a,62
1538  0030  0682        	andm a,[2]
文件：lcd.c        编译器版本 HGASM 0202 页次43

1539  0031              #line 1539 "k:\55555555555555\test\saier-a600n-2260-usa4g-aal-bg95-ui-v1.0-6\lcd.c"
1539  0031  3800     E  	snz _BCD[0].5
1539  0032  2800     R  	jmp _L397
1541  0033              #line 1541 "k:\55555555555555\test\saier-a600n-2260-usa4g-aal-bg95-ui-v1.0-6\lcd.c"
1541  0033  3002        	set [2].0
1541  0034              _L397:
1541  0034  0003        	ret
1541  0035              _SBR_DISP_MONTH endp
1541  0035              #line 1541 "k:\55555555555555\test\saier-a600n-2260-usa4g-aal-bg95-ui-v1.0-6\lcd.c"
1541  0035              #pragma debug scope 1 1
1541  0035              public _SBR_DISP_MONTH_OFF
1541  0035              #pragma debug scope 99 1
1482  0035              #line 1482 "k:\55555555555555\test\saier-a600n-2260-usa4g-aal-bg95-ui-v1.0-6\lcd.c"
1482  0000              _SBR_DISP_MONTH_OFF .section 'code'
1482  0000              _SBR_DISP_MONTH_OFF proc
1483  0000              #line 1483 "k:\55555555555555\test\saier-a600n-2260-usa4g-aal-bg95-ui-v1.0-6\lcd.c"
1483  0000  1F00     E  	clr _BCD[0]
1484  0001              #line 1484 "k:\55555555555555\test\saier-a600n-2260-usa4g-aal-bg95-ui-v1.0-6\lcd.c"
1484  0001  1F00     E  	clr _BCD[1]
1485  0002              #line 1485 "k:\55555555555555\test\saier-a600n-2260-usa4g-aal-bg95-ui-v1.0-6\lcd.c"
1485  0002              	fcall _SBR_DISP_MONTH
1485  0009  0003        	ret
1485  000A              _SBR_DISP_MONTH_OFF endp
1485  000A              #line 1485 "k:\55555555555555\test\saier-a600n-2260-usa4g-aal-bg95-ui-v1.0-6\lcd.c"
1485  000A              #pragma debug scope 1 1
1485  000A              public _SBR_DISP_MONTH_ON
1485  000A              #pragma debug scope 100 1
1545  000A              #line 1545 "k:\55555555555555\test\saier-a600n-2260-usa4g-aal-bg95-ui-v1.0-6\lcd.c"
1545  0000              _SBR_DISP_MONTH_ON .section 'code'
1545  0000              _SBR_DISP_MONTH_ON proc
1546  0000              #line 1546 "k:\55555555555555\test\saier-a600n-2260-usa4g-aal-bg95-ui-v1.0-6\lcd.c"
1546  0000  1F00     E  	clr _R_TEMPDATA[1]
1547  0001              #line 1547 "k:\55555555555555\test\saier-a600n-2260-usa4g-aal-bg95-ui-v1.0-6\lcd.c"
1547  0001              	fcall _SBR_BIN_TO_BCD
1549  0008              #line 1549 "k:\55555555555555\test\saier-a600n-2260-usa4g-aal-bg95-ui-v1.0-6\lcd.c"
1549  0008  1080     E  	sz _BCD[1]
1549  0009  2800     R  	jmp _L440
1551  000A              #line 1551 "k:\55555555555555\test\saier-a600n-2260-usa4g-aal-bg95-ui-v1.0-6\lcd.c"
1551  000A  0F10        	mov a,16
1551  000B  0080     E  	mov _BCD[1],a
1551  000C              _L440:
1555  000C              #line 1555 "k:\55555555555555\test\saier-a600n-2260-usa4g-aal-bg95-ui-v1.0-6\lcd.c"
1555  000C  0F00     R  	mov a,low offset _display_num
1555  000D  0300     E  	add a,_BCD[0]
1555  000E  0083        	mov mp,a
1555  000F  0F00     R  	mov a,high offset _display_num
1555  0010  1F04        	clr sbp
1555  0011  1384        	adcm a,sbp
1555  0012              	fcall _Crom2Prom
1555  0019  0080     E  	mov _BCD[0],a
1556  001A              #line 1556 "k:\55555555555555\test\saier-a600n-2260-usa4g-aal-bg95-ui-v1.0-6\lcd.c"
1556  001A  0F00     R  	mov a,low offset _display_num
1556  001B  0300     E  	add a,_BCD[1]
1556  001C  0083        	mov mp,a
1556  001D  0F00     R  	mov a,high offset _display_num
1556  001E  1F04        	clr sbp
1556  001F  1384        	adcm a,sbp
1556  0020              	fcall _Crom2Prom
1556  0027  0080     E  	mov _BCD[1],a
1559  0028              #line 1559 "k:\55555555555555\test\saier-a600n-2260-usa4g-aal-bg95-ui-v1.0-6\lcd.c"
文件：lcd.c        编译器版本 HGASM 0202 页次44

1559  0028              	fcall _SBR_DISP_MONTH
1559  002F  0003        	ret
1559  0030              _SBR_DISP_MONTH_ON endp
1559  0030              #line 1559 "k:\55555555555555\test\saier-a600n-2260-usa4g-aal-bg95-ui-v1.0-6\lcd.c"
1559  0030              #pragma debug scope 1 1
1559  0030              public _SBR_DISP_DAY
1559  0030              #pragma debug scope 101 1
1576  0030              #line 1576 "k:\55555555555555\test\saier-a600n-2260-usa4g-aal-bg95-ui-v1.0-6\lcd.c"
1576  0000              _SBR_DISP_DAY .section 'code'
1576  0000              _SBR_DISP_DAY proc
1578  0000              #line 1578 "k:\55555555555555\test\saier-a600n-2260-usa4g-aal-bg95-ui-v1.0-6\lcd.c"
1578  0000  0F04        	mov a,4
1578  0001  0084        	mov [4],a
1579  0002              #line 1579 "k:\55555555555555\test\saier-a600n-2260-usa4g-aal-bg95-ui-v1.0-6\lcd.c"
1579  0002  0F02        	mov a,2
1579  0003  0083        	mov [3],a
1580  0004              #line 1580 "k:\55555555555555\test\saier-a600n-2260-usa4g-aal-bg95-ui-v1.0-6\lcd.c"
1580  0004  0702        	mov a,[2]
1580  0005  0080     E  	mov ra,a
1580  0006  1F02        	clr [2]
1581  0007              #line 1581 "k:\55555555555555\test\saier-a600n-2260-usa4g-aal-bg95-ui-v1.0-6\lcd.c"
1581  0007  3800     E  	snz _BCD[1].0
1581  0008  2800     R  	jmp _L442
1583  0009              #line 1583 "k:\55555555555555\test\saier-a600n-2260-usa4g-aal-bg95-ui-v1.0-6\lcd.c"
1583  0009  3002        	set [2].0
1583  000A              _L442:
1585  000A              #line 1585 "k:\55555555555555\test\saier-a600n-2260-usa4g-aal-bg95-ui-v1.0-6\lcd.c"
1585  000A  3800     E  	snz _BCD[1].1
1585  000B  2800     R  	jmp _L443
1587  000C              #line 1587 "k:\55555555555555\test\saier-a600n-2260-usa4g-aal-bg95-ui-v1.0-6\lcd.c"
1587  000C  3082        	set [2].1
1587  000D              _L443:
1589  000D              #line 1589 "k:\55555555555555\test\saier-a600n-2260-usa4g-aal-bg95-ui-v1.0-6\lcd.c"
1589  000D  3800     E  	snz _BCD[1].3
1589  000E  2800     R  	jmp _L444
1591  000F              #line 1591 "k:\55555555555555\test\saier-a600n-2260-usa4g-aal-bg95-ui-v1.0-6\lcd.c"
1591  000F  3102        	set [2].2
1591  0010              _L444:
1593  0010              #line 1593 "k:\55555555555555\test\saier-a600n-2260-usa4g-aal-bg95-ui-v1.0-6\lcd.c"
1593  0010  3800     E  	snz _BCD[1].6
1593  0011  2800     R  	jmp _L445
1595  0012              #line 1595 "k:\55555555555555\test\saier-a600n-2260-usa4g-aal-bg95-ui-v1.0-6\lcd.c"
1595  0012  3182        	set [2].3
1595  0013              _L445:
1597  0013              #line 1597 "k:\55555555555555\test\saier-a600n-2260-usa4g-aal-bg95-ui-v1.0-6\lcd.c"
1597  0013  3800     E  	snz _BCD[1].2
1597  0014  2800     R  	jmp _L446
1599  0015              #line 1599 "k:\55555555555555\test\saier-a600n-2260-usa4g-aal-bg95-ui-v1.0-6\lcd.c"
1599  0015  3202        	set [2].4
1599  0016              _L446:
1601  0016              #line 1601 "k:\55555555555555\test\saier-a600n-2260-usa4g-aal-bg95-ui-v1.0-6\lcd.c"
1601  0016  3800     E  	snz _BCD[1].5
1601  0017  2800     R  	jmp _L447
1603  0018              #line 1603 "k:\55555555555555\test\saier-a600n-2260-usa4g-aal-bg95-ui-v1.0-6\lcd.c"
1603  0018  3282        	set [2].5
1603  0019              _L447:
1605  0019              #line 1605 "k:\55555555555555\test\saier-a600n-2260-usa4g-aal-bg95-ui-v1.0-6\lcd.c"
1605  0019  1483        	inc [3]
1606  001A              #line 1606 "k:\55555555555555\test\saier-a600n-2260-usa4g-aal-bg95-ui-v1.0-6\lcd.c"
1606  001A  0F03        	mov a,3
文件：lcd.c        编译器版本 HGASM 0202 页次45

1606  001B  0682        	andm a,[2]
1607  001C              #line 1607 "k:\55555555555555\test\saier-a600n-2260-usa4g-aal-bg95-ui-v1.0-6\lcd.c"
1607  001C  3800     E  	snz _BCD[1].4
1607  001D  2800     R  	jmp _L448
1609  001E              #line 1609 "k:\55555555555555\test\saier-a600n-2260-usa4g-aal-bg95-ui-v1.0-6\lcd.c"
1609  001E  3102        	set [2].2
1609  001F              _L448:
1611  001F              #line 1611 "k:\55555555555555\test\saier-a600n-2260-usa4g-aal-bg95-ui-v1.0-6\lcd.c"
1611  001F  3800     E  	snz _BCD[0].3
1611  0020  2800     R  	jmp _L449
1613  0021              #line 1613 "k:\55555555555555\test\saier-a600n-2260-usa4g-aal-bg95-ui-v1.0-6\lcd.c"
1613  0021  3182        	set [2].3
1613  0022              _L449:
1615  0022              #line 1615 "k:\55555555555555\test\saier-a600n-2260-usa4g-aal-bg95-ui-v1.0-6\lcd.c"
1615  0022  3800     E  	snz _BCD[0].4
1615  0023  2800     R  	jmp _L450
1617  0024              #line 1617 "k:\55555555555555\test\saier-a600n-2260-usa4g-aal-bg95-ui-v1.0-6\lcd.c"
1617  0024  3202        	set [2].4
1617  0025              _L450:
1619  0025              #line 1619 "k:\55555555555555\test\saier-a600n-2260-usa4g-aal-bg95-ui-v1.0-6\lcd.c"
1619  0025  3800     E  	snz _BCD[0].1
1619  0026  2800     R  	jmp _L451
1621  0027              #line 1621 "k:\55555555555555\test\saier-a600n-2260-usa4g-aal-bg95-ui-v1.0-6\lcd.c"
1621  0027  3282        	set [2].5
1621  0028              _L451:
1623  0028              #line 1623 "k:\55555555555555\test\saier-a600n-2260-usa4g-aal-bg95-ui-v1.0-6\lcd.c"
1623  0028  1483        	inc [3]
1624  0029              #line 1624 "k:\55555555555555\test\saier-a600n-2260-usa4g-aal-bg95-ui-v1.0-6\lcd.c"
1624  0029  0F07        	mov a,7
1624  002A  0682        	andm a,[2]
1625  002B              #line 1625 "k:\55555555555555\test\saier-a600n-2260-usa4g-aal-bg95-ui-v1.0-6\lcd.c"
1625  002B  3800     E  	snz _BCD[0].6
1625  002C  2800     R  	jmp _L452
1627  002D              #line 1627 "k:\55555555555555\test\saier-a600n-2260-usa4g-aal-bg95-ui-v1.0-6\lcd.c"
1627  002D  3182        	set [2].3
1627  002E              _L452:
1629  002E              #line 1629 "k:\55555555555555\test\saier-a600n-2260-usa4g-aal-bg95-ui-v1.0-6\lcd.c"
1629  002E  3800     E  	snz _BCD[0].2
1629  002F  2800     R  	jmp _L453
1631  0030              #line 1631 "k:\55555555555555\test\saier-a600n-2260-usa4g-aal-bg95-ui-v1.0-6\lcd.c"
1631  0030  3202        	set [2].4
1631  0031              _L453:
1633  0031              #line 1633 "k:\55555555555555\test\saier-a600n-2260-usa4g-aal-bg95-ui-v1.0-6\lcd.c"
1633  0031  3800     E  	snz _BCD[0].0
1633  0032  2800     R  	jmp _L454
1635  0033              #line 1635 "k:\55555555555555\test\saier-a600n-2260-usa4g-aal-bg95-ui-v1.0-6\lcd.c"
1635  0033  3282        	set [2].5
1635  0034              _L454:
1637  0034              #line 1637 "k:\55555555555555\test\saier-a600n-2260-usa4g-aal-bg95-ui-v1.0-6\lcd.c"
1637  0034  1483        	inc [3]
1638  0035              #line 1638 "k:\55555555555555\test\saier-a600n-2260-usa4g-aal-bg95-ui-v1.0-6\lcd.c"
1638  0035  0F1F        	mov a,31
1638  0036  0682        	andm a,[2]
1639  0037              #line 1639 "k:\55555555555555\test\saier-a600n-2260-usa4g-aal-bg95-ui-v1.0-6\lcd.c"
1639  0037  3800     E  	snz _BCD[0].5
1639  0038  2800     R  	jmp _L441
1641  0039              #line 1641 "k:\55555555555555\test\saier-a600n-2260-usa4g-aal-bg95-ui-v1.0-6\lcd.c"
1641  0039  3282        	set [2].5
1641  003A              _L441:
1641  003A  0003        	ret
文件：lcd.c        编译器版本 HGASM 0202 页次46

1641  003B              _SBR_DISP_DAY endp
1641  003B              #line 1641 "k:\55555555555555\test\saier-a600n-2260-usa4g-aal-bg95-ui-v1.0-6\lcd.c"
1641  003B              #pragma debug scope 1 1
1641  003B              _close_time equ [1004]
1641  003B              public _DISP_SN
1641  003B              #pragma debug scope 102 1
 470  003B              #line 470 "k:\55555555555555\test\saier-a600n-2260-usa4g-aal-bg95-ui-v1.0-6\lcd.c"
 470  0000              _DISP_SN .section 'code'
 470  0000              _DISP_SN proc
 471  0000              #line 471 "k:\55555555555555\test\saier-a600n-2260-usa4g-aal-bg95-ui-v1.0-6\lcd.c"
 471  0000              	fcall _LCD_INIT_OFF
 473  0007              #line 473 "k:\55555555555555\test\saier-a600n-2260-usa4g-aal-bg95-ui-v1.0-6\lcd.c"
 473  0007  0F08        	mov a,8
 473  0008              	fcall _SBR_EEPROM_READDATA
 473  000F  0080     E  	mov ra,a
 473  0010  0700     E  	mov a,ra
 473  0011  0080     E  	mov _R_TEMPDATA[1],a
 474  0012              #line 474 "k:\55555555555555\test\saier-a600n-2260-usa4g-aal-bg95-ui-v1.0-6\lcd.c"
 474  0012  0700     E  	mov a,_R_TEMPDATA[1]
 474  0013  0E0F        	and a,15
 474  0014  0080     E  	mov ra,a
 474  0015  0F00     R  	mov a,low offset _display_num
 474  0016  0300     E  	add a,ra
 474  0017  0083        	mov mp,a
 474  0018  0F00     R  	mov a,high offset _display_num
 474  0019  1F04        	clr sbp
 474  001A  1384        	adcm a,sbp
 474  001B              	fcall _Crom2Prom
 474  0022  0080     E  	mov _BCD[0],a
 475  0023              #line 475 "k:\55555555555555\test\saier-a600n-2260-usa4g-aal-bg95-ui-v1.0-6\lcd.c"
 475  0023  1100     E  	swapa _R_TEMPDATA[1]
 475  0024  0E0F        	and a,0fh
 475  0025  0080     E  	mov rb,a
 475  0026  1F00     E  	clr rc
 475  0027  0F00     R  	mov a,low offset _display_num
 475  0028  0300     E  	add a,rb
 475  0029  0083        	mov mp,a
 475  002A  0F00     R  	mov a,high offset _display_num
 475  002B  1300     E  	adc a,rc
 475  002C  0084        	mov sbp,a
 475  002D              	fcall _Crom2Prom
 475  0034  0080     E  	mov _BCD[1],a
 476  0035              #line 476 "k:\55555555555555\test\saier-a600n-2260-usa4g-aal-bg95-ui-v1.0-6\lcd.c"
 476  0035  1F00     E  	clr _BCD[2]
 477  0036              #line 477 "k:\55555555555555\test\saier-a600n-2260-usa4g-aal-bg95-ui-v1.0-6\lcd.c"
 477  0036              	fcall _SBR_DISP_MONTH
 479  003D              #line 479 "k:\55555555555555\test\saier-a600n-2260-usa4g-aal-bg95-ui-v1.0-6\lcd.c"
 479  003D  0F09        	mov a,9
 479  003E              	fcall _SBR_EEPROM_READDATA
 479  0045  0080     E  	mov ra,a
 479  0046  0700     E  	mov a,ra
 479  0047  0080     E  	mov _R_TEMPDATA[1],a
 480  0048              #line 480 "k:\55555555555555\test\saier-a600n-2260-usa4g-aal-bg95-ui-v1.0-6\lcd.c"
 480  0048  0700     E  	mov a,_R_TEMPDATA[1]
 480  0049  0E0F        	and a,15
 480  004A  0080     E  	mov ra,a
 480  004B  0F00     R  	mov a,low offset _display_num
 480  004C  0300     E  	add a,ra
 480  004D  0083        	mov mp,a
 480  004E  0F00     R  	mov a,high offset _display_num
文件：lcd.c        编译器版本 HGASM 0202 页次47

 480  004F  1F04        	clr sbp
 480  0050  1384        	adcm a,sbp
 480  0051              	fcall _Crom2Prom
 480  0058  0080     E  	mov _BCD[0],a
 481  0059              #line 481 "k:\55555555555555\test\saier-a600n-2260-usa4g-aal-bg95-ui-v1.0-6\lcd.c"
 481  0059  1100     E  	swapa _R_TEMPDATA[1]
 481  005A  0E0F        	and a,0fh
 481  005B  0080     E  	mov rb,a
 481  005C  1F00     E  	clr rc
 481  005D  0F00     R  	mov a,low offset _display_num
 481  005E  0300     E  	add a,rb
 481  005F  0083        	mov mp,a
 481  0060  0F00     R  	mov a,high offset _display_num
 481  0061  1300     E  	adc a,rc
 481  0062  0084        	mov sbp,a
 481  0063              	fcall _Crom2Prom
 481  006A  0080     E  	mov _BCD[1],a
 482  006B              #line 482 "k:\55555555555555\test\saier-a600n-2260-usa4g-aal-bg95-ui-v1.0-6\lcd.c"
 482  006B  1F00     E  	clr _BCD[2]
 483  006C              #line 483 "k:\55555555555555\test\saier-a600n-2260-usa4g-aal-bg95-ui-v1.0-6\lcd.c"
 483  006C              	fcall _SBR_DISP_DAY
 485  0073              #line 485 "k:\55555555555555\test\saier-a600n-2260-usa4g-aal-bg95-ui-v1.0-6\lcd.c"
 485  0073  0F0C        	mov a,12
 485  0074              	fcall _SBR_EEPROM_READDATA
 485  007B  0080     E  	mov ra,a
 485  007C  0700     E  	mov a,ra
 485  007D  0080     E  	mov _R_TEMPDATA[1],a
 486  007E              #line 486 "k:\55555555555555\test\saier-a600n-2260-usa4g-aal-bg95-ui-v1.0-6\lcd.c"
 486  007E  0700     E  	mov a,_R_TEMPDATA[1]
 486  007F  0E0F        	and a,15
 486  0080  0080     E  	mov ra,a
 486  0081  0F00     R  	mov a,low offset _display_num
 486  0082  0300     E  	add a,ra
 486  0083  0083        	mov mp,a
 486  0084  0F00     R  	mov a,high offset _display_num
 486  0085  1F04        	clr sbp
 486  0086  1384        	adcm a,sbp
 486  0087              	fcall _Crom2Prom
 486  008E  0080     E  	mov _BCD[0],a
 487  008F              #line 487 "k:\55555555555555\test\saier-a600n-2260-usa4g-aal-bg95-ui-v1.0-6\lcd.c"
 487  008F  1100     E  	swapa _R_TEMPDATA[1]
 487  0090  0E0F        	and a,0fh
 487  0091  0080     E  	mov rb,a
 487  0092  1F00     E  	clr rc
 487  0093  0F00     R  	mov a,low offset _display_num
 487  0094  0300     E  	add a,rb
 487  0095  0083        	mov mp,a
 487  0096  0F00     R  	mov a,high offset _display_num
 487  0097  1300     E  	adc a,rc
 487  0098  0084        	mov sbp,a
 487  0099              	fcall _Crom2Prom
 487  00A0  0080     E  	mov _BCD[1],a
 488  00A1              #line 488 "k:\55555555555555\test\saier-a600n-2260-usa4g-aal-bg95-ui-v1.0-6\lcd.c"
 488  00A1  1F00     E  	clr _BCD[2]
 489  00A2              #line 489 "k:\55555555555555\test\saier-a600n-2260-usa4g-aal-bg95-ui-v1.0-6\lcd.c"
 489  00A2              	fcall _SBR_DISP_SYS
 491  00A9              #line 491 "k:\55555555555555\test\saier-a600n-2260-usa4g-aal-bg95-ui-v1.0-6\lcd.c"
 491  00A9  0F0B        	mov a,11
 491  00AA              	fcall _SBR_EEPROM_READDATA
 491  00B1  0080     E  	mov ra,a
文件：lcd.c        编译器版本 HGASM 0202 页次48

 491  00B2  0700     E  	mov a,ra
 491  00B3  0080     E  	mov _R_TEMPDATA[1],a
 492  00B4              #line 492 "k:\55555555555555\test\saier-a600n-2260-usa4g-aal-bg95-ui-v1.0-6\lcd.c"
 492  00B4  0700     E  	mov a,_R_TEMPDATA[1]
 492  00B5  0E0F        	and a,15
 492  00B6  0080     E  	mov ra,a
 492  00B7  0F00     R  	mov a,low offset _display_num
 492  00B8  0300     E  	add a,ra
 492  00B9  0083        	mov mp,a
 492  00BA  0F00     R  	mov a,high offset _display_num
 492  00BB  1F04        	clr sbp
 492  00BC  1384        	adcm a,sbp
 492  00BD              	fcall _Crom2Prom
 492  00C4  0080     E  	mov _BCD[0],a
 493  00C5              #line 493 "k:\55555555555555\test\saier-a600n-2260-usa4g-aal-bg95-ui-v1.0-6\lcd.c"
 493  00C5  1100     E  	swapa _R_TEMPDATA[1]
 493  00C6  0E0F        	and a,0fh
 493  00C7  0080     E  	mov rb,a
 493  00C8  1F00     E  	clr rc
 493  00C9  0F00     R  	mov a,low offset _display_num
 493  00CA  0300     E  	add a,rb
 493  00CB  0083        	mov mp,a
 493  00CC  0F00     R  	mov a,high offset _display_num
 493  00CD  1300     E  	adc a,rc
 493  00CE  0084        	mov sbp,a
 493  00CF              	fcall _Crom2Prom
 493  00D6  0080     E  	mov _BCD[1],a
 494  00D7              #line 494 "k:\55555555555555\test\saier-a600n-2260-usa4g-aal-bg95-ui-v1.0-6\lcd.c"
 494  00D7  1F00     E  	clr _BCD[2]
 495  00D8              #line 495 "k:\55555555555555\test\saier-a600n-2260-usa4g-aal-bg95-ui-v1.0-6\lcd.c"
 495  00D8              	fcall _SBR_DISP_DIA
 497  00DF              #line 497 "k:\55555555555555\test\saier-a600n-2260-usa4g-aal-bg95-ui-v1.0-6\lcd.c"
 497  00DF  0F0A        	mov a,10
 497  00E0              	fcall _SBR_EEPROM_READDATA
 497  00E7  0080     E  	mov ra,a
 497  00E8  0700     E  	mov a,ra
 497  00E9  0080     E  	mov _R_TEMPDATA[1],a
 498  00EA              #line 498 "k:\55555555555555\test\saier-a600n-2260-usa4g-aal-bg95-ui-v1.0-6\lcd.c"
 498  00EA  0700     E  	mov a,_R_TEMPDATA[1]
 498  00EB  0E0F        	and a,15
 498  00EC  0080     E  	mov ra,a
 498  00ED  0F00     R  	mov a,low offset _display_num
 498  00EE  0300     E  	add a,ra
 498  00EF  0083        	mov mp,a
 498  00F0  0F00     R  	mov a,high offset _display_num
 498  00F1  1F04        	clr sbp
 498  00F2  1384        	adcm a,sbp
 498  00F3              	fcall _Crom2Prom
 498  00FA  0080     E  	mov _BCD[0],a
 499  00FB              #line 499 "k:\55555555555555\test\saier-a600n-2260-usa4g-aal-bg95-ui-v1.0-6\lcd.c"
 499  00FB  1100     E  	swapa _R_TEMPDATA[1]
 499  00FC  0E0F        	and a,0fh
 499  00FD  0080     E  	mov rb,a
 499  00FE  1F00     E  	clr rc
 499  00FF  0F00     R  	mov a,low offset _display_num
 499  0100  0300     E  	add a,rb
 499  0101  0083        	mov mp,a
 499  0102  0F00     R  	mov a,high offset _display_num
 499  0103  1300     E  	adc a,rc
 499  0104  0084        	mov sbp,a
文件：lcd.c        编译器版本 HGASM 0202 页次49

 499  0105              	fcall _Crom2Prom
 499  010C  0080     E  	mov _BCD[1],a
 500  010D              #line 500 "k:\55555555555555\test\saier-a600n-2260-usa4g-aal-bg95-ui-v1.0-6\lcd.c"
 500  010D  1F00     E  	clr _BCD[2]
 501  010E              #line 501 "k:\55555555555555\test\saier-a600n-2260-usa4g-aal-bg95-ui-v1.0-6\lcd.c"
 501  010E              	fcall _SBR_DISP_PLUSE
 503  0115              #line 503 "k:\55555555555555\test\saier-a600n-2260-usa4g-aal-bg95-ui-v1.0-6\lcd.c"
 503  0115  0F20        	mov a,32
 503  0116  0080     E  	mov _Delay_ms_2[0],a
 503  0117  0F4E        	mov a,78
 503  0118  0080     E  	mov _Delay_ms_2[1],a
 503  0119              	fcall _Delay_ms
 504  0120              #line 504 "k:\55555555555555\test\saier-a600n-2260-usa4g-aal-bg95-ui-v1.0-6\lcd.c"
 504  0120  0F20        	mov a,32
 504  0121  0080     E  	mov _Delay_ms_2[0],a
 504  0122  0F4E        	mov a,78
 504  0123  0080     E  	mov _Delay_ms_2[1],a
 504  0124              	fcall _Delay_ms
 505  012B              #line 505 "k:\55555555555555\test\saier-a600n-2260-usa4g-aal-bg95-ui-v1.0-6\lcd.c"
 505  012B  0F20        	mov a,32
 505  012C  0080     E  	mov _Delay_ms_2[0],a
 505  012D  0F4E        	mov a,78
 505  012E  0080     E  	mov _Delay_ms_2[1],a
 505  012F              	fcall _Delay_ms
 506  0136              #line 506 "k:\55555555555555\test\saier-a600n-2260-usa4g-aal-bg95-ui-v1.0-6\lcd.c"
 506  0136              	fcall _key_scan
 506  013D  0080     E  	mov ra,a
 506  013E  0700     E  	mov a,ra
 506  013F  0080     E  	mov _keyval[0],a
 507  0140              #line 507 "k:\55555555555555\test\saier-a600n-2260-usa4g-aal-bg95-ui-v1.0-6\lcd.c"
 507  0140  1F00     E  	clr _keyval[0]
 508  0141              #line 508 "k:\55555555555555\test\saier-a600n-2260-usa4g-aal-bg95-ui-v1.0-6\lcd.c"
 508  0141  1F00     E  	clr _KEYFLAG[0]
 508  0142  1F00     E  	clr _KEYFLAG[1]
 508  0143              _L500:
 511  0143              #line 511 "k:\55555555555555\test\saier-a600n-2260-usa4g-aal-bg95-ui-v1.0-6\lcd.c"
 511  0143              	fcall _key_scan
 511  014A  0080     E  	mov ra,a
 511  014B  0700     E  	mov a,ra
 511  014C  0080     E  	mov _keyval[0],a
 512  014D              #line 512 "k:\55555555555555\test\saier-a600n-2260-usa4g-aal-bg95-ui-v1.0-6\lcd.c"
 512  014D  1E00     E  	snz _keyval[0]
 512  014E  2800     R  	jmp _L500
 513  014F              #line 513 "k:\55555555555555\test\saier-a600n-2260-usa4g-aal-bg95-ui-v1.0-6\lcd.c"
 513  014F  1F00     E  	clr _keyval[0]
 514  0150              #line 514 "k:\55555555555555\test\saier-a600n-2260-usa4g-aal-bg95-ui-v1.0-6\lcd.c"
 514  0150  0F68        	mov a,104
 514  0151  C0EC 0003   	lmov [1004],a
 514  0153  0F42        	mov a,66
 514  0154  C0ED 0003   	lmov [1005],a
 514  0156  0003        	ret
 514  0157              _DISP_SN endp
 514  0157              #line 514 "k:\55555555555555\test\saier-a600n-2260-usa4g-aal-bg95-ui-v1.0-6\lcd.c"
 514  0157              #pragma debug scope 1 1
 514  0157              public _SBR_DISP_KSK_ON
 514  0157              #pragma debug scope 103 1
 820  0157              #line 820 "k:\55555555555555\test\saier-a600n-2260-usa4g-aal-bg95-ui-v1.0-6\lcd.c"
 820  0000              _SBR_DISP_KSK_ON .section 'code'
 820  0000              _SBR_DISP_KSK_ON proc
 821  0000              #line 821 "k:\55555555555555\test\saier-a600n-2260-usa4g-aal-bg95-ui-v1.0-6\lcd.c"
文件：lcd.c        编译器版本 HGASM 0202 页次50

 821  0000  0F1E        	mov a,30
 821  0001  0080     E  	mov _BCD[0],a
 822  0002              #line 822 "k:\55555555555555\test\saier-a600n-2260-usa4g-aal-bg95-ui-v1.0-6\lcd.c"
 822  0002  1F00     E  	clr _BCD[1]
 823  0003              #line 823 "k:\55555555555555\test\saier-a600n-2260-usa4g-aal-bg95-ui-v1.0-6\lcd.c"
 823  0003              	fcall _SBR_DISP_MONTH
 825  000A              #line 825 "k:\55555555555555\test\saier-a600n-2260-usa4g-aal-bg95-ui-v1.0-6\lcd.c"
 825  000A  0F1E        	mov a,30
 825  000B  0080     E  	mov _BCD[0],a
 826  000C              #line 826 "k:\55555555555555\test\saier-a600n-2260-usa4g-aal-bg95-ui-v1.0-6\lcd.c"
 826  000C  0F4F        	mov a,79
 826  000D  0080     E  	mov _BCD[1],a
 827  000E              #line 827 "k:\55555555555555\test\saier-a600n-2260-usa4g-aal-bg95-ui-v1.0-6\lcd.c"
 827  000E              	fcall _SBR_DISP_DAY
 827  0015  0003        	ret
 827  0016              _SBR_DISP_KSK_ON endp
 827  0016              #line 827 "k:\55555555555555\test\saier-a600n-2260-usa4g-aal-bg95-ui-v1.0-6\lcd.c"
 827  0016              #pragma debug scope 1 1
 827  0016              public _SBR_DISP_OFF_T_ON
 827  0016              #pragma debug scope 104 1
 832  0016              #line 832 "k:\55555555555555\test\saier-a600n-2260-usa4g-aal-bg95-ui-v1.0-6\lcd.c"
 832  0000              _SBR_DISP_OFF_T_ON .section 'code'
 832  0000              _SBR_DISP_OFF_T_ON proc
 833  0000              #line 833 "k:\55555555555555\test\saier-a600n-2260-usa4g-aal-bg95-ui-v1.0-6\lcd.c"
 833  0000  0F7B        	mov a,123
 833  0001  0080     E  	mov _BCD[0],a
 834  0002              #line 834 "k:\55555555555555\test\saier-a600n-2260-usa4g-aal-bg95-ui-v1.0-6\lcd.c"
 834  0002  1F00     E  	clr _BCD[1]
 835  0003              #line 835 "k:\55555555555555\test\saier-a600n-2260-usa4g-aal-bg95-ui-v1.0-6\lcd.c"
 835  0003              	fcall _SBR_DISP_MONTH
 837  000A              #line 837 "k:\55555555555555\test\saier-a600n-2260-usa4g-aal-bg95-ui-v1.0-6\lcd.c"
 837  000A  0F17        	mov a,23
 837  000B  0080     E  	mov _BCD[0],a
 838  000C              #line 838 "k:\55555555555555\test\saier-a600n-2260-usa4g-aal-bg95-ui-v1.0-6\lcd.c"
 838  000C  0F17        	mov a,23
 838  000D  0080     E  	mov _BCD[1],a
 839  000E              #line 839 "k:\55555555555555\test\saier-a600n-2260-usa4g-aal-bg95-ui-v1.0-6\lcd.c"
 839  000E              	fcall _SBR_DISP_DAY
 839  0015  0003        	ret
 839  0016              _SBR_DISP_OFF_T_ON endp
 839  0016              #line 839 "k:\55555555555555\test\saier-a600n-2260-usa4g-aal-bg95-ui-v1.0-6\lcd.c"
 839  0016              #pragma debug scope 1 1
 839  0016              public _SBR_DISP_ANO_T_ON
 839  0016              #pragma debug scope 105 1
 843  0016              #line 843 "k:\55555555555555\test\saier-a600n-2260-usa4g-aal-bg95-ui-v1.0-6\lcd.c"
 843  0000              _SBR_DISP_ANO_T_ON .section 'code'
 843  0000              _SBR_DISP_ANO_T_ON proc
 844  0000              #line 844 "k:\55555555555555\test\saier-a600n-2260-usa4g-aal-bg95-ui-v1.0-6\lcd.c"
 844  0000  0F77        	mov a,119
 844  0001  0080     E  	mov _BCD[0],a
 845  0002              #line 845 "k:\55555555555555\test\saier-a600n-2260-usa4g-aal-bg95-ui-v1.0-6\lcd.c"
 845  0002  1F00     E  	clr _BCD[1]
 846  0003              #line 846 "k:\55555555555555\test\saier-a600n-2260-usa4g-aal-bg95-ui-v1.0-6\lcd.c"
 846  0003              	fcall _SBR_DISP_MONTH
 847  000A              #line 847 "k:\55555555555555\test\saier-a600n-2260-usa4g-aal-bg95-ui-v1.0-6\lcd.c"
 847  000A              	fcall _SBR_DISP_DOT_COLD_ON
 848  0011              #line 848 "k:\55555555555555\test\saier-a600n-2260-usa4g-aal-bg95-ui-v1.0-6\lcd.c"
 848  0011  0F54        	mov a,84
 848  0012  0080     E  	mov _BCD[0],a
 849  0013              #line 849 "k:\55555555555555\test\saier-a600n-2260-usa4g-aal-bg95-ui-v1.0-6\lcd.c"
文件：lcd.c        编译器版本 HGASM 0202 页次51

 849  0013  0F5C        	mov a,92
 849  0014  0080     E  	mov _BCD[1],a
 850  0015              #line 850 "k:\55555555555555\test\saier-a600n-2260-usa4g-aal-bg95-ui-v1.0-6\lcd.c"
 850  0015              	fcall _SBR_DISP_DAY
 850  001C  0003        	ret
 850  001D              _SBR_DISP_ANO_T_ON endp
 850  001D              #line 850 "k:\55555555555555\test\saier-a600n-2260-usa4g-aal-bg95-ui-v1.0-6\lcd.c"
 850  001D              #pragma debug scope 1 1
 850  001D              public _SBR_DISP_DAY_OFF
 850  001D              #pragma debug scope 106 1
1570  001D              #line 1570 "k:\55555555555555\test\saier-a600n-2260-usa4g-aal-bg95-ui-v1.0-6\lcd.c"
1570  0000              _SBR_DISP_DAY_OFF .section 'code'
1570  0000              _SBR_DISP_DAY_OFF proc
1571  0000              #line 1571 "k:\55555555555555\test\saier-a600n-2260-usa4g-aal-bg95-ui-v1.0-6\lcd.c"
1571  0000  1F00     E  	clr _BCD[0]
1572  0001              #line 1572 "k:\55555555555555\test\saier-a600n-2260-usa4g-aal-bg95-ui-v1.0-6\lcd.c"
1572  0001  1F00     E  	clr _BCD[1]
1573  0002              #line 1573 "k:\55555555555555\test\saier-a600n-2260-usa4g-aal-bg95-ui-v1.0-6\lcd.c"
1573  0002              	fcall _SBR_DISP_DAY
1573  0009  0003        	ret
1573  000A              _SBR_DISP_DAY_OFF endp
1573  000A              #line 1573 "k:\55555555555555\test\saier-a600n-2260-usa4g-aal-bg95-ui-v1.0-6\lcd.c"
1573  000A              #pragma debug scope 1 1
1573  000A              public _SBR_DISP_DAY_ON
1573  000A              #pragma debug scope 107 1
1646  000A              #line 1646 "k:\55555555555555\test\saier-a600n-2260-usa4g-aal-bg95-ui-v1.0-6\lcd.c"
1646  0000              _SBR_DISP_DAY_ON .section 'code'
1646  0000              _SBR_DISP_DAY_ON proc
1647  0000              #line 1647 "k:\55555555555555\test\saier-a600n-2260-usa4g-aal-bg95-ui-v1.0-6\lcd.c"
1647  0000  1F00     E  	clr _R_TEMPDATA[1]
1648  0001              #line 1648 "k:\55555555555555\test\saier-a600n-2260-usa4g-aal-bg95-ui-v1.0-6\lcd.c"
1648  0001              	fcall _SBR_BIN_TO_BCD
1656  0008              #line 1656 "k:\55555555555555\test\saier-a600n-2260-usa4g-aal-bg95-ui-v1.0-6\lcd.c"
1656  0008  0F00     R  	mov a,low offset _display_num
1656  0009  0300     E  	add a,_BCD[0]
1656  000A  0083        	mov mp,a
1656  000B  0F00     R  	mov a,high offset _display_num
1656  000C  1F04        	clr sbp
1656  000D  1384        	adcm a,sbp
1656  000E              	fcall _Crom2Prom
1656  0015  0080     E  	mov _BCD[0],a
1657  0016              #line 1657 "k:\55555555555555\test\saier-a600n-2260-usa4g-aal-bg95-ui-v1.0-6\lcd.c"
1657  0016  0F00     R  	mov a,low offset _display_num
1657  0017  0300     E  	add a,_BCD[1]
1657  0018  0083        	mov mp,a
1657  0019  0F00     R  	mov a,high offset _display_num
1657  001A  1F04        	clr sbp
1657  001B  1384        	adcm a,sbp
1657  001C              	fcall _Crom2Prom
1657  0023  0080     E  	mov _BCD[1],a
1660  0024              #line 1660 "k:\55555555555555\test\saier-a600n-2260-usa4g-aal-bg95-ui-v1.0-6\lcd.c"
1660  0024              	fcall _SBR_DISP_DAY
1660  002B  0003        	ret
1660  002C              _SBR_DISP_DAY_ON endp
1660  002C              #line 1660 "k:\55555555555555\test\saier-a600n-2260-usa4g-aal-bg95-ui-v1.0-6\lcd.c"
1660  002C              #pragma debug scope 1 1
1660  002C              public _SBR_DISP_HOUR
1660  002C              #pragma debug scope 108 1
1681  002C              #line 1681 "k:\55555555555555\test\saier-a600n-2260-usa4g-aal-bg95-ui-v1.0-6\lcd.c"
1681  0000              _SBR_DISP_HOUR .section 'code'
文件：lcd.c        编译器版本 HGASM 0202 页次52

1681  0000              _SBR_DISP_HOUR proc
1682  0000              #line 1682 "k:\55555555555555\test\saier-a600n-2260-usa4g-aal-bg95-ui-v1.0-6\lcd.c"
1682  0000  0F04        	mov a,4
1682  0001  0084        	mov [4],a
1683  0002              #line 1683 "k:\55555555555555\test\saier-a600n-2260-usa4g-aal-bg95-ui-v1.0-6\lcd.c"
1683  0002  0F05        	mov a,5
1683  0003  0083        	mov [3],a
1684  0004              #line 1684 "k:\55555555555555\test\saier-a600n-2260-usa4g-aal-bg95-ui-v1.0-6\lcd.c"
1684  0004  0F37        	mov a,55
1684  0005  0682        	andm a,[2]
1685  0006              #line 1685 "k:\55555555555555\test\saier-a600n-2260-usa4g-aal-bg95-ui-v1.0-6\lcd.c"
1685  0006  3800     E  	snz _BCD[1].4
1685  0007  2800     R  	jmp _L507
1687  0008              #line 1687 "k:\55555555555555\test\saier-a600n-2260-usa4g-aal-bg95-ui-v1.0-6\lcd.c"
1687  0008  3182        	set [2].3
1687  0009              _L507:
1689  0009              #line 1689 "k:\55555555555555\test\saier-a600n-2260-usa4g-aal-bg95-ui-v1.0-6\lcd.c"
1689  0009  1483        	inc [3]
1690  000A              #line 1690 "k:\55555555555555\test\saier-a600n-2260-usa4g-aal-bg95-ui-v1.0-6\lcd.c"
1690  000A  0F07        	mov a,7
1690  000B  0682        	andm a,[2]
1691  000C              #line 1691 "k:\55555555555555\test\saier-a600n-2260-usa4g-aal-bg95-ui-v1.0-6\lcd.c"
1691  000C  3800     E  	snz _BCD[1].3
1691  000D  2800     R  	jmp _L508
1693  000E              #line 1693 "k:\55555555555555\test\saier-a600n-2260-usa4g-aal-bg95-ui-v1.0-6\lcd.c"
1693  000E  3182        	set [2].3
1693  000F              _L508:
1695  000F              #line 1695 "k:\55555555555555\test\saier-a600n-2260-usa4g-aal-bg95-ui-v1.0-6\lcd.c"
1695  000F  3800     E  	snz _BCD[1].2
1695  0010  2800     R  	jmp _L509
1697  0011              #line 1697 "k:\55555555555555\test\saier-a600n-2260-usa4g-aal-bg95-ui-v1.0-6\lcd.c"
1697  0011  3202        	set [2].4
1697  0012              _L509:
1699  0012              #line 1699 "k:\55555555555555\test\saier-a600n-2260-usa4g-aal-bg95-ui-v1.0-6\lcd.c"
1699  0012  3800     E  	snz _BCD[1].0
1699  0013  2800     R  	jmp _L510
1701  0014              #line 1701 "k:\55555555555555\test\saier-a600n-2260-usa4g-aal-bg95-ui-v1.0-6\lcd.c"
1701  0014  3282        	set [2].5
1701  0015              _L510:
1704  0015              #line 1704 "k:\55555555555555\test\saier-a600n-2260-usa4g-aal-bg95-ui-v1.0-6\lcd.c"
1704  0015  1483        	inc [3]
1705  0016              #line 1705 "k:\55555555555555\test\saier-a600n-2260-usa4g-aal-bg95-ui-v1.0-6\lcd.c"
1705  0016  0F07        	mov a,7
1705  0017  0682        	andm a,[2]
1706  0018              #line 1706 "k:\55555555555555\test\saier-a600n-2260-usa4g-aal-bg95-ui-v1.0-6\lcd.c"
1706  0018  3800     E  	snz _BCD[0].4
1706  0019  2800     R  	jmp _L511
1708  001A              #line 1708 "k:\55555555555555\test\saier-a600n-2260-usa4g-aal-bg95-ui-v1.0-6\lcd.c"
1708  001A  3182        	set [2].3
1708  001B              _L511:
1710  001B              #line 1710 "k:\55555555555555\test\saier-a600n-2260-usa4g-aal-bg95-ui-v1.0-6\lcd.c"
1710  001B  3800     E  	snz _BCD[1].6
1710  001C  2800     R  	jmp _L512
1712  001D              #line 1712 "k:\55555555555555\test\saier-a600n-2260-usa4g-aal-bg95-ui-v1.0-6\lcd.c"
1712  001D  3202        	set [2].4
1712  001E              _L512:
1714  001E              #line 1714 "k:\55555555555555\test\saier-a600n-2260-usa4g-aal-bg95-ui-v1.0-6\lcd.c"
1714  001E  3800     E  	snz _BCD[1].5
1714  001F  2800     R  	jmp _L513
1716  0020              #line 1716 "k:\55555555555555\test\saier-a600n-2260-usa4g-aal-bg95-ui-v1.0-6\lcd.c"
文件：lcd.c        编译器版本 HGASM 0202 页次53

1716  0020  3282        	set [2].5
1716  0021              _L513:
1718  0021              #line 1718 "k:\55555555555555\test\saier-a600n-2260-usa4g-aal-bg95-ui-v1.0-6\lcd.c"
1718  0021  1483        	inc [3]
1719  0022              #line 1719 "k:\55555555555555\test\saier-a600n-2260-usa4g-aal-bg95-ui-v1.0-6\lcd.c"
1719  0022  0F07        	mov a,7
1719  0023  0682        	andm a,[2]
1720  0024              #line 1720 "k:\55555555555555\test\saier-a600n-2260-usa4g-aal-bg95-ui-v1.0-6\lcd.c"
1720  0024  3800     E  	snz _BCD[0].3
1720  0025  2800     R  	jmp _L514
1722  0026              #line 1722 "k:\55555555555555\test\saier-a600n-2260-usa4g-aal-bg95-ui-v1.0-6\lcd.c"
1722  0026  3182        	set [2].3
1722  0027              _L514:
1724  0027              #line 1724 "k:\55555555555555\test\saier-a600n-2260-usa4g-aal-bg95-ui-v1.0-6\lcd.c"
1724  0027  3800     E  	snz _BCD[0].2
1724  0028  2800     R  	jmp _L515
1726  0029              #line 1726 "k:\55555555555555\test\saier-a600n-2260-usa4g-aal-bg95-ui-v1.0-6\lcd.c"
1726  0029  3202        	set [2].4
1726  002A              _L515:
1728  002A              #line 1728 "k:\55555555555555\test\saier-a600n-2260-usa4g-aal-bg95-ui-v1.0-6\lcd.c"
1728  002A  3800     E  	snz _BCD[0].1
1728  002B  2800     R  	jmp _L516
1730  002C              #line 1730 "k:\55555555555555\test\saier-a600n-2260-usa4g-aal-bg95-ui-v1.0-6\lcd.c"
1730  002C  3282        	set [2].5
1730  002D              _L516:
1732  002D              #line 1732 "k:\55555555555555\test\saier-a600n-2260-usa4g-aal-bg95-ui-v1.0-6\lcd.c"
1732  002D  1483        	inc [3]
1733  002E              #line 1733 "k:\55555555555555\test\saier-a600n-2260-usa4g-aal-bg95-ui-v1.0-6\lcd.c"
1733  002E  0F07        	mov a,7
1733  002F  0682        	andm a,[2]
1734  0030              #line 1734 "k:\55555555555555\test\saier-a600n-2260-usa4g-aal-bg95-ui-v1.0-6\lcd.c"
1734  0030  3800     E  	snz _BCD[0].6
1734  0031  2800     R  	jmp _L517
1736  0032              #line 1736 "k:\55555555555555\test\saier-a600n-2260-usa4g-aal-bg95-ui-v1.0-6\lcd.c"
1736  0032  3182        	set [2].3
1736  0033              _L517:
1738  0033              #line 1738 "k:\55555555555555\test\saier-a600n-2260-usa4g-aal-bg95-ui-v1.0-6\lcd.c"
1738  0033  3800     E  	snz _BCD[0].5
1738  0034  2800     R  	jmp _L518
1740  0035              #line 1740 "k:\55555555555555\test\saier-a600n-2260-usa4g-aal-bg95-ui-v1.0-6\lcd.c"
1740  0035  3202        	set [2].4
1740  0036              _L518:
1742  0036              #line 1742 "k:\55555555555555\test\saier-a600n-2260-usa4g-aal-bg95-ui-v1.0-6\lcd.c"
1742  0036  3800     E  	snz _BCD[0].0
1742  0037  2800     R  	jmp _L506
1744  0038              #line 1744 "k:\55555555555555\test\saier-a600n-2260-usa4g-aal-bg95-ui-v1.0-6\lcd.c"
1744  0038  3282        	set [2].5
1744  0039              _L506:
1744  0039  0003        	ret
1744  003A              _SBR_DISP_HOUR endp
1744  003A              #line 1744 "k:\55555555555555\test\saier-a600n-2260-usa4g-aal-bg95-ui-v1.0-6\lcd.c"
1744  003A              #pragma debug scope 1 1
1744  003A              public _SBR_DISP_HOUR_OFF
1744  003A              #pragma debug scope 109 1
1674  003A              #line 1674 "k:\55555555555555\test\saier-a600n-2260-usa4g-aal-bg95-ui-v1.0-6\lcd.c"
1674  0000              _SBR_DISP_HOUR_OFF .section 'code'
1674  0000              _SBR_DISP_HOUR_OFF proc
1675  0000              #line 1675 "k:\55555555555555\test\saier-a600n-2260-usa4g-aal-bg95-ui-v1.0-6\lcd.c"
1675  0000  1F00     E  	clr _BCD[0]
1676  0001              #line 1676 "k:\55555555555555\test\saier-a600n-2260-usa4g-aal-bg95-ui-v1.0-6\lcd.c"
文件：lcd.c        编译器版本 HGASM 0202 页次54

1676  0001  1F00     E  	clr _BCD[1]
1677  0002              #line 1677 "k:\55555555555555\test\saier-a600n-2260-usa4g-aal-bg95-ui-v1.0-6\lcd.c"
1677  0002              	fcall _SBR_DISP_HOUR
1677  0009  0003        	ret
1677  000A              _SBR_DISP_HOUR_OFF endp
1677  000A              #line 1677 "k:\55555555555555\test\saier-a600n-2260-usa4g-aal-bg95-ui-v1.0-6\lcd.c"
1677  000A              #pragma debug scope 1 1
1677  000A              public _SBR_DISP_HOUR_ON
1677  000A              #pragma debug scope 110 1
1749  000A              #line 1749 "k:\55555555555555\test\saier-a600n-2260-usa4g-aal-bg95-ui-v1.0-6\lcd.c"
1749  0000              _SBR_DISP_HOUR_ON .section 'code'
1749  0000              _SBR_DISP_HOUR_ON proc
1750  0000              #line 1750 "k:\55555555555555\test\saier-a600n-2260-usa4g-aal-bg95-ui-v1.0-6\lcd.c"
1750  0000  1F00     E  	clr _R_TEMPDATA[1]
1751  0001              #line 1751 "k:\55555555555555\test\saier-a600n-2260-usa4g-aal-bg95-ui-v1.0-6\lcd.c"
1751  0001              	fcall _SBR_BIN_TO_BCD
1753  0008              #line 1753 "k:\55555555555555\test\saier-a600n-2260-usa4g-aal-bg95-ui-v1.0-6\lcd.c"
1753  0008  1080     E  	sz _BCD[1]
1753  0009  2800     R  	jmp _L561
1755  000A              #line 1755 "k:\55555555555555\test\saier-a600n-2260-usa4g-aal-bg95-ui-v1.0-6\lcd.c"
1755  000A  0F10        	mov a,16
1755  000B  0080     E  	mov _BCD[1],a
1755  000C              _L561:
1759  000C              #line 1759 "k:\55555555555555\test\saier-a600n-2260-usa4g-aal-bg95-ui-v1.0-6\lcd.c"
1759  000C  0F00     R  	mov a,low offset _display_num
1759  000D  0300     E  	add a,_BCD[0]
1759  000E  0083        	mov mp,a
1759  000F  0F00     R  	mov a,high offset _display_num
1759  0010  1F04        	clr sbp
1759  0011  1384        	adcm a,sbp
1759  0012              	fcall _Crom2Prom
1759  0019  0080     E  	mov _BCD[0],a
1760  001A              #line 1760 "k:\55555555555555\test\saier-a600n-2260-usa4g-aal-bg95-ui-v1.0-6\lcd.c"
1760  001A  0F00     R  	mov a,low offset _display_num
1760  001B  0300     E  	add a,_BCD[1]
1760  001C  0083        	mov mp,a
1760  001D  0F00     R  	mov a,high offset _display_num
1760  001E  1F04        	clr sbp
1760  001F  1384        	adcm a,sbp
1760  0020              	fcall _Crom2Prom
1760  0027  0080     E  	mov _BCD[1],a
1761  0028              #line 1761 "k:\55555555555555\test\saier-a600n-2260-usa4g-aal-bg95-ui-v1.0-6\lcd.c"
1761  0028              	fcall _SBR_DISP_HOUR
1761  002F  0003        	ret
1761  0030              _SBR_DISP_HOUR_ON endp
1761  0030              #line 1761 "k:\55555555555555\test\saier-a600n-2260-usa4g-aal-bg95-ui-v1.0-6\lcd.c"
1761  0030              #pragma debug scope 1 1
1761  0030              public _SBR_DISP_MINUTE
1761  0030              #pragma debug scope 111 1
1781  0030              #line 1781 "k:\55555555555555\test\saier-a600n-2260-usa4g-aal-bg95-ui-v1.0-6\lcd.c"
1781  0000              _SBR_DISP_MINUTE .section 'code'
1781  0000              _SBR_DISP_MINUTE proc
1782  0000              #line 1782 "k:\55555555555555\test\saier-a600n-2260-usa4g-aal-bg95-ui-v1.0-6\lcd.c"
1782  0000  0F04        	mov a,4
1782  0001  0084        	mov [4],a
1783  0002              #line 1783 "k:\55555555555555\test\saier-a600n-2260-usa4g-aal-bg95-ui-v1.0-6\lcd.c"
1783  0002  0F0A        	mov a,10
1783  0003  0083        	mov [3],a
1784  0004              #line 1784 "k:\55555555555555\test\saier-a600n-2260-usa4g-aal-bg95-ui-v1.0-6\lcd.c"
1784  0004  0F0F        	mov a,15
文件：lcd.c        编译器版本 HGASM 0202 页次55

1784  0005  0682        	andm a,[2]
1785  0006              #line 1785 "k:\55555555555555\test\saier-a600n-2260-usa4g-aal-bg95-ui-v1.0-6\lcd.c"
1785  0006  3800     E  	snz _BCD[1].4
1785  0007  2800     R  	jmp _L563
1787  0008              #line 1787 "k:\55555555555555\test\saier-a600n-2260-usa4g-aal-bg95-ui-v1.0-6\lcd.c"
1787  0008  3202        	set [2].4
1787  0009              _L563:
1789  0009              #line 1789 "k:\55555555555555\test\saier-a600n-2260-usa4g-aal-bg95-ui-v1.0-6\lcd.c"
1789  0009  3800     E  	snz _BCD[1].1
1789  000A  2800     R  	jmp _L564
1791  000B              #line 1791 "k:\55555555555555\test\saier-a600n-2260-usa4g-aal-bg95-ui-v1.0-6\lcd.c"
1791  000B  3282        	set [2].5
1791  000C              _L564:
1793  000C              #line 1793 "k:\55555555555555\test\saier-a600n-2260-usa4g-aal-bg95-ui-v1.0-6\lcd.c"
1793  000C  1483        	inc [3]
1794  000D              #line 1794 "k:\55555555555555\test\saier-a600n-2260-usa4g-aal-bg95-ui-v1.0-6\lcd.c"
1794  000D  0F07        	mov a,7
1794  000E  0682        	andm a,[2]
1795  000F              #line 1795 "k:\55555555555555\test\saier-a600n-2260-usa4g-aal-bg95-ui-v1.0-6\lcd.c"
1795  000F  3800     E  	snz _BCD[1].3
1795  0010  2800     R  	jmp _L565
1797  0011              #line 1797 "k:\55555555555555\test\saier-a600n-2260-usa4g-aal-bg95-ui-v1.0-6\lcd.c"
1797  0011  3182        	set [2].3
1797  0012              _L565:
1799  0012              #line 1799 "k:\55555555555555\test\saier-a600n-2260-usa4g-aal-bg95-ui-v1.0-6\lcd.c"
1799  0012  3800     E  	snz _BCD[1].2
1799  0013  2800     R  	jmp _L566
1801  0014              #line 1801 "k:\55555555555555\test\saier-a600n-2260-usa4g-aal-bg95-ui-v1.0-6\lcd.c"
1801  0014  3202        	set [2].4
1801  0015              _L566:
1803  0015              #line 1803 "k:\55555555555555\test\saier-a600n-2260-usa4g-aal-bg95-ui-v1.0-6\lcd.c"
1803  0015  3800     E  	snz _BCD[1].0
1803  0016  2800     R  	jmp _L567
1805  0017              #line 1805 "k:\55555555555555\test\saier-a600n-2260-usa4g-aal-bg95-ui-v1.0-6\lcd.c"
1805  0017  3282        	set [2].5
1805  0018              _L567:
1808  0018              #line 1808 "k:\55555555555555\test\saier-a600n-2260-usa4g-aal-bg95-ui-v1.0-6\lcd.c"
1808  0018  1483        	inc [3]
1809  0019              #line 1809 "k:\55555555555555\test\saier-a600n-2260-usa4g-aal-bg95-ui-v1.0-6\lcd.c"
1809  0019  0F07        	mov a,7
1809  001A  0682        	andm a,[2]
1811  001B              #line 1811 "k:\55555555555555\test\saier-a600n-2260-usa4g-aal-bg95-ui-v1.0-6\lcd.c"
1811  001B  3800     E  	snz _BCD[0].4
1811  001C  2800     R  	jmp _L568
1813  001D              #line 1813 "k:\55555555555555\test\saier-a600n-2260-usa4g-aal-bg95-ui-v1.0-6\lcd.c"
1813  001D  3182        	set [2].3
1813  001E              _L568:
1815  001E              #line 1815 "k:\55555555555555\test\saier-a600n-2260-usa4g-aal-bg95-ui-v1.0-6\lcd.c"
1815  001E  3800     E  	snz _BCD[1].6
1815  001F  2800     R  	jmp _L569
1817  0020              #line 1817 "k:\55555555555555\test\saier-a600n-2260-usa4g-aal-bg95-ui-v1.0-6\lcd.c"
1817  0020  3202        	set [2].4
1817  0021              _L569:
1819  0021              #line 1819 "k:\55555555555555\test\saier-a600n-2260-usa4g-aal-bg95-ui-v1.0-6\lcd.c"
1819  0021  3800     E  	snz _BCD[1].5
1819  0022  2800     R  	jmp _L570
1821  0023              #line 1821 "k:\55555555555555\test\saier-a600n-2260-usa4g-aal-bg95-ui-v1.0-6\lcd.c"
1821  0023  3282        	set [2].5
1821  0024              _L570:
1823  0024              #line 1823 "k:\55555555555555\test\saier-a600n-2260-usa4g-aal-bg95-ui-v1.0-6\lcd.c"
文件：lcd.c        编译器版本 HGASM 0202 页次56

1823  0024  1483        	inc [3]
1824  0025              #line 1824 "k:\55555555555555\test\saier-a600n-2260-usa4g-aal-bg95-ui-v1.0-6\lcd.c"
1824  0025  0F07        	mov a,7
1824  0026  0682        	andm a,[2]
1825  0027              #line 1825 "k:\55555555555555\test\saier-a600n-2260-usa4g-aal-bg95-ui-v1.0-6\lcd.c"
1825  0027  3800     E  	snz _BCD[0].3
1825  0028  2800     R  	jmp _L571
1827  0029              #line 1827 "k:\55555555555555\test\saier-a600n-2260-usa4g-aal-bg95-ui-v1.0-6\lcd.c"
1827  0029  3182        	set [2].3
1827  002A              _L571:
1829  002A              #line 1829 "k:\55555555555555\test\saier-a600n-2260-usa4g-aal-bg95-ui-v1.0-6\lcd.c"
1829  002A  3800     E  	snz _BCD[0].2
1829  002B  2800     R  	jmp _L572
1831  002C              #line 1831 "k:\55555555555555\test\saier-a600n-2260-usa4g-aal-bg95-ui-v1.0-6\lcd.c"
1831  002C  3202        	set [2].4
1831  002D              _L572:
1833  002D              #line 1833 "k:\55555555555555\test\saier-a600n-2260-usa4g-aal-bg95-ui-v1.0-6\lcd.c"
1833  002D  3800     E  	snz _BCD[0].1
1833  002E  2800     R  	jmp _L573
1835  002F              #line 1835 "k:\55555555555555\test\saier-a600n-2260-usa4g-aal-bg95-ui-v1.0-6\lcd.c"
1835  002F  3282        	set [2].5
1835  0030              _L573:
1838  0030              #line 1838 "k:\55555555555555\test\saier-a600n-2260-usa4g-aal-bg95-ui-v1.0-6\lcd.c"
1838  0030  1483        	inc [3]
1839  0031              #line 1839 "k:\55555555555555\test\saier-a600n-2260-usa4g-aal-bg95-ui-v1.0-6\lcd.c"
1839  0031  0F07        	mov a,7
1839  0032  0682        	andm a,[2]
1840  0033              #line 1840 "k:\55555555555555\test\saier-a600n-2260-usa4g-aal-bg95-ui-v1.0-6\lcd.c"
1840  0033  3800     E  	snz _BCD[0].6
1840  0034  2800     R  	jmp _L574
1842  0035              #line 1842 "k:\55555555555555\test\saier-a600n-2260-usa4g-aal-bg95-ui-v1.0-6\lcd.c"
1842  0035  3182        	set [2].3
1842  0036              _L574:
1844  0036              #line 1844 "k:\55555555555555\test\saier-a600n-2260-usa4g-aal-bg95-ui-v1.0-6\lcd.c"
1844  0036  3800     E  	snz _BCD[0].5
1844  0037  2800     R  	jmp _L575
1846  0038              #line 1846 "k:\55555555555555\test\saier-a600n-2260-usa4g-aal-bg95-ui-v1.0-6\lcd.c"
1846  0038  3202        	set [2].4
1846  0039              _L575:
1848  0039              #line 1848 "k:\55555555555555\test\saier-a600n-2260-usa4g-aal-bg95-ui-v1.0-6\lcd.c"
1848  0039  3800     E  	snz _BCD[0].0
1848  003A  2800     R  	jmp _L562
1850  003B              #line 1850 "k:\55555555555555\test\saier-a600n-2260-usa4g-aal-bg95-ui-v1.0-6\lcd.c"
1850  003B  3282        	set [2].5
1850  003C              _L562:
1850  003C  0003        	ret
1850  003D              _SBR_DISP_MINUTE endp
1850  003D              #line 1850 "k:\55555555555555\test\saier-a600n-2260-usa4g-aal-bg95-ui-v1.0-6\lcd.c"
1850  003D              #pragma debug scope 1 1
1850  003D              public _SBR_DISP_ANO_NUM_ON
1850  003D              #pragma debug scope 112 1
 853  003D              #line 853 "k:\55555555555555\test\saier-a600n-2260-usa4g-aal-bg95-ui-v1.0-6\lcd.c"
 853  0000              _SBR_DISP_ANO_NUM_ON .section 'code'
 853  0000              _SBR_DISP_ANO_NUM_ON proc
 854  0000              #line 854 "k:\55555555555555\test\saier-a600n-2260-usa4g-aal-bg95-ui-v1.0-6\lcd.c"
 854  0000              	fcall _SBR_BIN_TO_BCD
 855  0007              #line 855 "k:\55555555555555\test\saier-a600n-2260-usa4g-aal-bg95-ui-v1.0-6\lcd.c"
 855  0007  0F00     R  	mov a,low offset _display_num
 855  0008  0300     E  	add a,_BCD[0]
 855  0009  0083        	mov mp,a
文件：lcd.c        编译器版本 HGASM 0202 页次57

 855  000A  0F00     R  	mov a,high offset _display_num
 855  000B  1F04        	clr sbp
 855  000C  1384        	adcm a,sbp
 855  000D              	fcall _Crom2Prom
 855  0014  0080     E  	mov _BCD[0],a
 856  0015              #line 856 "k:\55555555555555\test\saier-a600n-2260-usa4g-aal-bg95-ui-v1.0-6\lcd.c"
 856  0015  0F00     R  	mov a,low offset _display_num
 856  0016  0300     E  	add a,_BCD[1]
 856  0017  0083        	mov mp,a
 856  0018  0F00     R  	mov a,high offset _display_num
 856  0019  1F04        	clr sbp
 856  001A  1384        	adcm a,sbp
 856  001B              	fcall _Crom2Prom
 856  0022  0080     E  	mov _BCD[1],a
 857  0023              #line 857 "k:\55555555555555\test\saier-a600n-2260-usa4g-aal-bg95-ui-v1.0-6\lcd.c"
 857  0023              	fcall _SBR_DISP_MINUTE
 858  002A              #line 858 "k:\55555555555555\test\saier-a600n-2260-usa4g-aal-bg95-ui-v1.0-6\lcd.c"
 858  002A  0F00     R  	mov a,low offset _display_num
 858  002B  0300     E  	add a,_BCD[2]
 858  002C  0083        	mov mp,a
 858  002D  0F00     R  	mov a,high offset _display_num
 858  002E  1F04        	clr sbp
 858  002F  1384        	adcm a,sbp
 858  0030              	fcall _Crom2Prom
 858  0037  0080     E  	mov _BCD[0],a
 859  0038              #line 859 "k:\55555555555555\test\saier-a600n-2260-usa4g-aal-bg95-ui-v1.0-6\lcd.c"
 859  0038  1F00     E  	clr _BCD[1]
 860  0039              #line 860 "k:\55555555555555\test\saier-a600n-2260-usa4g-aal-bg95-ui-v1.0-6\lcd.c"
 860  0039              	fcall _SBR_DISP_HOUR
 860  0040              #pragma debug scope 113 112
 860  0040              ;begin block, line: 860.-1
 860  0040              #pragma debug scope 114 113
 860  0040              ;begin block, line: 860.-1
 205  0040              #line 205 "k:\55555555555555\test\saier-a600n-2260-usa4g-aal-bg95-ui-v1.0-6\lcd.c"
 205  0040  B18A 0004   	lset [1034].3
 205  0042              #pragma debug scope 113 112
 205  0042              #pragma debug scope 112 1
 205  0042  0003        	ret
 205  0043              _SBR_DISP_ANO_NUM_ON endp
 205  0043              #line 205 "k:\55555555555555\test\saier-a600n-2260-usa4g-aal-bg95-ui-v1.0-6\lcd.c"
 205  0043              #pragma debug scope 1 1
 205  0043              public _SBR_DISP_CLL_ALL_T_ON
 205  0043              #pragma debug scope 115 1
 865  0043              #line 865 "k:\55555555555555\test\saier-a600n-2260-usa4g-aal-bg95-ui-v1.0-6\lcd.c"
 865  0000              _SBR_DISP_CLL_ALL_T_ON .section 'code'
 865  0000              _SBR_DISP_CLL_ALL_T_ON proc
 866  0000              #line 866 "k:\55555555555555\test\saier-a600n-2260-usa4g-aal-bg95-ui-v1.0-6\lcd.c"
 866  0000  0F1B        	mov a,27
 866  0001  0080     E  	mov _BCD[0],a
 867  0002              #line 867 "k:\55555555555555\test\saier-a600n-2260-usa4g-aal-bg95-ui-v1.0-6\lcd.c"
 867  0002  1F00     E  	clr _BCD[1]
 868  0003              #line 868 "k:\55555555555555\test\saier-a600n-2260-usa4g-aal-bg95-ui-v1.0-6\lcd.c"
 868  0003              	fcall _SBR_DISP_MONTH
 869  000A              #line 869 "k:\55555555555555\test\saier-a600n-2260-usa4g-aal-bg95-ui-v1.0-6\lcd.c"
 869  000A              	fcall _SBR_DISP_DOT_COLD_ON
 870  0011              #line 870 "k:\55555555555555\test\saier-a600n-2260-usa4g-aal-bg95-ui-v1.0-6\lcd.c"
 870  0011  0F14        	mov a,20
 870  0012  0080     E  	mov _BCD[0],a
 871  0013              #line 871 "k:\55555555555555\test\saier-a600n-2260-usa4g-aal-bg95-ui-v1.0-6\lcd.c"
 871  0013  0F1A        	mov a,26
文件：lcd.c        编译器版本 HGASM 0202 页次58

 871  0014  0080     E  	mov _BCD[1],a
 872  0015              #line 872 "k:\55555555555555\test\saier-a600n-2260-usa4g-aal-bg95-ui-v1.0-6\lcd.c"
 872  0015              	fcall _SBR_DISP_DAY
 873  001C              #line 873 "k:\55555555555555\test\saier-a600n-2260-usa4g-aal-bg95-ui-v1.0-6\lcd.c"
 873  001C  0F77        	mov a,119
 873  001D  0080     E  	mov _BCD[0],a
 874  001E              #line 874 "k:\55555555555555\test\saier-a600n-2260-usa4g-aal-bg95-ui-v1.0-6\lcd.c"
 874  001E  1F00     E  	clr _BCD[1]
 875  001F              #line 875 "k:\55555555555555\test\saier-a600n-2260-usa4g-aal-bg95-ui-v1.0-6\lcd.c"
 875  001F              	fcall _SBR_DISP_HOUR
 876  0026              #line 876 "k:\55555555555555\test\saier-a600n-2260-usa4g-aal-bg95-ui-v1.0-6\lcd.c"
 876  0026              	fcall _SBR_DISP_DOT_COLD_ON
 877  002D              #line 877 "k:\55555555555555\test\saier-a600n-2260-usa4g-aal-bg95-ui-v1.0-6\lcd.c"
 877  002D  0F1A        	mov a,26
 877  002E  0080     E  	mov _BCD[0],a
 878  002F              #line 878 "k:\55555555555555\test\saier-a600n-2260-usa4g-aal-bg95-ui-v1.0-6\lcd.c"
 878  002F  0F1A        	mov a,26
 878  0030  0080     E  	mov _BCD[1],a
 879  0031              #line 879 "k:\55555555555555\test\saier-a600n-2260-usa4g-aal-bg95-ui-v1.0-6\lcd.c"
 879  0031              	fcall _SBR_DISP_MINUTE
 879  0038              #pragma debug scope 116 115
 879  0038              ;begin block, line: 879.-1
 879  0038              #pragma debug scope 117 116
 879  0038              ;begin block, line: 879.-1
 200  0038              #line 200 "k:\55555555555555\test\saier-a600n-2260-usa4g-aal-bg95-ui-v1.0-6\lcd.c"
 200  0038  B483 0004   	lclr [1027].1
 200  003A              #pragma debug scope 116 115
 200  003A              #pragma debug scope 115 1
 200  003A  0003        	ret
 200  003B              _SBR_DISP_CLL_ALL_T_ON endp
 200  003B              #line 200 "k:\55555555555555\test\saier-a600n-2260-usa4g-aal-bg95-ui-v1.0-6\lcd.c"
 200  003B              #pragma debug scope 1 1
 200  003B              public _SBR_DISP_MINUTE_OFF
 200  003B              #pragma debug scope 118 1
1773  003B              #line 1773 "k:\55555555555555\test\saier-a600n-2260-usa4g-aal-bg95-ui-v1.0-6\lcd.c"
1773  0000              _SBR_DISP_MINUTE_OFF .section 'code'
1773  0000              _SBR_DISP_MINUTE_OFF proc
1774  0000              #line 1774 "k:\55555555555555\test\saier-a600n-2260-usa4g-aal-bg95-ui-v1.0-6\lcd.c"
1774  0000  1F00     E  	clr _BCD[0]
1775  0001              #line 1775 "k:\55555555555555\test\saier-a600n-2260-usa4g-aal-bg95-ui-v1.0-6\lcd.c"
1775  0001  1F00     E  	clr _BCD[1]
1776  0002              #line 1776 "k:\55555555555555\test\saier-a600n-2260-usa4g-aal-bg95-ui-v1.0-6\lcd.c"
1776  0002              	fcall _SBR_DISP_MINUTE
1776  0009  0003        	ret
1776  000A              _SBR_DISP_MINUTE_OFF endp
1776  000A              #line 1776 "k:\55555555555555\test\saier-a600n-2260-usa4g-aal-bg95-ui-v1.0-6\lcd.c"
1776  000A              #pragma debug scope 1 1
1776  000A              public _SBR_DISP_MINUTE_ON
1776  000A              #pragma debug scope 119 1
1856  000A              #line 1856 "k:\55555555555555\test\saier-a600n-2260-usa4g-aal-bg95-ui-v1.0-6\lcd.c"
1856  0000              _SBR_DISP_MINUTE_ON .section 'code'
1856  0000              _SBR_DISP_MINUTE_ON proc
1857  0000              #line 1857 "k:\55555555555555\test\saier-a600n-2260-usa4g-aal-bg95-ui-v1.0-6\lcd.c"
1857  0000  1F00     E  	clr _R_TEMPDATA[1]
1858  0001              #line 1858 "k:\55555555555555\test\saier-a600n-2260-usa4g-aal-bg95-ui-v1.0-6\lcd.c"
1858  0001              	fcall _SBR_BIN_TO_BCD
1864  0008              #line 1864 "k:\55555555555555\test\saier-a600n-2260-usa4g-aal-bg95-ui-v1.0-6\lcd.c"
1864  0008  0F00     R  	mov a,low offset _display_num
1864  0009  0300     E  	add a,_BCD[0]
1864  000A  0083        	mov mp,a
文件：lcd.c        编译器版本 HGASM 0202 页次59

1864  000B  0F00     R  	mov a,high offset _display_num
1864  000C  1F04        	clr sbp
1864  000D  1384        	adcm a,sbp
1864  000E              	fcall _Crom2Prom
1864  0015  0080     E  	mov _BCD[0],a
1865  0016              #line 1865 "k:\55555555555555\test\saier-a600n-2260-usa4g-aal-bg95-ui-v1.0-6\lcd.c"
1865  0016  0F00     R  	mov a,low offset _display_num
1865  0017  0300     E  	add a,_BCD[1]
1865  0018  0083        	mov mp,a
1865  0019  0F00     R  	mov a,high offset _display_num
1865  001A  1F04        	clr sbp
1865  001B  1384        	adcm a,sbp
1865  001C              	fcall _Crom2Prom
1865  0023  0080     E  	mov _BCD[1],a
1866  0024              #line 1866 "k:\55555555555555\test\saier-a600n-2260-usa4g-aal-bg95-ui-v1.0-6\lcd.c"
1866  0024              	fcall _SBR_DISP_MINUTE
1866  002B  0003        	ret
1866  002C              _SBR_DISP_MINUTE_ON endp
1866  002C              #line 1866 "k:\55555555555555\test\saier-a600n-2260-usa4g-aal-bg95-ui-v1.0-6\lcd.c"
1866  002C              #pragma debug scope 1 1
1866  002C              public _display_num
1866  0000              @crom	.section 'crom'
  41  0000              #line 41 "k:\55555555555555\test\saier-a600n-2260-usa4g-aal-bg95-ui-v1.0-6\lcd.c"
  41  0000              @crom	.section	'crom'
  41  0000              _display_num:
  41  0000              #pragma debug array 42 8 29 1
  41  0000              #pragma debug array 42 8 29 1
  41  0000              #pragma debug variable 42 1 _display_num "display_num"
  41  0000              	db 123
  41  0001              	db 96
  41  0001              	db 61
  41  0002              	db 109
  41  0002              	db 102
  41  0003              	db 79
  41  0003              	db 95
  41  0004              	db 97
  41  0004              	db 127
  41  0005              	db 111
  41  0005              	db 119
  41  0006              	db 94
  41  0006              	db 27
  41  0007              	db 124
  41  0007              	db 31
  41  0008              	db 23
  41  0008              	db 0
  41  0009              	db 55
  41  0009              	db 26
  41  000A              	db 4
  41  000A              	db 20
  41  000B              	db 92
  41  000B              	db 30
  41  000C              	db 4
  41  000C              	db 122
  41  000D              	db 84
  41  000D              	db 88
  41  000E              	db 110
  41  000E              	db 4
  41  000F              #pragma debug variable 8 1 ___mp1l "__mp1l" 1
  41  000F              #pragma debug variable 8 1 ___mp1h "__mp1h" 1
  41  000F              #pragma debug variable 10 1 _close_time "close_time" 2
文件：lcd.c        编译器版本 HGASM 0202 页次60

  41  000F              #pragma debug struct_end
  41  000F              #pragma debug struct_end
  41  000F              #pragma debug union_end
  41  000F              #pragma debug union_end
  41  000F              #pragma debug array 45 44 32 1
  41  000F              #pragma debug array 45 44 32 1
  41  000F              #pragma debug variable 45 1 _SEG "SEG" 32
  41  000F              #pragma debug union_end
  41  000F              #pragma debug union_end
  41  000F              #pragma debug variable 46 1 _SFR_iar1 "SFR_iar1" 1
  41  000F              
  41  000F              ; output external variables
  41  000F              extern _KEYFLAG:byte
  41  000F              extern _keyval:byte
  41  000F              extern _MODEFLAG:byte
  41  000F              extern _R_TEMPDATA:byte
  41  000F              extern _BCD:byte
  41  000F              extern _builtin_holtek_mulhi3_2:byte
  41  000F              extern _builtin_holtek_mulhi3:near
  41  000F              extern _builtin_holtek_udivmodhi4_2:byte
  41  000F              extern _builtin_holtek_udivmodhi4:near
  41  000F              extern _SBR_EEPROM_READDATA:near
  41  000F              extern _Delay_ms_2:byte
  41  000F              extern _Delay_ms:near
  41  000F              extern _key_scan:near
  41  000F              
  41  000F              ; 
  41  000F              ; Generated by holtek-gcc v3.19, Tue Jul 26 12:07:03 2022
  41  000F              ; Rebuild 718
  41  000F              ; end of file


        0 Errors, 0