文件：main.c       编译器版本 HGASM 0202 页次1


   1  0000              ; Generated by holtek-gcc v3.19, Tue Jul 26 12:07:00 2022
   2  0000              ; 
   3  0000              ; Configuration:
   4  0000              ;       with long instruction
   5  0000              ;       Multi-ROM, Multi-RAM
   6  0000              ;       bits_per_rom_unit:16
   7  0000              ;       with mp1
   8  0000              ;       with tbhp, address(0x9)
   9  0000              ;          Use tabrd-const
  10  0000              ;       
  11  0000              ; SFR address of long-instruction arch:
  12  0000              ;    mp0 = -1,1,0
  13  0000              ;    mp1 = 4,3,2
  14  0000              ;    mp2 = 14,13,12
  15  0000              ;    tbp = 9,7,8
  16  0000              ;    acc = 5
  17  0000              ;    pcl = 6
  18  0000              ;    status = 10
  19  0000              ;    bp = 11
  20  0000              ;    intc = 32
  21  0000              ;       
  22  0000              ;       
  23  0000              ; use 'tabrdc' instead of 'tabrd'
  24  0000              ;       
  25  0000              
  26  0000              #pragma translator "holtek-gcc 4.6.4" "3.19" "build 20130711"
  27  0000              ; Rebuild 718
  28  0000              
  29  0000              ir equ [2]
  30  0000              mp equ [3]
  31  0000              sbp equ [4]
  32  0000              acc equ [5]
  33  0000              bp equ [11]
  34  0000              tblp equ [7]
  35  0000              tbhp equ [9]
  36  0000              status equ [10]
  37  0000              c equ [10].0
  38  0000              ac equ [10].1
  39  0000              z equ [10].2
  40  0000              ov equ [10].3
  41  0000              cz equ [10].6
  42  0000              sc equ [10].7
  43  0000              intc equ [32]
  44  0000              
  45  0000              extern ra:byte
  46  0000              extern rb:byte
  47  0000              extern rc:byte
  48  0000              extern rd:byte
  49  0000              extern re:byte
  50  0000              extern rf:byte
  51  0000              extern rg:byte
  52  0000              extern rh:byte
  53  0000              extern _Crom2Prom:near
  54  0000              extern _Crom2PromNext:near
  55  0000              
  56  0000              RAMBANK 0 @BITDATASEC, @BITDATASEC1
  57  0000              @HCCINIT	.section 'data'
  58  0000              @HCCINIT0	.section 'data'
  59  0000              @BITDATASEC	 .section 'data'
文件：main.ASM     编译器版本 HGASM 0202 页次2

  60  0000              @BITDATASEC1	 .section 'data'
  61  0000              
  62  0000              #pragma debug scope 1 1
  63  0000              	extern __DELAY3:near
  64  0000              	extern __DELAYX3:near
  65  0000              	extern __DELAYX6:near
  66  0000              	extern __DELAYY5:near
  67  0000              	extern __DELAYY3:near
  68  0000              	extern _builtin_holtek_delay_2:byte
  69  0000              ___pc equ [39]
  70  0000              _close_time1 equ [1002]
  71  0000              _OLD_PRE_SYS equ [1016]
  72  0000              _OLD_PRE_DIA equ [1014]
  73  0000              _close_time equ [1004]
  74  0000              ___pa equ [20]
  75  0000              ___intc0 equ [32]
  76  0000              ___pe equ [119]
  77  0000              _PUMPPRE equ [944]
  78  0000              public _main
  79  0000              #pragma debug scope 2 1

   9  0000              #line 9 "k:\55555555555555\test\saier-a600n-2260-usa4g-aal-bg95-ui-v1.0-6\main.c"
   9  0000              IFDEF WITH_DEFAULT_STARTUP
   9  0000              extern _main_initial0:near
   9  0000              extern _main_startup:near
   9  0000              ENDIF
   9  0000              
   9  0000              ROMBANK 0 @start
   9  0000              @start .section com_l 'code'
   9  0000              _main_startup1:
   9  0000              @start .section com_e 'code'
   9  0000  0F00     R  	mov a,bank _main
   9  0001  008B        	mov bp,a
   9  0002  2800     R  	jmp _main
   9  0003              
   9  0000              _main .section 'code'
   9  0000              _main proc
   9  0000  00              local _main_2 db 1 dup(?)
  11  0001              #line 11 "k:\55555555555555\test\saier-a600n-2260-usa4g-aal-bg95-ui-v1.0-6\main.c"
  11  0000              	fcall _Ram_Init
  12  0007              #line 12 "k:\55555555555555\test\saier-a600n-2260-usa4g-aal-bg95-ui-v1.0-6\main.c"
  12  0007              	fcall _INT_SYSTEM
  13  000E              #line 13 "k:\55555555555555\test\saier-a600n-2260-usa4g-aal-bg95-ui-v1.0-6\main.c"
  13  000E              	fcall _INT_POWER
  14  0015              #line 14 "k:\55555555555555\test\saier-a600n-2260-usa4g-aal-bg95-ui-v1.0-6\main.c"
  14  0015              	fcall _INT_IO
  15  001C              #line 15 "k:\55555555555555\test\saier-a600n-2260-usa4g-aal-bg95-ui-v1.0-6\main.c"
  15  001C              	fcall _Uart_Init
  16  0023              #line 16 "k:\55555555555555\test\saier-a600n-2260-usa4g-aal-bg95-ui-v1.0-6\main.c"
  16  0023              	fcall _INT_LCD
  17  002A              #line 17 "k:\55555555555555\test\saier-a600n-2260-usa4g-aal-bg95-ui-v1.0-6\main.c"
  17  002A              	fcall _INT_OP1
  18  0031              #line 18 "k:\55555555555555\test\saier-a600n-2260-usa4g-aal-bg95-ui-v1.0-6\main.c"
  18  0031              	fcall _INT_OP
  19  0038              #line 19 "k:\55555555555555\test\saier-a600n-2260-usa4g-aal-bg95-ui-v1.0-6\main.c"
  19  0038              	fcall _INT_AD
  20  003F              #line 20 "k:\55555555555555\test\saier-a600n-2260-usa4g-aal-bg95-ui-v1.0-6\main.c"
  20  003F              	fcall _INT_TMR
  21  0046              #line 21 "k:\55555555555555\test\saier-a600n-2260-usa4g-aal-bg95-ui-v1.0-6\main.c"
  21  0046              	fcall _INT_INTP
文件：main.c       编译器版本 HGASM 0202 页次3

  22  004D              #line 22 "k:\55555555555555\test\saier-a600n-2260-usa4g-aal-bg95-ui-v1.0-6\main.c"
  22  004D              	fcall _Init_val
  23  0054              #line 23 "k:\55555555555555\test\saier-a600n-2260-usa4g-aal-bg95-ui-v1.0-6\main.c"
  23  0054              	fcall _FUN_INT1_2_INIT
  24  005B              #line 24 "k:\55555555555555\test\saier-a600n-2260-usa4g-aal-bg95-ui-v1.0-6\main.c"
  24  005B              	fcall _SBR_INI_TIMEBASE
  25  0062              #line 25 "k:\55555555555555\test\saier-a600n-2260-usa4g-aal-bg95-ui-v1.0-6\main.c"
  25  0062              	fcall _INT_DATE_TIME
  27  0069              #line 27 "k:\55555555555555\test\saier-a600n-2260-usa4g-aal-bg95-ui-v1.0-6\main.c"
  27  0069  30A7        	set [39].1
  28  006A              #line 28 "k:\55555555555555\test\saier-a600n-2260-usa4g-aal-bg95-ui-v1.0-6\main.c"
  28  006A              	fcall _LCD_INIT_ON
  29  0071              #line 29 "k:\55555555555555\test\saier-a600n-2260-usa4g-aal-bg95-ui-v1.0-6\main.c"
  29  0071  DF6A 0003   	lclr [1002]
  29  0073  DF6B 0003   	lclr [1003]
  10  0075              #line 10 "k:\55555555555555\test\saier-a600n-2260-usa4g-aal-bg95-ui-v1.0-6\main.c"
  10  0075  1F00     E  	clr rb
  10  0076  1F00     E  	clr rc
  10  0077              _L4:
  30  0077              #line 30 "k:\55555555555555\test\saier-a600n-2260-usa4g-aal-bg95-ui-v1.0-6\main.c"
  30  0077  0FDB        	mov a,219
  30  0078  C26A 0003   	lsub a,[1002]
  30  007A  0FFF        	mov a,255
  30  007B  D26B 0003   	lsbc a,[1003]
  30  007D  380A        	snz c
  30  007E  2800     R  	jmp _L69
  32  007F              #line 32 "k:\55555555555555\test\saier-a600n-2260-usa4g-aal-bg95-ui-v1.0-6\main.c"
  32  007F  D4EA 0003   	linc [1002]
  32  0081  3D0A        	sz z
  32  0082  D4EB 0003   	linc [1003]
  33  0084              #line 33 "k:\55555555555555\test\saier-a600n-2260-usa4g-aal-bg95-ui-v1.0-6\main.c"
  33  0084  3800     E  	snz _KEYFLAG[0].1
  33  0085  2800     R  	jmp _L4
  35  0086              #line 35 "k:\55555555555555\test\saier-a600n-2260-usa4g-aal-bg95-ui-v1.0-6\main.c"
  35  0086  3400     E  	clr _KEYFLAG[0].1
  36  0087              #line 36 "k:\55555555555555\test\saier-a600n-2260-usa4g-aal-bg95-ui-v1.0-6\main.c"
  36  0087  DF6A 0003   	lclr [1002]
  36  0089  DF6B 0003   	lclr [1003]
  37  008B              #line 37 "k:\55555555555555\test\saier-a600n-2260-usa4g-aal-bg95-ui-v1.0-6\main.c"
  37  008B  1480     E  	inc rb
  37  008C  3D0A        	sz z
  37  008D  1480     E  	inc rc
  37  008E  2800     R  	jmp _L4
  37  008F              _L69:
  40  008F              #line 40 "k:\55555555555555\test\saier-a600n-2260-usa4g-aal-bg95-ui-v1.0-6\main.c"
  40  008F  0700     E  	mov a,rb
  40  0090  0C05        	xor a,5
  40  0091  0500     E  	or a,rc
  40  0092  3D0A        	sz z
  40  0093  2800     R  	jmp _L7
  40  0094  0700     E  	mov a,rb
  40  0095  0C06        	xor a,6
  40  0096  0500     E  	or a,rc
  40  0097  3D0A        	sz z
  40  0098  2800     R  	jmp _L7
  40  0099  0700     E  	mov a,rb
  40  009A  0C07        	xor a,7
  40  009B  0500     E  	or a,rc
  40  009C  3D0A        	sz z
  40  009D  2800     R  	jmp _L7
文件：main.c       编译器版本 HGASM 0202 页次4

  40  009E  0700     E  	mov a,rb
  40  009F  0C08        	xor a,8
  40  00A0  0500     E  	or a,rc
  40  00A1  390A        	snz z
  40  00A2  2800     R  	jmp _L59
  40  00A3              _L7:
  47  00A3              #line 47 "k:\55555555555555\test\saier-a600n-2260-usa4g-aal-bg95-ui-v1.0-6\main.c"
  47  00A3              	fcall _STUDY_PRE
  48  00AA              #line 48 "k:\55555555555555\test\saier-a600n-2260-usa4g-aal-bg95-ui-v1.0-6\main.c"
  48  00AA              	fcall _STUDY_PRE1
  49  00B1              #line 49 "k:\55555555555555\test\saier-a600n-2260-usa4g-aal-bg95-ui-v1.0-6\main.c"
  49  00B1              	fcall _STUDY_PRE2
  50  00B8              #line 50 "k:\55555555555555\test\saier-a600n-2260-usa4g-aal-bg95-ui-v1.0-6\main.c"
  50  00B8              	fcall _STUDY_PRE3
  50  00BF              _L8:
  50  00BF  2800     R  	jmp _L8
  50  00C0              _L59:
  54  00C0              #line 54 "k:\55555555555555\test\saier-a600n-2260-usa4g-aal-bg95-ui-v1.0-6\main.c"
  54  00C0  3000     E  	set _MODEFLAG[0].0
  55  00C1              #line 55 "k:\55555555555555\test\saier-a600n-2260-usa4g-aal-bg95-ui-v1.0-6\main.c"
  55  00C1  3400     E  	clr _MODEFLAG[0].1
  56  00C2              #line 56 "k:\55555555555555\test\saier-a600n-2260-usa4g-aal-bg95-ui-v1.0-6\main.c"
  56  00C2  3400     E  	clr _MODEFLAG[0].5
  57  00C3              #line 57 "k:\55555555555555\test\saier-a600n-2260-usa4g-aal-bg95-ui-v1.0-6\main.c"
  57  00C3  3000     E  	set _MODEFLAG[0].3
  58  00C4              #line 58 "k:\55555555555555\test\saier-a600n-2260-usa4g-aal-bg95-ui-v1.0-6\main.c"
  58  00C4  3400     E  	clr _MODEFLAG[0].4
  59  00C5              #line 59 "k:\55555555555555\test\saier-a600n-2260-usa4g-aal-bg95-ui-v1.0-6\main.c"
  59  00C5  DF78 0003   	lclr [1016]
  59  00C7  DF79 0003   	lclr [1017]
  60  00C9              #line 60 "k:\55555555555555\test\saier-a600n-2260-usa4g-aal-bg95-ui-v1.0-6\main.c"
  60  00C9  DF76 0003   	lclr [1014]
  60  00CB  DF77 0003   	lclr [1015]
  61  00CD              #line 61 "k:\55555555555555\test\saier-a600n-2260-usa4g-aal-bg95-ui-v1.0-6\main.c"
  61  00CD  0F20        	mov a,32
  61  00CE  0080     E  	mov _Delay_ms_2[0],a
  61  00CF  0F4E        	mov a,78
  61  00D0  0080     E  	mov _Delay_ms_2[1],a
  61  00D1              	fcall _Delay_ms
  62  00D8              #line 62 "k:\55555555555555\test\saier-a600n-2260-usa4g-aal-bg95-ui-v1.0-6\main.c"
  62  00D8  DF6C 0003   	lclr [1004]
  62  00DA  DF6D 0003   	lclr [1005]
  63  00DC              #line 63 "k:\55555555555555\test\saier-a600n-2260-usa4g-aal-bg95-ui-v1.0-6\main.c"
  63  00DC              	fcall _LCD_INIT_OFF
  63  00E3              _L61:
  64  00E3              #line 64 "k:\55555555555555\test\saier-a600n-2260-usa4g-aal-bg95-ui-v1.0-6\main.c"
  64  00E3  3400     E  	clr _Usflag[0].5
  64  00E4              _L9:
  68  00E4              #line 68 "k:\55555555555555\test\saier-a600n-2260-usa4g-aal-bg95-ui-v1.0-6\main.c"
  68  00E4  0F74        	mov a,116
  68  00E5  C26C 0003   	lsub a,[1004]
  68  00E7  0F40        	mov a,64
  68  00E8  D26D 0003   	lsbc a,[1005]
  68  00EA  3C0A        	sz c
  68  00EB  2800     R  	jmp _L10
  68  00EC  3C00     E  	sz _Usflag[0].5
  68  00ED  2800     R  	jmp _L10
  70  00EE              #line 70 "k:\55555555555555\test\saier-a600n-2260-usa4g-aal-bg95-ui-v1.0-6\main.c"
  70  00EE  3400     E  	clr _MODEFLAG[0].3
  72  00EF              #line 72 "k:\55555555555555\test\saier-a600n-2260-usa4g-aal-bg95-ui-v1.0-6\main.c"
文件：main.c       编译器版本 HGASM 0202 页次5

  72  00EF  3000     E  	set _Usflag[0].5
  73  00F0              #line 73 "k:\55555555555555\test\saier-a600n-2260-usa4g-aal-bg95-ui-v1.0-6\main.c"
  73  00F0              	fcall _LCD_INIT_OFF
  73  00F7  2800     R  	jmp _L64
  73  00F8              _L10:
  78  00F8              #line 78 "k:\55555555555555\test\saier-a600n-2260-usa4g-aal-bg95-ui-v1.0-6\main.c"
  78  00F8  0F69        	mov a,105
  78  00F9  C26C 0003   	lsub a,[1004]
  78  00FB  0F40        	mov a,64
  78  00FC  D26D 0003   	lsbc a,[1005]
  78  00FE  380A        	snz c
  78  00FF  2800     R  	jmp _L12
  80  0100              #line 80 "k:\55555555555555\test\saier-a600n-2260-usa4g-aal-bg95-ui-v1.0-6\main.c"
  80  0100  3000     E  	set _MODEFLAG[0].3
  81  0101              #line 81 "k:\55555555555555\test\saier-a600n-2260-usa4g-aal-bg95-ui-v1.0-6\main.c"
  81  0101              	fcall _SBR_UPDATE_TIME
  81  0108  2800     R  	jmp _L11
  81  0109              _L12:
  83  0109              #line 83 "k:\55555555555555\test\saier-a600n-2260-usa4g-aal-bg95-ui-v1.0-6\main.c"
  83  0109  3C94        	sz [20].1
  83  010A  2800     R  	jmp _L11
  83  010B  3800     E  	snz _Usflag[0].5
  83  010C  2800     R  	jmp _L11
  85  010D              #line 85 "k:\55555555555555\test\saier-a600n-2260-usa4g-aal-bg95-ui-v1.0-6\main.c"
  85  010D  34A7        	clr [39].1
  86  010E              #line 86 "k:\55555555555555\test\saier-a600n-2260-usa4g-aal-bg95-ui-v1.0-6\main.c"
  86  010E  3400     E  	clr _MODEFLAG[0].3
  86  010F              _L64:
  87  010F              #line 87 "k:\55555555555555\test\saier-a600n-2260-usa4g-aal-bg95-ui-v1.0-6\main.c"
  87  010F  0F6A        	mov a,106
  87  0110  C0EC 0003   	lmov [1004],a
  87  0112  0F40        	mov a,64
  87  0113  C0ED 0003   	lmov [1005],a
  87  0115              _L11:
  90  0115              #line 90 "k:\55555555555555\test\saier-a600n-2260-usa4g-aal-bg95-ui-v1.0-6\main.c"
  90  0115  3C00     E  	sz _R_alarm_clock[0].0
  90  0116  2800     R  	jmp _L13
  90  0117  0F72        	mov a,114
  90  0118  C26C 0003   	lsub a,[1004]
  90  011A  0F40        	mov a,64
  90  011B  D26D 0003   	lsbc a,[1005]
  90  011D  380A        	snz c
  90  011E  2800     R  	jmp _L13
  92  011F              #line 92 "k:\55555555555555\test\saier-a600n-2260-usa4g-aal-bg95-ui-v1.0-6\main.c"
  92  011F              	fcall _SBR_UPDATE_BTT
  92  0126              _L13:
  94  0126              #line 94 "k:\55555555555555\test\saier-a600n-2260-usa4g-aal-bg95-ui-v1.0-6\main.c"
  94  0126  3C94        	sz [20].1
  94  0127  2800     R  	jmp _L14
  96  0128              #line 96 "k:\55555555555555\test\saier-a600n-2260-usa4g-aal-bg95-ui-v1.0-6\main.c"
  96  0128  34A0        	clr [32].1
  96  0129  2800     R  	jmp _L62
  96  012A              _L14:
 100  012A              #line 100 "k:\55555555555555\test\saier-a600n-2260-usa4g-aal-bg95-ui-v1.0-6\main.c"
 100  012A              	fcall _key_scan
 100  0131  0080     E  	mov ra,a
 100  0132  0700     E  	mov a,ra
 100  0133  0080     E  	mov _keyval[0],a
 101  0134              #line 101 "k:\55555555555555\test\saier-a600n-2260-usa4g-aal-bg95-ui-v1.0-6\main.c"
 101  0134  0F74        	mov a,116
文件：main.c       编译器版本 HGASM 0202 页次6

 101  0135  C26C 0003   	lsub a,[1004]
 101  0137  0F40        	mov a,64
 101  0138  D26D 0003   	lsbc a,[1005]
 101  013A  3C0A        	sz c
 101  013B  2800     R  	jmp _L17
 118  013C              #line 118 "k:\55555555555555\test\saier-a600n-2260-usa4g-aal-bg95-ui-v1.0-6\main.c"
 118  013C  3000     E  	set _MODEFLAG[0].3
 119  013D              #line 119 "k:\55555555555555\test\saier-a600n-2260-usa4g-aal-bg95-ui-v1.0-6\main.c"
 119  013D  3400     E  	clr _MODEFLAG[0].1
 133  013E              #line 133 "k:\55555555555555\test\saier-a600n-2260-usa4g-aal-bg95-ui-v1.0-6\main.c"
 133  013E  3894        	snz [20].1
 133  013F  2800     R  	jmp _L17
 135  0140              #line 135 "k:\55555555555555\test\saier-a600n-2260-usa4g-aal-bg95-ui-v1.0-6\main.c"
 135  0140  37F7        	clr [119].7
 137  0141              #line 137 "k:\55555555555555\test\saier-a600n-2260-usa4g-aal-bg95-ui-v1.0-6\main.c"
 137  0141              	fcall _LCD_INIT_OFF
 141  0148              #line 141 "k:\55555555555555\test\saier-a600n-2260-usa4g-aal-bg95-ui-v1.0-6\main.c"
 141  0148  3000     E  	set _MODEFLAG[0].3
 142  0149              #line 142 "k:\55555555555555\test\saier-a600n-2260-usa4g-aal-bg95-ui-v1.0-6\main.c"
 142  0149  3400     E  	clr _MODEFLAG[0].1
 144  014A              #line 144 "k:\55555555555555\test\saier-a600n-2260-usa4g-aal-bg95-ui-v1.0-6\main.c"
 144  014A              	fcall _SBR_ENTER_HALTMODE
 147  0151              #line 147 "k:\55555555555555\test\saier-a600n-2260-usa4g-aal-bg95-ui-v1.0-6\main.c"
 147  0151              	fcall _INT_SYSTEM
 148  0158              #line 148 "k:\55555555555555\test\saier-a600n-2260-usa4g-aal-bg95-ui-v1.0-6\main.c"
 148  0158              	fcall _INT_POWER
 149  015F              #line 149 "k:\55555555555555\test\saier-a600n-2260-usa4g-aal-bg95-ui-v1.0-6\main.c"
 149  015F              	fcall _INT_IO
 150  0166              #line 150 "k:\55555555555555\test\saier-a600n-2260-usa4g-aal-bg95-ui-v1.0-6\main.c"
 150  0166              	fcall _Uart_Init
 151  016D              #line 151 "k:\55555555555555\test\saier-a600n-2260-usa4g-aal-bg95-ui-v1.0-6\main.c"
 151  016D              	fcall _INT_LCD
 152  0174              #line 152 "k:\55555555555555\test\saier-a600n-2260-usa4g-aal-bg95-ui-v1.0-6\main.c"
 152  0174              	fcall _INT_OP1
 153  017B              #line 153 "k:\55555555555555\test\saier-a600n-2260-usa4g-aal-bg95-ui-v1.0-6\main.c"
 153  017B              	fcall _INT_OP
 154  0182              #line 154 "k:\55555555555555\test\saier-a600n-2260-usa4g-aal-bg95-ui-v1.0-6\main.c"
 154  0182              	fcall _INT_AD
 155  0189              #line 155 "k:\55555555555555\test\saier-a600n-2260-usa4g-aal-bg95-ui-v1.0-6\main.c"
 155  0189              	fcall _INT_TMR
 156  0190              #line 156 "k:\55555555555555\test\saier-a600n-2260-usa4g-aal-bg95-ui-v1.0-6\main.c"
 156  0190              	fcall _INT_INTP
 157  0197              #line 157 "k:\55555555555555\test\saier-a600n-2260-usa4g-aal-bg95-ui-v1.0-6\main.c"
 157  0197              	fcall _Init_val
 158  019E              #line 158 "k:\55555555555555\test\saier-a600n-2260-usa4g-aal-bg95-ui-v1.0-6\main.c"
 158  019E              	fcall _FUN_INT1_2_INIT
 159  01A5              #line 159 "k:\55555555555555\test\saier-a600n-2260-usa4g-aal-bg95-ui-v1.0-6\main.c"
 159  01A5              	fcall _SBR_INI_TIMEBASE
 160  01AC              #line 160 "k:\55555555555555\test\saier-a600n-2260-usa4g-aal-bg95-ui-v1.0-6\main.c"
 160  01AC  3400     E  	clr _R_alarm_clock[0].0
 161  01AD              #line 161 "k:\55555555555555\test\saier-a600n-2260-usa4g-aal-bg95-ui-v1.0-6\main.c"
 161  01AD  30A7        	set [39].1
 162  01AE              #line 162 "k:\55555555555555\test\saier-a600n-2260-usa4g-aal-bg95-ui-v1.0-6\main.c"
 162  01AE  0F8C        	mov a,-116
 162  01AF  C0EC 0003   	lmov [1004],a
 162  01B1  0F3C        	mov a,60
 162  01B2  C0ED 0003   	lmov [1005],a
 163  01B4              #line 163 "k:\55555555555555\test\saier-a600n-2260-usa4g-aal-bg95-ui-v1.0-6\main.c"
 163  01B4  3400     E  	clr _MODEFLAG[0].1
 164  01B5              #line 164 "k:\55555555555555\test\saier-a600n-2260-usa4g-aal-bg95-ui-v1.0-6\main.c"
文件：main.c       编译器版本 HGASM 0202 页次7

 164  01B5  3400     E  	clr _MODEFLAG[0].3
 165  01B6              #line 165 "k:\55555555555555\test\saier-a600n-2260-usa4g-aal-bg95-ui-v1.0-6\main.c"
 165  01B6              	fcall _LCD_INIT_OFF
 166  01BD              #line 166 "k:\55555555555555\test\saier-a600n-2260-usa4g-aal-bg95-ui-v1.0-6\main.c"
 166  01BD  3400     E  	clr _Usflag[0].5
 168  01BE              #line 168 "k:\55555555555555\test\saier-a600n-2260-usa4g-aal-bg95-ui-v1.0-6\main.c"
 168  01BE  3400     E  	clr _Usflag[0].6
 168  01BF              _L17:
 173  01BF              #line 173 "k:\55555555555555\test\saier-a600n-2260-usa4g-aal-bg95-ui-v1.0-6\main.c"
 173  01BF  0700     E  	mov a,_keyval[0]
 173  01C0  0080     R  	mov _main_2[0],a
 173  01C1  0700     R  	mov a,_main_2[0]
 173  01C2  0A01        	sub a,1
 173  01C3  3D0A        	sz z
 173  01C4  2800     R  	jmp _L20
 173  01C5  0A01        	sub a,(2)-(1)
 173  01C6  3D0A        	sz z
 173  01C7  2800     R  	jmp _L21
 173  01C8  0700     R  	mov a,_main_2[0]
 173  01C9  0A03        	sub a,3
 173  01CA  3D0A        	sz z
 173  01CB  2800     R  	jmp _L22
 173  01CC  0A01        	sub a,(4)-(3)
 173  01CD  3D0A        	sz z
 173  01CE  2800     R  	jmp _L23
 173  01CF  0700     R  	mov a,_main_2[0]
 173  01D0  0A07        	sub a,7
 173  01D1  3D0A        	sz z
 173  01D2  2800     R  	jmp _L24
 173  01D3  0A01        	sub a,(8)-(7)
 173  01D4  3D0A        	sz z
 173  01D5  2800     R  	jmp _L25
 173  01D6  0700     R  	mov a,_main_2[0]
 173  01D7  0A0A        	sub a,10
 173  01D8  390A        	snz z
 173  01D9  2800     R  	jmp _L60
 356  01DA              #line 356 "k:\55555555555555\test\saier-a600n-2260-usa4g-aal-bg95-ui-v1.0-6\main.c"
 356  01DA  1F00     E  	clr _keyval[0]
 357  01DB              #line 357 "k:\55555555555555\test\saier-a600n-2260-usa4g-aal-bg95-ui-v1.0-6\main.c"
 357  01DB              	fcall _LCD_INIT_OFF
 358  01E2              #line 358 "k:\55555555555555\test\saier-a600n-2260-usa4g-aal-bg95-ui-v1.0-6\main.c"
 358  01E2  3400     E  	clr _MODEFLAG[0].3
 359  01E3              #line 359 "k:\55555555555555\test\saier-a600n-2260-usa4g-aal-bg95-ui-v1.0-6\main.c"
 359  01E3  3400     E  	clr _MODEFLAG[0].0
 360  01E4              #line 360 "k:\55555555555555\test\saier-a600n-2260-usa4g-aal-bg95-ui-v1.0-6\main.c"
 360  01E4  1800     E  	rla _MODEFLAG[0]
 360  01E5  0E01        	and a,1
 360  01E6  0080     E  	mov ra,a
 360  01E7  0F01        	mov a,1
 360  01E8  0480     E  	xorm a,ra
 360  01E9  1B80     E  	rrc ra
 360  01EA  1F00     E  	clr ra
 360  01EB  1B80     E  	rrc ra
 360  01EC  3400     E  	clr _MODEFLAG[0].7
 360  01ED  0700     E  	mov a,ra
 360  01EE  0580     E  	orm a,_MODEFLAG[0]
 361  01EF              #line 361 "k:\55555555555555\test\saier-a600n-2260-usa4g-aal-bg95-ui-v1.0-6\main.c"
 361  01EF  0700     E  	mov a,_MODEFLAG[0]
 361  01F0  0080     E  	mov ra,a
 369  01F1              #line 369 "k:\55555555555555\test\saier-a600n-2260-usa4g-aal-bg95-ui-v1.0-6\main.c"
文件：main.c       编译器版本 HGASM 0202 页次8

 369  01F1  1F00     E  	clr _disp_dia_2[0]
 369  01F2  1F00     E  	clr _disp_dia_2[1]
 369  01F3              	fcall _disp_dia
 379  01FA              #line 379 "k:\55555555555555\test\saier-a600n-2260-usa4g-aal-bg95-ui-v1.0-6\main.c"
 379  01FA  0F30        	mov a,48
 379  01FB  0080     E  	mov _Delay_ms_2[0],a
 379  01FC  0F75        	mov a,117
 379  01FD  0080     E  	mov _Delay_ms_2[1],a
 379  01FE  2800     R  	jmp _L65
 379  01FF              _L20:
 177  01FF              #line 177 "k:\55555555555555\test\saier-a600n-2260-usa4g-aal-bg95-ui-v1.0-6\main.c"
 177  01FF  1F00     E  	clr _keyval[0]
 178  0200              #line 178 "k:\55555555555555\test\saier-a600n-2260-usa4g-aal-bg95-ui-v1.0-6\main.c"
 178  0200  3C00     E  	sz _MODEFLAG[0].1
 178  0201  2800     R  	jmp _L27
 180  0202              #line 180 "k:\55555555555555\test\saier-a600n-2260-usa4g-aal-bg95-ui-v1.0-6\main.c"
 180  0202  3000     E  	set _Usflag[0].3
 181  0203              #line 181 "k:\55555555555555\test\saier-a600n-2260-usa4g-aal-bg95-ui-v1.0-6\main.c"
 181  0203              	fcall _LCD_INIT_ON
 187  020A              #line 187 "k:\55555555555555\test\saier-a600n-2260-usa4g-aal-bg95-ui-v1.0-6\main.c"
 187  020A  0F30        	mov a,48
 187  020B  0080     E  	mov _Delay_ms_2[0],a
 187  020C  0F75        	mov a,117
 187  020D  0080     E  	mov _Delay_ms_2[1],a
 187  020E              	fcall _Delay_ms
 189  0215              #line 189 "k:\55555555555555\test\saier-a600n-2260-usa4g-aal-bg95-ui-v1.0-6\main.c"
 189  0215  0FB9        	mov a,-71
 189  0216  C0B0 0003   	lmov [944],a
 189  0218  DF31 0003   	lclr [945]
 191  021A              #line 191 "k:\55555555555555\test\saier-a600n-2260-usa4g-aal-bg95-ui-v1.0-6\main.c"
 191  021A  34A7        	clr [39].1
 192  021B              #line 192 "k:\55555555555555\test\saier-a600n-2260-usa4g-aal-bg95-ui-v1.0-6\main.c"
 192  021B  0FB9        	mov a,-71
 192  021C  C0B0 0003   	lmov [944],a
 192  021E  DF31 0003   	lclr [945]
 193  0220              #line 193 "k:\55555555555555\test\saier-a600n-2260-usa4g-aal-bg95-ui-v1.0-6\main.c"
 193  0220  3000     E  	set _Usflag[0].0
 194  0221              #line 194 "k:\55555555555555\test\saier-a600n-2260-usa4g-aal-bg95-ui-v1.0-6\main.c"
 194  0221              	fcall _TEST_CON
 195  0228              #line 195 "k:\55555555555555\test\saier-a600n-2260-usa4g-aal-bg95-ui-v1.0-6\main.c"
 195  0228  3C00     E  	sz _Usflag[0].0
 195  0229  2800     R  	jmp _L28
 197  022A              #line 197 "k:\55555555555555\test\saier-a600n-2260-usa4g-aal-bg95-ui-v1.0-6\main.c"
 197  022A              	fcall _GSM_OFF
 197  0231              _L28:
 200  0231              #line 200 "k:\55555555555555\test\saier-a600n-2260-usa4g-aal-bg95-ui-v1.0-6\main.c"
 200  0231  3000     E  	set _MODEFLAG[0].1
 201  0232              #line 201 "k:\55555555555555\test\saier-a600n-2260-usa4g-aal-bg95-ui-v1.0-6\main.c"
 201  0232  3000     E  	set _MODEFLAG[0].0
 201  0233  2800     R  	jmp _L29
 201  0234              _L27:
 205  0234              #line 205 "k:\55555555555555\test\saier-a600n-2260-usa4g-aal-bg95-ui-v1.0-6\main.c"
 205  0234  3400     E  	clr _MODEFLAG[0].3
 206  0235              #line 206 "k:\55555555555555\test\saier-a600n-2260-usa4g-aal-bg95-ui-v1.0-6\main.c"
 206  0235  3400     E  	clr _MODEFLAG[0].0
 207  0236              #line 207 "k:\55555555555555\test\saier-a600n-2260-usa4g-aal-bg95-ui-v1.0-6\main.c"
 207  0236              	fcall _LCD_INIT_OFF
 207  023D              _L66:
 208  023D              #line 208 "k:\55555555555555\test\saier-a600n-2260-usa4g-aal-bg95-ui-v1.0-6\main.c"
 208  023D              	fcall _SBR_DISP_OFF_T_ON
文件：main.c       编译器版本 HGASM 0202 页次9

 209  0244              #line 209 "k:\55555555555555\test\saier-a600n-2260-usa4g-aal-bg95-ui-v1.0-6\main.c"
 209  0244  0F68        	mov a,104
 209  0245  C0EC 0003   	lmov [1004],a
 209  0247  0F42        	mov a,66
 209  0248  C0ED 0003   	lmov [1005],a
 210  024A              #line 210 "k:\55555555555555\test\saier-a600n-2260-usa4g-aal-bg95-ui-v1.0-6\main.c"
 210  024A  0F10        	mov a,16
 210  024B  0080     E  	mov _Delay_ms_2[0],a
 210  024C  0F27        	mov a,39
 210  024D  0080     E  	mov _Delay_ms_2[1],a
 210  024E              	fcall _Delay_ms
 210  0255              _L29:
 213  0255              #line 213 "k:\55555555555555\test\saier-a600n-2260-usa4g-aal-bg95-ui-v1.0-6\main.c"
 213  0255  1F00     E  	clr _KEYFLAG[0]
 213  0256  1F00     E  	clr _KEYFLAG[1]
 213  0257  2800     R  	jmp _L61
 213  0258              _L21:
 217  0258              #line 217 "k:\55555555555555\test\saier-a600n-2260-usa4g-aal-bg95-ui-v1.0-6\main.c"
 217  0258  1F00     E  	clr _keyval[0]
 218  0259              #line 218 "k:\55555555555555\test\saier-a600n-2260-usa4g-aal-bg95-ui-v1.0-6\main.c"
 218  0259  3000     E  	set _Usflag[0].3
 219  025A              #line 219 "k:\55555555555555\test\saier-a600n-2260-usa4g-aal-bg95-ui-v1.0-6\main.c"
 219  025A  3000     E  	set _MODEFLAG[0].3
 220  025B              #line 220 "k:\55555555555555\test\saier-a600n-2260-usa4g-aal-bg95-ui-v1.0-6\main.c"
 220  025B  3000     E  	set _MODEFLAG[0].0
 221  025C              #line 221 "k:\55555555555555\test\saier-a600n-2260-usa4g-aal-bg95-ui-v1.0-6\main.c"
 221  025C  3C00     E  	sz _Usflag[0].6
 221  025D  2800     R  	jmp _L63
 223  025E              #line 223 "k:\55555555555555\test\saier-a600n-2260-usa4g-aal-bg95-ui-v1.0-6\main.c"
 223  025E  3800     E  	snz _MODEFLAG[0].1
 223  025F  2800     R  	jmp _L31
 225  0260              #line 225 "k:\55555555555555\test\saier-a600n-2260-usa4g-aal-bg95-ui-v1.0-6\main.c"
 225  0260  1F00     E  	clr ra
 225  0261  3800     E  	snz _MODEFLAG[0].5
 225  0262  3000     E  	set ra.5
 225  0263  3400     E  	clr _MODEFLAG[0].5
 225  0264  0700     E  	mov a,ra
 225  0265  0580     E  	orm a,_MODEFLAG[0]
 225  0266  2800     R  	jmp _L32
 225  0267              _L31:
 229  0267              #line 229 "k:\55555555555555\test\saier-a600n-2260-usa4g-aal-bg95-ui-v1.0-6\main.c"
 229  0267  3000     E  	set _MODEFLAG[0].1
 229  0268              _L32:
 231  0268              #line 231 "k:\55555555555555\test\saier-a600n-2260-usa4g-aal-bg95-ui-v1.0-6\main.c"
 231  0268  3C00     E  	sz _MODEFLAG[0].5
 231  0269  2800     R  	jmp _L33
 233  026A              #line 233 "k:\55555555555555\test\saier-a600n-2260-usa4g-aal-bg95-ui-v1.0-6\main.c"
 233  026A              	fcall _SBR_DISP_DOT_U1_ON
 234  0271              #line 234 "k:\55555555555555\test\saier-a600n-2260-usa4g-aal-bg95-ui-v1.0-6\main.c"
 234  0271              	fcall _SBR_DISP_DOT_U2_OFF
 234  0278  2800     R  	jmp _L34
 234  0279              _L33:
 238  0279              #line 238 "k:\55555555555555\test\saier-a600n-2260-usa4g-aal-bg95-ui-v1.0-6\main.c"
 238  0279              	fcall _SBR_DISP_DOT_U1_OFF
 239  0280              #line 239 "k:\55555555555555\test\saier-a600n-2260-usa4g-aal-bg95-ui-v1.0-6\main.c"
 239  0280              	fcall _SBR_DISP_DOT_U2_ON
 239  0287              _L34:
 241  0287              #line 241 "k:\55555555555555\test\saier-a600n-2260-usa4g-aal-bg95-ui-v1.0-6\main.c"
 241  0287  DF6C 0003   	lclr [1004]
 241  0289  DF6D 0003   	lclr [1005]
文件：main.c       编译器版本 HGASM 0202 页次10

 241  028B  2800     R  	jmp _L9
 241  028C              _L22:
 250  028C              #line 250 "k:\55555555555555\test\saier-a600n-2260-usa4g-aal-bg95-ui-v1.0-6\main.c"
 250  028C  3000     E  	set _Usflag[0].3
 251  028D              #line 251 "k:\55555555555555\test\saier-a600n-2260-usa4g-aal-bg95-ui-v1.0-6\main.c"
 251  028D  3400     E  	clr _MODEFLAG[0].3
 252  028E              #line 252 "k:\55555555555555\test\saier-a600n-2260-usa4g-aal-bg95-ui-v1.0-6\main.c"
 252  028E  3400     E  	clr _MODEFLAG[0].0
 253  028F              #line 253 "k:\55555555555555\test\saier-a600n-2260-usa4g-aal-bg95-ui-v1.0-6\main.c"
 253  028F  3000     E  	set _Usflag[0].6
 254  0290              #line 254 "k:\55555555555555\test\saier-a600n-2260-usa4g-aal-bg95-ui-v1.0-6\main.c"
 254  0290              	fcall _SBR_READ_MEMORY
 255  0297              #line 255 "k:\55555555555555\test\saier-a600n-2260-usa4g-aal-bg95-ui-v1.0-6\main.c"
 255  0297  3800     E  	snz _KEYFLAG[0].0
 255  0298  2800     R  	jmp _L35
 257  0299              #line 257 "k:\55555555555555\test\saier-a600n-2260-usa4g-aal-bg95-ui-v1.0-6\main.c"
 257  0299  1F00     E  	clr _KEYFLAG[0]
 257  029A  1F00     E  	clr _KEYFLAG[1]
 258  029B              #line 258 "k:\55555555555555\test\saier-a600n-2260-usa4g-aal-bg95-ui-v1.0-6\main.c"
 258  029B  DF6C 0003   	lclr [1004]
 258  029D  DF6D 0003   	lclr [1005]
 259  029F              #line 259 "k:\55555555555555\test\saier-a600n-2260-usa4g-aal-bg95-ui-v1.0-6\main.c"
 259  029F  1F00     E  	clr ra
 259  02A0  3800     E  	snz _MODEFLAG[0].5
 259  02A1  3000     E  	set ra.5
 259  02A2  3400     E  	clr _MODEFLAG[0].5
 259  02A3  0700     E  	mov a,ra
 259  02A4  0580     E  	orm a,_MODEFLAG[0]
 259  02A5              _L63:
 260  02A5              #line 260 "k:\55555555555555\test\saier-a600n-2260-usa4g-aal-bg95-ui-v1.0-6\main.c"
 260  02A5  3000     E  	set _KEYFLAG[0].2
 260  02A6  2800     R  	jmp _L9
 260  02A7              _L35:
 264  02A7              #line 264 "k:\55555555555555\test\saier-a600n-2260-usa4g-aal-bg95-ui-v1.0-6\main.c"
 264  02A7              	fcall _LCD_INIT_OFF
 265  02AE              #line 265 "k:\55555555555555\test\saier-a600n-2260-usa4g-aal-bg95-ui-v1.0-6\main.c"
 265  02AE              	fcall _SBR_DISP_OFF_T_ON
 266  02B5              #line 266 "k:\55555555555555\test\saier-a600n-2260-usa4g-aal-bg95-ui-v1.0-6\main.c"
 266  02B5  0F68        	mov a,104
 266  02B6  C0EC 0003   	lmov [1004],a
 266  02B8  0F42        	mov a,66
 266  02B9  C0ED 0003   	lmov [1005],a
 267  02BB              #line 267 "k:\55555555555555\test\saier-a600n-2260-usa4g-aal-bg95-ui-v1.0-6\main.c"
 267  02BB  0F10        	mov a,16
 267  02BC  0080     E  	mov _Delay_ms_2[0],a
 267  02BD  0F27        	mov a,39
 267  02BE  0080     E  	mov _Delay_ms_2[1],a
 267  02BF              	fcall _Delay_ms
 268  02C6              #line 268 "k:\55555555555555\test\saier-a600n-2260-usa4g-aal-bg95-ui-v1.0-6\main.c"
 268  02C6  3400     E  	clr _Usflag[0].6
 268  02C7              _L62:
 269  02C7              #line 269 "k:\55555555555555\test\saier-a600n-2260-usa4g-aal-bg95-ui-v1.0-6\main.c"
 269  02C7  1F00     E  	clr _KEYFLAG[0]
 269  02C8  1F00     E  	clr _KEYFLAG[1]
 269  02C9  2800     R  	jmp _L9
 269  02CA              _L23:
 273  02CA              #line 273 "k:\55555555555555\test\saier-a600n-2260-usa4g-aal-bg95-ui-v1.0-6\main.c"
 273  02CA  1F00     E  	clr _keyval[0]
 274  02CB              #line 274 "k:\55555555555555\test\saier-a600n-2260-usa4g-aal-bg95-ui-v1.0-6\main.c"
 274  02CB  3400     E  	clr _MODEFLAG[0].3
文件：main.c       编译器版本 HGASM 0202 页次11

 275  02CC              #line 275 "k:\55555555555555\test\saier-a600n-2260-usa4g-aal-bg95-ui-v1.0-6\main.c"
 275  02CC  3400     E  	clr _MODEFLAG[0].0
 276  02CD              #line 276 "k:\55555555555555\test\saier-a600n-2260-usa4g-aal-bg95-ui-v1.0-6\main.c"
 276  02CD              	fcall _GAUGE
 276  02D4  2800     R  	jmp _L67
 276  02D5              _L24:
 318  02D5              #line 318 "k:\55555555555555\test\saier-a600n-2260-usa4g-aal-bg95-ui-v1.0-6\main.c"
 318  02D5  1F00     E  	clr _keyval[0]
 319  02D6              #line 319 "k:\55555555555555\test\saier-a600n-2260-usa4g-aal-bg95-ui-v1.0-6\main.c"
 319  02D6              	fcall _LCD_INIT_OFF
 320  02DD              #line 320 "k:\55555555555555\test\saier-a600n-2260-usa4g-aal-bg95-ui-v1.0-6\main.c"
 320  02DD  3400     E  	clr _MODEFLAG[0].3
 320  02DE              _L37:
 321  02DE              #line 321 "k:\55555555555555\test\saier-a600n-2260-usa4g-aal-bg95-ui-v1.0-6\main.c"
 321  02DE  3994        	snz [20].3
 321  02DF  2800     R  	jmp _L37
 322  02E0              #line 322 "k:\55555555555555\test\saier-a600n-2260-usa4g-aal-bg95-ui-v1.0-6\main.c"
 322  02E0  DF6C 0003   	lclr [1004]
 322  02E2  DF6D 0003   	lclr [1005]
 323  02E4              #line 323 "k:\55555555555555\test\saier-a600n-2260-usa4g-aal-bg95-ui-v1.0-6\main.c"
 323  02E4  0F64        	mov a,100
 323  02E5  0080     E  	mov _disp_sys_2[0],a
 323  02E6  1F00     E  	clr _disp_sys_2[1]
 323  02E7              	fcall _disp_sys
 323  02EE              _L39:
 324  02EE              #line 324 "k:\55555555555555\test\saier-a600n-2260-usa4g-aal-bg95-ui-v1.0-6\main.c"
 324  02EE  3E14        	sz [20].4
 324  02EF  2800     R  	jmp _L38
 324  02F0  0F57        	mov a,87
 324  02F1  C26C 0003   	lsub a,[1004]
 324  02F3  0F02        	mov a,2
 324  02F4  D26D 0003   	lsbc a,[1005]
 324  02F6  3C0A        	sz c
 324  02F7  2800     R  	jmp _L39
 324  02F8              _L38:
 328  02F8              #line 328 "k:\55555555555555\test\saier-a600n-2260-usa4g-aal-bg95-ui-v1.0-6\main.c"
 328  02F8  0F4D        	mov a,77
 328  02F9  C26C 0003   	lsub a,[1004]
 328  02FB  0F02        	mov a,2
 328  02FC  D26D 0003   	lsbc a,[1005]
 328  02FE  3C0A        	sz c
 328  02FF  2800     R  	jmp _L40
 330  0300              #line 330 "k:\55555555555555\test\saier-a600n-2260-usa4g-aal-bg95-ui-v1.0-6\main.c"
 330  0300  3400     E  	clr _MODEFLAG[0].5
 331  0301              #line 331 "k:\55555555555555\test\saier-a600n-2260-usa4g-aal-bg95-ui-v1.0-6\main.c"
 331  0301  3400     E  	clr _MODEFLAG[0].0
 332  0302              #line 332 "k:\55555555555555\test\saier-a600n-2260-usa4g-aal-bg95-ui-v1.0-6\main.c"
 332  0302              	fcall _STUDY_PRE
 333  0309              #line 333 "k:\55555555555555\test\saier-a600n-2260-usa4g-aal-bg95-ui-v1.0-6\main.c"
 333  0309              	fcall _STUDY_PRE1
 334  0310              #line 334 "k:\55555555555555\test\saier-a600n-2260-usa4g-aal-bg95-ui-v1.0-6\main.c"
 334  0310              	fcall _STUDY_PRE2
 335  0317              #line 335 "k:\55555555555555\test\saier-a600n-2260-usa4g-aal-bg95-ui-v1.0-6\main.c"
 335  0317              	fcall _STUDY_PRE3
 336  031E              #line 336 "k:\55555555555555\test\saier-a600n-2260-usa4g-aal-bg95-ui-v1.0-6\main.c"
 336  031E  0F10        	mov a,16
 336  031F  0080     E  	mov _Delay_ms_2[0],a
 336  0320  0F27        	mov a,39
 336  0321  0080     E  	mov _Delay_ms_2[1],a
 336  0322              	fcall _Delay_ms
文件：main.c       编译器版本 HGASM 0202 页次12

 337  0329              #line 337 "k:\55555555555555\test\saier-a600n-2260-usa4g-aal-bg95-ui-v1.0-6\main.c"
 337  0329  1F00     E  	clr _KEYFLAG[0]
 337  032A  1F00     E  	clr _KEYFLAG[1]
 338  032B              #line 338 "k:\55555555555555\test\saier-a600n-2260-usa4g-aal-bg95-ui-v1.0-6\main.c"
 338  032B  3400     E  	clr _Usflag[0].5
 338  032C              _L40:
 340  032C              #line 340 "k:\55555555555555\test\saier-a600n-2260-usa4g-aal-bg95-ui-v1.0-6\main.c"
 340  032C              	fcall _LCD_INIT_OFF
 341  0333              #line 341 "k:\55555555555555\test\saier-a600n-2260-usa4g-aal-bg95-ui-v1.0-6\main.c"
 341  0333  0F68        	mov a,104
 341  0334  C0EC 0003   	lmov [1004],a
 341  0336  0F42        	mov a,66
 341  0337  C0ED 0003   	lmov [1005],a
 342  0339              #line 342 "k:\55555555555555\test\saier-a600n-2260-usa4g-aal-bg95-ui-v1.0-6\main.c"
 342  0339  2800     R  	jmp _L9
 342  033A              _L25:
 344  033A              #line 344 "k:\55555555555555\test\saier-a600n-2260-usa4g-aal-bg95-ui-v1.0-6\main.c"
 344  033A  1F00     E  	clr _keyval[0]
 345  033B              #line 345 "k:\55555555555555\test\saier-a600n-2260-usa4g-aal-bg95-ui-v1.0-6\main.c"
 345  033B  3400     E  	clr _MODEFLAG[0].3
 346  033C              #line 346 "k:\55555555555555\test\saier-a600n-2260-usa4g-aal-bg95-ui-v1.0-6\main.c"
 346  033C  3400     E  	clr _MODEFLAG[0].0
 347  033D              #line 347 "k:\55555555555555\test\saier-a600n-2260-usa4g-aal-bg95-ui-v1.0-6\main.c"
 347  033D              	fcall _DISP_SN
 347  0344              _L67:
 348  0344              #line 348 "k:\55555555555555\test\saier-a600n-2260-usa4g-aal-bg95-ui-v1.0-6\main.c"
 348  0344  0FE8        	mov a,-24
 348  0345  0080     E  	mov _Delay_ms_2[0],a
 348  0346  0F03        	mov a,3
 348  0347  0080     E  	mov _Delay_ms_2[1],a
 348  0348              _L65:
 379  0348              #line 379 "k:\55555555555555\test\saier-a600n-2260-usa4g-aal-bg95-ui-v1.0-6\main.c"
 379  0348              	fcall _Delay_ms
 379  034F  2800     R  	jmp _L66
 379  0350              _L60:
 408  0350              #line 408 "k:\55555555555555\test\saier-a600n-2260-usa4g-aal-bg95-ui-v1.0-6\main.c"
 408  0350  1F00     E  	clr _keyval[0]
 409  0351              #line 409 "k:\55555555555555\test\saier-a600n-2260-usa4g-aal-bg95-ui-v1.0-6\main.c"
 409  0351  2800     R  	jmp _L9
 409  0352  2800     R  	jmp $
 409  0353              _main endp
 409  0353              
 409  0353              @dummy endp
 409  0353              
 409  0353              #line 409 "k:\55555555555555\test\saier-a600n-2260-usa4g-aal-bg95-ui-v1.0-6\main.c"
 409  0353              #pragma debug scope 1 1
 409  0353              #pragma debug struct_end
 409  0353              #pragma debug struct_end
 409  0353              #pragma debug union_end
 409  0353              #pragma debug union_end
 409  0353              #pragma debug variable 43 1 ___pa "__pa" 1
 409  0353              #pragma debug struct_end
 409  0353              #pragma debug struct_end
 409  0353              #pragma debug union_end
 409  0353              #pragma debug union_end
 409  0353              #pragma debug variable 45 1 ___intc0 "__intc0" 1
 409  0353              #pragma debug struct_end
 409  0353              #pragma debug struct_end
 409  0353              #pragma debug union_end
 409  0353              #pragma debug union_end
文件：main.c       编译器版本 HGASM 0202 页次13

 409  0353              #pragma debug variable 47 1 ___pc "__pc" 1
 409  0353              #pragma debug struct_end
 409  0353              #pragma debug struct_end
 409  0353              #pragma debug union_end
 409  0353              #pragma debug union_end
 409  0353              #pragma debug variable 49 1 ___pe "__pe" 1
 409  0353              #pragma debug variable 10 1 _OLD_PRE_SYS "OLD_PRE_SYS" 2
 409  0353              #pragma debug variable 10 1 _OLD_PRE_DIA "OLD_PRE_DIA" 2
 409  0353              #pragma debug variable 10 1 _close_time "close_time" 2
 409  0353              #pragma debug variable 10 1 _close_time1 "close_time1" 2
 409  0353              #pragma debug variable 10 1 _PUMPPRE "PUMPPRE" 2
 409  0353              
 409  0353              ; output external variables
 409  0353              extern _keyval:byte
 409  0353              extern _R_alarm_clock:byte
 409  0353              extern _Usflag:byte
 409  0353              extern _MODEFLAG:byte
 409  0353              extern _KEYFLAG:byte
   9  0353              #line 9 "k:\55555555555555\test\saier-a600n-2260-usa4g-aal-bg95-ui-v1.0-6\main.c"
   9  0000              @code .section at 0 'code'
   9  0000  1F0B        	clr bp
   9  0001  2800     R  	jmp _main_startup1
   9  0002              
   9  0002              extern _Ram_Init:near
   9  0002              extern _INT_SYSTEM:near
   9  0002              extern _INT_POWER:near
   9  0002              extern _INT_IO:near
   9  0002              extern _Uart_Init:near
   9  0002              extern _INT_LCD:near
   9  0002              extern _INT_OP1:near
   9  0002              extern _INT_OP:near
   9  0002              extern _INT_AD:near
   9  0002              extern _INT_TMR:near
   9  0002              extern _INT_INTP:near
   9  0002              extern _Init_val:near
   9  0002              extern _FUN_INT1_2_INIT:near
   9  0002              extern _SBR_INI_TIMEBASE:near
   9  0002              extern _INT_DATE_TIME:near
   9  0002              extern _LCD_INIT_ON:near
   9  0002              extern _STUDY_PRE:near
   9  0002              extern _STUDY_PRE1:near
   9  0002              extern _STUDY_PRE2:near
   9  0002              extern _STUDY_PRE3:near
   9  0002              extern _Delay_ms_2:byte
   9  0002              extern _Delay_ms:near
   9  0002              extern _LCD_INIT_OFF:near
   9  0002              extern _SBR_UPDATE_TIME:near
   9  0002              extern _SBR_UPDATE_BTT:near
   9  0002              extern _key_scan:near
   9  0002              extern _SBR_ENTER_HALTMODE:near
   9  0002              extern _disp_dia_2:byte
   9  0002              extern _disp_dia:near
   9  0002              extern _TEST_CON:near
   9  0002              extern _GSM_OFF:near
   9  0002              extern _SBR_DISP_OFF_T_ON:near
   9  0002              extern _SBR_DISP_DOT_U1_ON:near
   9  0002              extern _SBR_DISP_DOT_U2_OFF:near
   9  0002              extern _SBR_DISP_DOT_U1_OFF:near
   9  0002              extern _SBR_DISP_DOT_U2_ON:near
   9  0002              extern _SBR_READ_MEMORY:near
文件：main.c       编译器版本 HGASM 0202 页次14

   9  0002              extern _GAUGE:near
   9  0002              extern _disp_sys_2:byte
   9  0002              extern _disp_sys:near
   9  0002              extern _DISP_SN:near
   9  0002              
   9  0002              ; 
   9  0002              ; Generated by holtek-gcc v3.19, Tue Jul 26 12:07:00 2022
   9  0002              ; Rebuild 718
   9  0002              ; end of file


        0 Errors, 0