文件：pressure1.c  编译器版本 HGASM 0202 页次1


   1  0000              ; Generated by holtek-gcc v3.19, Fri Jun 24 18:25:13 2022
   2  0000              ; 
   3  0000              ; Configuration:
   4  0000              ;       with long instruction
   5  0000              ;       Multi-ROM, Multi-RAM
   6  0000              ;       bits_per_rom_unit:16
   7  0000              ;       with mp1
   8  0000              ;       with tbhp, address(0x9)
   9  0000              ;          Use tabrd-const
  10  0000              ;       
  11  0000              ; SFR address of long-instruction arch:
  12  0000              ;    mp0 = -1,1,0
  13  0000              ;    mp1 = 4,3,2
  14  0000              ;    mp2 = 14,13,12
  15  0000              ;    tbp = 9,7,8
  16  0000              ;    acc = 5
  17  0000              ;    pcl = 6
  18  0000              ;    status = 10
  19  0000              ;    bp = 11
  20  0000              ;    intc = 32
  21  0000              ;       
  22  0000              ;       
  23  0000              ; use 'tabrdc' instead of 'tabrd'
  24  0000              ;       
  25  0000              
  26  0000              #pragma translator "holtek-gcc 4.6.4" "3.19" "build 20130711"
  27  0000              ; Rebuild 718
  28  0000              
  29  0000              ir equ [2]
  30  0000              mp equ [3]
  31  0000              sbp equ [4]
  32  0000              acc equ [5]
  33  0000              bp equ [11]
  34  0000              tblp equ [7]
  35  0000              tbhp equ [9]
  36  0000              status equ [10]
  37  0000              c equ [10].0
  38  0000              ac equ [10].1
  39  0000              z equ [10].2
  40  0000              ov equ [10].3
  41  0000              cz equ [10].6
  42  0000              sc equ [10].7
  43  0000              intc equ [32]
  44  0000              
  45  0000              extern ra:byte
  46  0000              extern rb:byte
  47  0000              extern rc:byte
  48  0000              extern rd:byte
  49  0000              extern re:byte
  50  0000              extern rf:byte
  51  0000              extern rg:byte
  52  0000              extern rh:byte
  53  0000              extern _Crom2Prom:near
  54  0000              extern _Crom2PromNext:near
  55  0000              
  56  0000              RAMBANK 0 @BITDATASEC, @BITDATASEC1
  57  0000              @HCCINIT	.section 'data'
  58  0000              @HCCINIT0	.section 'data'
  59  0000              @BITDATASEC	 .section 'data'
文件：pressure1.ASM 编译器版本 HGASM 0202 页次2

  60  0000              @BITDATASEC1	 .section 'data'
  61  0000              
  62  0000              #pragma debug scope 1 1
  63  0000              	extern __DELAY3:near
  64  0000              	extern __DELAYX3:near
  65  0000              	extern __DELAYX6:near
  66  0000              	extern __DELAYY5:near
  67  0000              	extern __DELAYY3:near
  68  0000              	extern _builtin_holtek_delay_2:byte
  69  0000              _SEG equ [1024]
  70  0000              public _dis_down
  71  0000              #pragma debug scope 2 1

  13  0000              #line 13 "C:\Users\Administrator\Desktop\123\4g\2\Saier-A600N-2260-USA4G-AAL-BG95-UI-V1.0\pressure1.c"
  13  0000              _dis_down .section 'code'
  13  0000              _dis_down proc
  14  0000              #line 14 "C:\Users\Administrator\Desktop\123\4g\2\Saier-A600N-2260-USA4G-AAL-BG95-UI-V1.0\pressure1.c"
  14  0000  B096 0004   	lset [1046].1
  14  0002  0003        	ret
  14  0003              _dis_down endp
  14  0003              #line 14 "C:\Users\Administrator\Desktop\123\4g\2\Saier-A600N-2260-USA4G-AAL-BG95-UI-V1.0\pressure1.c"
  14  0003              #pragma debug scope 1 1
  14  0003              _ELE_CNT equ [950]
  14  0003              _counter9ms equ [956]
  14  0003              _P0_BUF equ [954]
  14  0003              _pwm_val1 equ [958]
  14  0003              _PUMPPRE equ [944]
  14  0003              _WAVE_count equ [965]
  14  0003              _M1_PH equ [972]
  14  0003              _MAXIHB equ [1021]
  14  0003              _OLD_PRE_SYS equ [1016]
  14  0003              _P1VAL_B equ [985]
  14  0003              _PLSFTM equ [916]
  14  0003              _M1_PL equ [973]
  14  0003              _OLD_M1_PL equ [974]
  14  0003              _OLD_M1_PH equ [975]
  14  0003              _dowm_time equ [976]
  14  0003              _PLSCNT equ [963]
  14  0003              public _DEFLATION
  14  0003              #pragma debug scope 3 1
  17  0003              #line 17 "C:\Users\Administrator\Desktop\123\4g\2\Saier-A600N-2260-USA4G-AAL-BG95-UI-V1.0\pressure1.c"
  17  0000              _DEFLATION .section 'code'
  17  0000              _DEFLATION proc
  17  0000  0002[           local _DEFLATION_2 db 2 dup(?)	; 0,2
            00
            ]
  17  0002              #pragma debug variable 8 3 _DEFLATION_2+1 "tmode"
  17  0002              #pragma debug variable 8 3 _DEFLATION_2+0 "modetime"
  21  0002              #line 21 "C:\Users\Administrator\Desktop\123\4g\2\Saier-A600N-2260-USA4G-AAL-BG95-UI-V1.0\pressure1.c"
  21  0000  DF36 0003   	lclr [950]
  21  0002  DF37 0003   	lclr [951]
  22  0004              #line 22 "C:\Users\Administrator\Desktop\123\4g\2\Saier-A600N-2260-USA4G-AAL-BG95-UI-V1.0\pressure1.c"
  22  0004  DF3C 0003   	lclr [956]
  22  0006  DF3D 0003   	lclr [957]
  23  0008              #line 23 "C:\Users\Administrator\Desktop\123\4g\2\Saier-A600N-2260-USA4G-AAL-BG95-UI-V1.0\pressure1.c"
  23  0008  0700     E  	mov a,_pres_avl[0]
  23  0009  C0BA 0003   	lmov [954],a
  23  000B  0700     E  	mov a,_pres_avl[1]
  23  000C  C0BB 0003   	lmov [955],a
  25  000E              #line 25 "C:\Users\Administrator\Desktop\123\4g\2\Saier-A600N-2260-USA4G-AAL-BG95-UI-V1.0\pressure1.c"
文件：pressure1.c  编译器版本 HGASM 0202 页次3

  25  000E  1F00     E  	clr _disp_dia_2[0]
  25  000F  1F00     E  	clr _disp_dia_2[1]
  25  0010              	fcall _disp_dia
  27  0017              #line 27 "C:\Users\Administrator\Desktop\123\4g\2\Saier-A600N-2260-USA4G-AAL-BG95-UI-V1.0\pressure1.c"
  27  0017              	fcall _SBR_DISP_DOT_JIA_ON
  28  001E              #line 28 "C:\Users\Administrator\Desktop\123\4g\2\Saier-A600N-2260-USA4G-AAL-BG95-UI-V1.0\pressure1.c"
  28  001E              	fcall _SBR_DISP_DOT_JIAN_OFF
  30  0025              #line 30 "C:\Users\Administrator\Desktop\123\4g\2\Saier-A600N-2260-USA4G-AAL-BG95-UI-V1.0\pressure1.c"
  30  0025  0F8A        	mov a,-118
  30  0026  C0BE 0003   	lmov [958],a
  30  0028  0F02        	mov a,2
  30  0029  C0BF 0003   	lmov [959],a
  31  002B              #line 31 "C:\Users\Administrator\Desktop\123\4g\2\Saier-A600N-2260-USA4G-AAL-BG95-UI-V1.0\pressure1.c"
  31  002B  C73E 0003   	lmov a,[958]
  31  002D  0080     E  	mov _PWMGVAL1_2[0],a
  31  002E  C73F 0003   	lmov a,[959]
  31  0030  0080     E  	mov _PWMGVAL1_2[1],a
  31  0031              	fcall _PWMGVAL1
  33  0038              #line 33 "C:\Users\Administrator\Desktop\123\4g\2\Saier-A600N-2260-USA4G-AAL-BG95-UI-V1.0\pressure1.c"
  33  0038              	fcall _STP_PUMP_ON
  34  003F              #line 34 "C:\Users\Administrator\Desktop\123\4g\2\Saier-A600N-2260-USA4G-AAL-BG95-UI-V1.0\pressure1.c"
  34  003F  DF36 0003   	lclr [950]
  34  0041  DF37 0003   	lclr [951]
  34  0043              _L8:
  35  0043              #line 35 "C:\Users\Administrator\Desktop\123\4g\2\Saier-A600N-2260-USA4G-AAL-BG95-UI-V1.0\pressure1.c"
  35  0043  C73A 0003   	lmov a,[954]
  35  0045  C230 0003   	lsub a,[944]
  35  0047  C73B 0003   	lmov a,[955]
  35  0049  D231 0003   	lsbc a,[945]
  35  004B  3C0A        	sz c
  35  004C  2800     R  	jmp _L42
  37  004D              #line 37 "C:\Users\Administrator\Desktop\123\4g\2\Saier-A600N-2260-USA4G-AAL-BG95-UI-V1.0\pressure1.c"
  37  004D  C73E 0003   	lmov a,[958]
  37  004F  0080     E  	mov _PWMGVAL1_2[0],a
  37  0050  C73F 0003   	lmov a,[959]
  37  0052  0080     E  	mov _PWMGVAL1_2[1],a
  37  0053              	fcall _PWMGVAL1
  38  005A              #line 38 "C:\Users\Administrator\Desktop\123\4g\2\Saier-A600N-2260-USA4G-AAL-BG95-UI-V1.0\pressure1.c"
  38  005A  D4B6 0003   	linc [950]
  38  005C  3D0A        	sz z
  38  005D  D4B7 0003   	linc [951]
  39  005F              #line 39 "C:\Users\Administrator\Desktop\123\4g\2\Saier-A600N-2260-USA4G-AAL-BG95-UI-V1.0\pressure1.c"
  39  005F  0F6F        	mov a,111
  39  0060  C236 0003   	lsub a,[950]
  39  0062  0F17        	mov a,23
  39  0063  D237 0003   	lsbc a,[951]
  39  0065  3C0A        	sz c
  39  0066  2800     R  	jmp _L4
  41  0067              #line 41 "C:\Users\Administrator\Desktop\123\4g\2\Saier-A600N-2260-USA4G-AAL-BG95-UI-V1.0\pressure1.c"
  41  0067  DF36 0003   	lclr [950]
  41  0069  DF37 0003   	lclr [951]
  42  006B              #line 42 "C:\Users\Administrator\Desktop\123\4g\2\Saier-A600N-2260-USA4G-AAL-BG95-UI-V1.0\pressure1.c"
  42  006B  C73A 0003   	lmov a,[954]
  42  006D  0080     E  	mov _disp_dia_2[0],a
  42  006E  C73B 0003   	lmov a,[955]
  42  0070  0080     E  	mov _disp_dia_2[1],a
  42  0071              	fcall _disp_dia
  43  0078              #line 43 "C:\Users\Administrator\Desktop\123\4g\2\Saier-A600N-2260-USA4G-AAL-BG95-UI-V1.0\pressure1.c"
  43  0078  0F36        	mov a,54
  43  0079  C23C 0003   	lsub a,[956]
文件：pressure1.c  编译器版本 HGASM 0202 页次4

  43  007B  0F13        	mov a,19
  43  007C  D23D 0003   	lsbc a,[957]
  43  007E  380A        	snz c
  43  007F  2800     R  	jmp _L40
  43  0080              _L4:
  50  0080              #line 50 "C:\Users\Administrator\Desktop\123\4g\2\Saier-A600N-2260-USA4G-AAL-BG95-UI-V1.0\pressure1.c"
  50  0080  0700     E  	mov a,_pres_avl[0]
  50  0081  C0BA 0003   	lmov [954],a
  50  0083  0700     E  	mov a,_pres_avl[1]
  50  0084  C0BB 0003   	lmov [955],a
  51  0086              #line 51 "C:\Users\Administrator\Desktop\123\4g\2\Saier-A600N-2260-USA4G-AAL-BG95-UI-V1.0\pressure1.c"
  51  0086              	fcall _key_scan
  51  008D  0080     E  	mov ra,a
  51  008E  0700     E  	mov a,ra
  51  008F  0080     E  	mov _keyval[0],a
  52  0090              #line 52 "C:\Users\Administrator\Desktop\123\4g\2\Saier-A600N-2260-USA4G-AAL-BG95-UI-V1.0\pressure1.c"
  52  0090  1700     E  	sdza _keyval[0]
  52  0091  2800     R  	jmp _L6
  55  0092              #line 55 "C:\Users\Administrator\Desktop\123\4g\2\Saier-A600N-2260-USA4G-AAL-BG95-UI-V1.0\pressure1.c"
  55  0092  1F00     E  	clr _keyval[0]
  56  0093              #line 56 "C:\Users\Administrator\Desktop\123\4g\2\Saier-A600N-2260-USA4G-AAL-BG95-UI-V1.0\pressure1.c"
  56  0093  3000     E  	set _ERFLAG[0].7
  57  0094              #line 57 "C:\Users\Administrator\Desktop\123\4g\2\Saier-A600N-2260-USA4G-AAL-BG95-UI-V1.0\pressure1.c"
  57  0094  2800     R  	jmp _L2
  57  0095              _L6:
  59  0095              #line 59 "C:\Users\Administrator\Desktop\123\4g\2\Saier-A600N-2260-USA4G-AAL-BG95-UI-V1.0\pressure1.c"
  59  0095  0700     E  	mov a,_keyval[0]
  59  0096  0A02        	sub a,2
  59  0097  390A        	snz z
  59  0098  2800     R  	jmp _L8
  63  0099              #line 63 "C:\Users\Administrator\Desktop\123\4g\2\Saier-A600N-2260-USA4G-AAL-BG95-UI-V1.0\pressure1.c"
  63  0099  1F00     E  	clr _keyval[0]
  65  009A              #line 65 "C:\Users\Administrator\Desktop\123\4g\2\Saier-A600N-2260-USA4G-AAL-BG95-UI-V1.0\pressure1.c"
  65  009A  1F00     E  	clr ra
  65  009B  3800     E  	snz _MODEFLAG[0].5
  65  009C  3000     E  	set ra.5
  65  009D  3400     E  	clr _MODEFLAG[0].5
  65  009E  0700     E  	mov a,ra
  65  009F  0580     E  	orm a,_MODEFLAG[0]
  66  00A0              #line 66 "C:\Users\Administrator\Desktop\123\4g\2\Saier-A600N-2260-USA4G-AAL-BG95-UI-V1.0\pressure1.c"
  66  00A0  3800     E  	snz _MODEFLAG[0].5
  66  00A1  2800     R  	jmp _L9
  68  00A2              #line 68 "C:\Users\Administrator\Desktop\123\4g\2\Saier-A600N-2260-USA4G-AAL-BG95-UI-V1.0\pressure1.c"
  68  00A2              	fcall _SBR_DISP_DOT_U1_OFF
  69  00A9              #line 69 "C:\Users\Administrator\Desktop\123\4g\2\Saier-A600N-2260-USA4G-AAL-BG95-UI-V1.0\pressure1.c"
  69  00A9              	fcall _SBR_DISP_DOT_U2_ON
  69  00B0  2800     R  	jmp _L8
  69  00B1              _L9:
  73  00B1              #line 73 "C:\Users\Administrator\Desktop\123\4g\2\Saier-A600N-2260-USA4G-AAL-BG95-UI-V1.0\pressure1.c"
  73  00B1              	fcall _SBR_DISP_DOT_U1_ON
  74  00B8              #line 74 "C:\Users\Administrator\Desktop\123\4g\2\Saier-A600N-2260-USA4G-AAL-BG95-UI-V1.0\pressure1.c"
  74  00B8              	fcall _SBR_DISP_DOT_U2_OFF
  74  00BF  2800     R  	jmp _L8
  74  00C0              _L42:
  82  00C0              #line 82 "C:\Users\Administrator\Desktop\123\4g\2\Saier-A600N-2260-USA4G-AAL-BG95-UI-V1.0\pressure1.c"
  82  00C0              	fcall _SBR_DISP_DOT_JIA_OFF
  82  00C7              #pragma debug scope 4 3
  82  00C7              ;begin block, line: 82.-1
  82  00C7              #pragma debug scope 5 4
  82  00C7              ;begin block, line: 82.-1
文件：pressure1.c  编译器版本 HGASM 0202 页次5

  14  00C7              #line 14 "C:\Users\Administrator\Desktop\123\4g\2\Saier-A600N-2260-USA4G-AAL-BG95-UI-V1.0\pressure1.c"
  14  00C7  B096 0004   	lset [1046].1
  14  00C9              #pragma debug scope 4 3
  14  00C9              #pragma debug scope 3 1
  84  00C9              #line 84 "C:\Users\Administrator\Desktop\123\4g\2\Saier-A600N-2260-USA4G-AAL-BG95-UI-V1.0\pressure1.c"
  84  00C9              	fcall _STP_PUMP_OFF
  85  00D0              #line 85 "C:\Users\Administrator\Desktop\123\4g\2\Saier-A600N-2260-USA4G-AAL-BG95-UI-V1.0\pressure1.c"
  85  00D0  DF45 0003   	lclr [965]
  86  00D2              #line 86 "C:\Users\Administrator\Desktop\123\4g\2\Saier-A600N-2260-USA4G-AAL-BG95-UI-V1.0\pressure1.c"
  86  00D2  DF3C 0003   	lclr [956]
  86  00D4  DF3D 0003   	lclr [957]
  87  00D6              #line 87 "C:\Users\Administrator\Desktop\123\4g\2\Saier-A600N-2260-USA4G-AAL-BG95-UI-V1.0\pressure1.c"
  87  00D6  DF4C 0003   	lclr [972]
  88  00D8              #line 88 "C:\Users\Administrator\Desktop\123\4g\2\Saier-A600N-2260-USA4G-AAL-BG95-UI-V1.0\pressure1.c"
  88  00D8  0700     E  	mov a,_pres_avl[0]
  88  00D9  C0BA 0003   	lmov [954],a
  88  00DB  0700     E  	mov a,_pres_avl[1]
  88  00DC  C0BB 0003   	lmov [955],a
  89  00DE              #line 89 "C:\Users\Administrator\Desktop\123\4g\2\Saier-A600N-2260-USA4G-AAL-BG95-UI-V1.0\pressure1.c"
  89  00DE  DF36 0003   	lclr [950]
  89  00E0  DF37 0003   	lclr [951]
  90  00E2              #line 90 "C:\Users\Administrator\Desktop\123\4g\2\Saier-A600N-2260-USA4G-AAL-BG95-UI-V1.0\pressure1.c"
  90  00E2  DF3C 0003   	lclr [956]
  90  00E4  DF3D 0003   	lclr [957]
  91  00E6              #line 91 "C:\Users\Administrator\Desktop\123\4g\2\Saier-A600N-2260-USA4G-AAL-BG95-UI-V1.0\pressure1.c"
  91  00E6  0700     E  	mov a,_pres_avl[0]
  91  00E7  C0BA 0003   	lmov [954],a
  91  00E9  0700     E  	mov a,_pres_avl[1]
  91  00EA  C0BB 0003   	lmov [955],a
  92  00EC              #line 92 "C:\Users\Administrator\Desktop\123\4g\2\Saier-A600N-2260-USA4G-AAL-BG95-UI-V1.0\pressure1.c"
  92  00EC  DF7D 0003   	lclr [1021]
  93  00EE              #line 93 "C:\Users\Administrator\Desktop\123\4g\2\Saier-A600N-2260-USA4G-AAL-BG95-UI-V1.0\pressure1.c"
  93  00EE  DF78 0003   	lclr [1016]
  93  00F0  DF79 0003   	lclr [1017]
  18  00F2              #line 18 "C:\Users\Administrator\Desktop\123\4g\2\Saier-A600N-2260-USA4G-AAL-BG95-UI-V1.0\pressure1.c"
  18  00F2  1F00     R  	clr _DEFLATION_2[0]
  18  00F3  1F00     R  	clr _DEFLATION_2[1]
  18  00F4              _L29:
  96  00F4              #line 96 "C:\Users\Administrator\Desktop\123\4g\2\Saier-A600N-2260-USA4G-AAL-BG95-UI-V1.0\pressure1.c"
  96  00F4  0700     E  	mov a,_pres_avl[0]
  96  00F5  C0BA 0003   	lmov [954],a
  96  00F7  0700     E  	mov a,_pres_avl[1]
  96  00F8  C0BB 0003   	lmov [955],a
  97  00FA              #line 97 "C:\Users\Administrator\Desktop\123\4g\2\Saier-A600N-2260-USA4G-AAL-BG95-UI-V1.0\pressure1.c"
  97  00FA  D4B6 0003   	linc [950]
  97  00FC  3D0A        	sz z
  97  00FD  D4B7 0003   	linc [951]
  98  00FF              #line 98 "C:\Users\Administrator\Desktop\123\4g\2\Saier-A600N-2260-USA4G-AAL-BG95-UI-V1.0\pressure1.c"
  98  00FF  0F6F        	mov a,111
  98  0100  C236 0003   	lsub a,[950]
  98  0102  0F17        	mov a,23
  98  0103  D237 0003   	lsbc a,[951]
  98  0105  3C0A        	sz c
  98  0106  2800     R  	jmp _L12
 100  0107              #line 100 "C:\Users\Administrator\Desktop\123\4g\2\Saier-A600N-2260-USA4G-AAL-BG95-UI-V1.0\pressure1.c"
 100  0107  DF36 0003   	lclr [950]
 100  0109  DF37 0003   	lclr [951]
 101  010B              #line 101 "C:\Users\Administrator\Desktop\123\4g\2\Saier-A600N-2260-USA4G-AAL-BG95-UI-V1.0\pressure1.c"
 101  010B  C73A 0003   	lmov a,[954]
 101  010D  0080     E  	mov _disp_dia_2[0],a
文件：pressure1.c  编译器版本 HGASM 0202 页次6

 101  010E  C73B 0003   	lmov a,[955]
 101  0110  0080     E  	mov _disp_dia_2[1],a
 101  0111              	fcall _disp_dia
 102  0118              #line 102 "C:\Users\Administrator\Desktop\123\4g\2\Saier-A600N-2260-USA4G-AAL-BG95-UI-V1.0\pressure1.c"
 102  0118  0F6C        	mov a,108
 102  0119  C23C 0003   	lsub a,[956]
 102  011B  0F26        	mov a,38
 102  011C  D23D 0003   	lsbc a,[957]
 102  011E  3C0A        	sz c
 102  011F  2800     R  	jmp _L12
 102  0120              _L40:
 104  0120              #line 104 "C:\Users\Administrator\Desktop\123\4g\2\Saier-A600N-2260-USA4G-AAL-BG95-UI-V1.0\pressure1.c"
 104  0120  3000     E  	set _ERFLAG[0].1
 105  0121              #line 105 "C:\Users\Administrator\Desktop\123\4g\2\Saier-A600N-2260-USA4G-AAL-BG95-UI-V1.0\pressure1.c"
 105  0121  2800     R  	jmp _L2
 105  0122              _L12:
 109  0122              #line 109 "C:\Users\Administrator\Desktop\123\4g\2\Saier-A600N-2260-USA4G-AAL-BG95-UI-V1.0\pressure1.c"
 109  0122  0700     R  	mov a,_DEFLATION_2[1]
 109  0123  0A00        	sub a,0
 109  0124  3D0A        	sz z
 109  0125  2800     R  	jmp _L14
 109  0126  0A64        	sub a,(100)-(0)
 109  0127  3D0A        	sz z
 109  0128  2800     R  	jmp _L15
 109  0129  0700     R  	mov a,_DEFLATION_2[1]
 109  012A  0A96        	sub a,150
 109  012B  390A        	snz z
 109  012C  2800     R  	jmp _L13
 109  012D  2800     R  	jmp _L43
 109  012E              _L14:
 115  012E              #line 115 "C:\Users\Administrator\Desktop\123\4g\2\Saier-A600N-2260-USA4G-AAL-BG95-UI-V1.0\pressure1.c"
 115  012E  C759 0003   	lmov a,[985]
 115  0130  C24C 0003   	lsub a,[972]
 115  0132  3D0A        	sz z
 115  0133  2800     R  	jmp _L13
 117  0134              #line 117 "C:\Users\Administrator\Desktop\123\4g\2\Saier-A600N-2260-USA4G-AAL-BG95-UI-V1.0\pressure1.c"
 117  0134  C759 0003   	lmov a,[985]
 117  0136  C24C 0003   	lsub a,[972]
 117  0138  3C0A        	sz c
 117  0139  2800     R  	jmp _L30
 119  013A              #line 119 "C:\Users\Administrator\Desktop\123\4g\2\Saier-A600N-2260-USA4G-AAL-BG95-UI-V1.0\pressure1.c"
 119  013A  1480     R  	inc _DEFLATION_2[0]
 120  013B              #line 120 "C:\Users\Administrator\Desktop\123\4g\2\Saier-A600N-2260-USA4G-AAL-BG95-UI-V1.0\pressure1.c"
 120  013B  0F05        	mov a,5
 120  013C  0200     R  	sub a,_DEFLATION_2[0]
 120  013D  3C0A        	sz c
 120  013E  2800     R  	jmp _L17
 123  013F              #line 123 "C:\Users\Administrator\Desktop\123\4g\2\Saier-A600N-2260-USA4G-AAL-BG95-UI-V1.0\pressure1.c"
 123  013F  DF4C 0003   	lclr [972]
 124  0141              #line 124 "C:\Users\Administrator\Desktop\123\4g\2\Saier-A600N-2260-USA4G-AAL-BG95-UI-V1.0\pressure1.c"
 124  0141  DF14 0003   	lclr [916]
 124  0143  DF15 0003   	lclr [917]
 124  0145  2800     R  	jmp _L38
 124  0146              _L30:
 132  0146              #line 132 "C:\Users\Administrator\Desktop\123\4g\2\Saier-A600N-2260-USA4G-AAL-BG95-UI-V1.0\pressure1.c"
 132  0146  1F00     R  	clr _DEFLATION_2[0]
 132  0147              _L17:
 135  0147              #line 135 "C:\Users\Administrator\Desktop\123\4g\2\Saier-A600N-2260-USA4G-AAL-BG95-UI-V1.0\pressure1.c"
 135  0147  C759 0003   	lmov a,[985]
 135  0149  C0CC 0003   	lmov [972],a
文件：pressure1.c  编译器版本 HGASM 0202 页次7

 136  014B              #line 136 "C:\Users\Administrator\Desktop\123\4g\2\Saier-A600N-2260-USA4G-AAL-BG95-UI-V1.0\pressure1.c"
 136  014B  C759 0003   	lmov a,[985]
 136  014D  C0CD 0003   	lmov [973],a
 136  014F  2800     R  	jmp _L13
 136  0150              _L15:
 143  0150              #line 143 "C:\Users\Administrator\Desktop\123\4g\2\Saier-A600N-2260-USA4G-AAL-BG95-UI-V1.0\pressure1.c"
 143  0150  C74D 0003   	lmov a,[973]
 143  0152  C259 0003   	lsub a,[985]
 143  0154  380A        	snz c
 143  0155  2800     R  	jmp _L18
 145  0156              #line 145 "C:\Users\Administrator\Desktop\123\4g\2\Saier-A600N-2260-USA4G-AAL-BG95-UI-V1.0\pressure1.c"
 145  0156  C759 0003   	lmov a,[985]
 145  0158  C0CD 0003   	lmov [973],a
 145  015A  2800     R  	jmp _L32
 145  015B              _L18:
 149  015B              #line 149 "C:\Users\Administrator\Desktop\123\4g\2\Saier-A600N-2260-USA4G-AAL-BG95-UI-V1.0\pressure1.c"
 149  015B  D0C5 0003   	lsz [965]
 149  015D  2800     R  	jmp _L19
 151  015E              #line 151 "C:\Users\Administrator\Desktop\123\4g\2\Saier-A600N-2260-USA4G-AAL-BG95-UI-V1.0\pressure1.c"
 151  015E  C74D 0003   	lmov a,[973]
 151  0160  0080     E  	mov rb,a
 151  0161  1F00     E  	clr rc
 151  0162  C759 0003   	lmov a,[985]
 151  0164  0280     E  	subm a,rb
 151  0165  1F05        	clr acc
 151  0166  1280     E  	sbcm a,rc
 151  0167  0F05        	mov a,5
 151  0168  0200     E  	sub a,rb
 151  0169  0F00        	mov a,0
 151  016A  1200     E  	sbc a,rc
 151  016B  3B8A        	snz sc
 151  016C  2800     R  	jmp _L32
 153  016D              #line 153 "C:\Users\Administrator\Desktop\123\4g\2\Saier-A600N-2260-USA4G-AAL-BG95-UI-V1.0\pressure1.c"
 153  016D  C759 0003   	lmov a,[985]
 153  016F  C0CC 0003   	lmov [972],a
 154  0171              #line 154 "C:\Users\Administrator\Desktop\123\4g\2\Saier-A600N-2260-USA4G-AAL-BG95-UI-V1.0\pressure1.c"
 154  0171  C74D 0003   	lmov a,[973]
 154  0173  C0CE 0003   	lmov [974],a
 155  0175              #line 155 "C:\Users\Administrator\Desktop\123\4g\2\Saier-A600N-2260-USA4G-AAL-BG95-UI-V1.0\pressure1.c"
 155  0175  DF14 0003   	lclr [916]
 155  0177  DF15 0003   	lclr [917]
 155  0179  2800     R  	jmp _L39
 155  017A              _L19:
 162  017A              #line 162 "C:\Users\Administrator\Desktop\123\4g\2\Saier-A600N-2260-USA4G-AAL-BG95-UI-V1.0\pressure1.c"
 162  017A  C74D 0003   	lmov a,[973]
 162  017C  0080     E  	mov rb,a
 162  017D  1F00     E  	clr rc
 162  017E  C759 0003   	lmov a,[985]
 162  0180  0280     E  	subm a,rb
 162  0181  1F05        	clr acc
 162  0182  1280     E  	sbcm a,rc
 162  0183  0F19        	mov a,25
 162  0184  0200     E  	sub a,rb
 162  0185  0F00        	mov a,0
 162  0186  1200     E  	sbc a,rc
 162  0187  3F8A        	sz sc
 162  0188  2800     R  	jmp _L20
 162  0189  C74D 0003   	lmov a,[973]
 162  018B  0080     E  	mov rd,a
 162  018C  1F00     E  	clr re
文件：pressure1.c  编译器版本 HGASM 0202 页次8

 162  018D  C759 0003   	lmov a,[985]
 162  018F  0280     E  	subm a,rd
 162  0190  1F05        	clr acc
 162  0191  1280     E  	sbcm a,re
 162  0192  C74D 0003   	lmov a,[973]
 162  0194  0080     E  	mov rb,a
 162  0195  1F00     E  	clr rc
 162  0196  C74F 0003   	lmov a,[975]
 162  0198  0280     E  	subm a,rb
 162  0199  1F05        	clr acc
 162  019A  1280     E  	sbcm a,rc
 162  019B  0700     E  	mov a,rb
 162  019C  0080     E  	mov rf,a
 162  019D  0700     E  	mov a,rc
 162  019E  0080     E  	mov rg,a
 162  019F  1A80     E  	rlc rg
 162  01A0  1F00     E  	clr rf
 162  01A1  1A80     E  	rlc rf
 162  01A2  1F00     E  	clr rg
 162  01A3  0700     E  	mov a,rf
 162  01A4  0380     E  	addm a,rb
 162  01A5  0700     E  	mov a,rg
 162  01A6  1380     E  	adcm a,rc
 162  01A7  1A00     E  	rlca rc
 162  01A8  1B80     E  	rrc rc
 162  01A9  1B80     E  	rrc rb
 162  01AA  0700     E  	mov a,rb
 162  01AB  0200     E  	sub a,rd
 162  01AC  0700     E  	mov a,rc
 162  01AD  1200     E  	sbc a,re
 162  01AE  3B8A        	snz sc
 162  01AF  2800     R  	jmp _L32
 162  01B0              _L20:
 164  01B0              #line 164 "C:\Users\Administrator\Desktop\123\4g\2\Saier-A600N-2260-USA4G-AAL-BG95-UI-V1.0\pressure1.c"
 164  01B0  C759 0003   	lmov a,[985]
 164  01B2  C0CC 0003   	lmov [972],a
 165  01B4              #line 165 "C:\Users\Administrator\Desktop\123\4g\2\Saier-A600N-2260-USA4G-AAL-BG95-UI-V1.0\pressure1.c"
 165  01B4  C74D 0003   	lmov a,[973]
 165  01B6  C0CE 0003   	lmov [974],a
 165  01B8              _L39:
 142  01B8              #line 142 "C:\Users\Administrator\Desktop\123\4g\2\Saier-A600N-2260-USA4G-AAL-BG95-UI-V1.0\pressure1.c"
 142  01B8  0F14        	mov a,20
 142  01B9  0080     R  	mov _DEFLATION_2[0],a
 167  01BA              #line 167 "C:\Users\Administrator\Desktop\123\4g\2\Saier-A600N-2260-USA4G-AAL-BG95-UI-V1.0\pressure1.c"
 167  01BA  0F96        	mov a,150
 167  01BB  0080     R  	mov _DEFLATION_2[1],a
 167  01BC  2800     R  	jmp _L13
 167  01BD              _L43:
 182  01BD              #line 182 "C:\Users\Administrator\Desktop\123\4g\2\Saier-A600N-2260-USA4G-AAL-BG95-UI-V1.0\pressure1.c"
 182  01BD  C759 0003   	lmov a,[985]
 182  01BF  C24D 0003   	lsub a,[973]
 182  01C1  3C0A        	sz c
 182  01C2  2800     R  	jmp _L21
 184  01C3              #line 184 "C:\Users\Administrator\Desktop\123\4g\2\Saier-A600N-2260-USA4G-AAL-BG95-UI-V1.0\pressure1.c"
 184  01C3  C759 0003   	lmov a,[985]
 184  01C5  C0CD 0003   	lmov [973],a
 185  01C7              #line 185 "C:\Users\Administrator\Desktop\123\4g\2\Saier-A600N-2260-USA4G-AAL-BG95-UI-V1.0\pressure1.c"
 185  01C7  C759 0003   	lmov a,[985]
 185  01C9  C0CC 0003   	lmov [972],a
 185  01CB              _L21:
文件：pressure1.c  编译器版本 HGASM 0202 页次9

 187  01CB              #line 187 "C:\Users\Administrator\Desktop\123\4g\2\Saier-A600N-2260-USA4G-AAL-BG95-UI-V1.0\pressure1.c"
 187  01CB  C759 0003   	lmov a,[985]
 187  01CD  C24C 0003   	lsub a,[972]
 187  01CF  380A        	snz c
 187  01D0  2800     R  	jmp _L22
 189  01D1              #line 189 "C:\Users\Administrator\Desktop\123\4g\2\Saier-A600N-2260-USA4G-AAL-BG95-UI-V1.0\pressure1.c"
 189  01D1  C759 0003   	lmov a,[985]
 189  01D3  C0CC 0003   	lmov [972],a
 189  01D5  2800     R  	jmp _L35
 189  01D6              _L22:
 194  01D6              #line 194 "C:\Users\Administrator\Desktop\123\4g\2\Saier-A600N-2260-USA4G-AAL-BG95-UI-V1.0\pressure1.c"
 194  01D6  D0C5 0003   	lsz [965]
 194  01D8  2800     R  	jmp _L23
 197  01D9              #line 197 "C:\Users\Administrator\Desktop\123\4g\2\Saier-A600N-2260-USA4G-AAL-BG95-UI-V1.0\pressure1.c"
 197  01D9  C759 0003   	lmov a,[985]
 197  01DB  0080     E  	mov rd,a
 197  01DC  1F00     E  	clr re
 197  01DD  C74C 0003   	lmov a,[972]
 197  01DF  0280     E  	subm a,rd
 197  01E0  1F05        	clr acc
 197  01E1  1280     E  	sbcm a,re
 197  01E2  C74D 0003   	lmov a,[973]
 197  01E4  0080     E  	mov rb,a
 197  01E5  1F00     E  	clr rc
 197  01E6  C74C 0003   	lmov a,[972]
 197  01E8  0280     E  	subm a,rb
 197  01E9  1F05        	clr acc
 197  01EA  1280     E  	sbcm a,rc
 197  01EB  0700     E  	mov a,rb
 197  01EC  0080     E  	mov rf,a
 197  01ED  0700     E  	mov a,rc
 197  01EE  0080     E  	mov rg,a
 197  01EF  1A80     E  	rlc rg
 197  01F0  1F00     E  	clr rf
 197  01F1  1A80     E  	rlc rf
 197  01F2  1F00     E  	clr rg
 197  01F3  0700     E  	mov a,rf
 197  01F4  0380     E  	addm a,rb
 197  01F5  0700     E  	mov a,rg
 197  01F6  1380     E  	adcm a,rc
 197  01F7  1A00     E  	rlca rc
 197  01F8  1B80     E  	rrc rc
 197  01F9  1B80     E  	rrc rb
 197  01FA  0700     E  	mov a,rb
 197  01FB  0200     E  	sub a,rd
 197  01FC  0700     E  	mov a,rc
 197  01FD  1200     E  	sbc a,re
 197  01FE  3F8A        	sz sc
 197  01FF  2800     R  	jmp _L24
 197  0200  C759 0003   	lmov a,[985]
 197  0202  0080     E  	mov rb,a
 197  0203  1F00     E  	clr rc
 197  0204  C74C 0003   	lmov a,[972]
 197  0206  0280     E  	subm a,rb
 197  0207  1F05        	clr acc
 197  0208  1280     E  	sbcm a,rc
 197  0209  0F19        	mov a,25
 197  020A  0200     E  	sub a,rb
 197  020B  0F00        	mov a,0
 197  020C  1200     E  	sbc a,rc
文件：pressure1.c  编译器版本 HGASM 0202 页次10

 197  020D  3B8A        	snz sc
 197  020E  2800     R  	jmp _L35
 197  020F              _L24:
 199  020F              #line 199 "C:\Users\Administrator\Desktop\123\4g\2\Saier-A600N-2260-USA4G-AAL-BG95-UI-V1.0\pressure1.c"
 199  020F  C74D 0003   	lmov a,[973]
 199  0211  0080     E  	mov rb,a
 199  0212  1F00     E  	clr rc
 199  0213  C74C 0003   	lmov a,[972]
 199  0215  0280     E  	subm a,rb
 199  0216  1F05        	clr acc
 199  0217  1280     E  	sbcm a,rc
 199  0218  0F14        	mov a,20
 199  0219  0200     E  	sub a,rb
 199  021A  0F00        	mov a,0
 199  021B  1200     E  	sbc a,rc
 199  021C  3B8A        	snz sc
 199  021D  2800     R  	jmp _L35
 201  021E              #line 201 "C:\Users\Administrator\Desktop\123\4g\2\Saier-A600N-2260-USA4G-AAL-BG95-UI-V1.0\pressure1.c"
 201  021E  C74C 0003   	lmov a,[972]
 201  0220  C0CF 0003   	lmov [975],a
 202  0222              #line 202 "C:\Users\Administrator\Desktop\123\4g\2\Saier-A600N-2260-USA4G-AAL-BG95-UI-V1.0\pressure1.c"
 202  0222  DF4C 0003   	lclr [972]
 203  0224              #line 203 "C:\Users\Administrator\Desktop\123\4g\2\Saier-A600N-2260-USA4G-AAL-BG95-UI-V1.0\pressure1.c"
 203  0224  C759 0003   	lmov a,[985]
 203  0226  C0CD 0003   	lmov [973],a
 205  0228              #line 205 "C:\Users\Administrator\Desktop\123\4g\2\Saier-A600N-2260-USA4G-AAL-BG95-UI-V1.0\pressure1.c"
 205  0228  D4C5 0003   	linc [965]
 205  022A  2800     R  	jmp _L37
 205  022B              _L23:
 217  022B              #line 217 "C:\Users\Administrator\Desktop\123\4g\2\Saier-A600N-2260-USA4G-AAL-BG95-UI-V1.0\pressure1.c"
 217  022B  C759 0003   	lmov a,[985]
 217  022D  0080     E  	mov rb,a
 217  022E  1F00     E  	clr rc
 217  022F  C74C 0003   	lmov a,[972]
 217  0231  0280     E  	subm a,rb
 217  0232  1F05        	clr acc
 217  0233  1280     E  	sbcm a,rc
 217  0234  0F19        	mov a,25
 217  0235  0200     E  	sub a,rb
 217  0236  0F00        	mov a,0
 217  0237  1200     E  	sbc a,rc
 217  0238  3F8A        	sz sc
 217  0239  2800     R  	jmp _L25
 217  023A  C759 0003   	lmov a,[985]
 217  023C  0080     E  	mov rd,a
 217  023D  1F00     E  	clr re
 217  023E  C74C 0003   	lmov a,[972]
 217  0240  0280     E  	subm a,rd
 217  0241  1F05        	clr acc
 217  0242  1280     E  	sbcm a,re
 217  0243  C74E 0003   	lmov a,[974]
 217  0245  0080     E  	mov rb,a
 217  0246  1F00     E  	clr rc
 217  0247  C74C 0003   	lmov a,[972]
 217  0249  0280     E  	subm a,rb
 217  024A  1F05        	clr acc
 217  024B  1280     E  	sbcm a,rc
 217  024C  0700     E  	mov a,rb
 217  024D  0080     E  	mov rf,a
 217  024E  0700     E  	mov a,rc
文件：pressure1.c  编译器版本 HGASM 0202 页次11

 217  024F  0080     E  	mov rg,a
 217  0250  1A80     E  	rlc rg
 217  0251  1F00     E  	clr rf
 217  0252  1A80     E  	rlc rf
 217  0253  1F00     E  	clr rg
 217  0254  0700     E  	mov a,rf
 217  0255  0380     E  	addm a,rb
 217  0256  0700     E  	mov a,rg
 217  0257  1380     E  	adcm a,rc
 217  0258  1A00     E  	rlca rc
 217  0259  1B80     E  	rrc rc
 217  025A  1B80     E  	rrc rb
 217  025B  0700     E  	mov a,rb
 217  025C  0200     E  	sub a,rd
 217  025D  0700     E  	mov a,rc
 217  025E  1200     E  	sbc a,re
 217  025F  3B8A        	snz sc
 217  0260  2800     R  	jmp _L35
 217  0261              _L25:
 219  0261              #line 219 "C:\Users\Administrator\Desktop\123\4g\2\Saier-A600N-2260-USA4G-AAL-BG95-UI-V1.0\pressure1.c"
 219  0261  C74C 0003   	lmov a,[972]
 219  0263  C0CF 0003   	lmov [975],a
 220  0265              #line 220 "C:\Users\Administrator\Desktop\123\4g\2\Saier-A600N-2260-USA4G-AAL-BG95-UI-V1.0\pressure1.c"
 220  0265  DF4C 0003   	lclr [972]
 221  0267              #line 221 "C:\Users\Administrator\Desktop\123\4g\2\Saier-A600N-2260-USA4G-AAL-BG95-UI-V1.0\pressure1.c"
 221  0267  C759 0003   	lmov a,[985]
 221  0269  C0CD 0003   	lmov [973],a
 223  026B              #line 223 "C:\Users\Administrator\Desktop\123\4g\2\Saier-A600N-2260-USA4G-AAL-BG95-UI-V1.0\pressure1.c"
 223  026B  D4C5 0003   	linc [965]
 224  026D              #line 224 "C:\Users\Administrator\Desktop\123\4g\2\Saier-A600N-2260-USA4G-AAL-BG95-UI-V1.0\pressure1.c"
 224  026D  DF50 0003   	lclr [976]
 225  026F              #line 225 "C:\Users\Administrator\Desktop\123\4g\2\Saier-A600N-2260-USA4G-AAL-BG95-UI-V1.0\pressure1.c"
 225  026F              	fcall _SBR_DISP_DOT_HEART_ON
 226  0276              #line 226 "C:\Users\Administrator\Desktop\123\4g\2\Saier-A600N-2260-USA4G-AAL-BG95-UI-V1.0\pressure1.c"
 226  0276  0F03        	mov a,3
 226  0277  C245 0003   	lsub a,[965]
 226  0279  3C0A        	sz c
 226  027A  2800     R  	jmp _L37
 227  027B              #line 227 "C:\Users\Administrator\Desktop\123\4g\2\Saier-A600N-2260-USA4G-AAL-BG95-UI-V1.0\pressure1.c"
 227  027B  C77D 0003   	lmov a,[1021]
 227  027D  C24F 0003   	lsub a,[975]
 227  027F  3C0A        	sz c
 227  0280  2800     R  	jmp _L37
 229  0281              #line 229 "C:\Users\Administrator\Desktop\123\4g\2\Saier-A600N-2260-USA4G-AAL-BG95-UI-V1.0\pressure1.c"
 229  0281  C74F 0003   	lmov a,[975]
 229  0283  C0FD 0003   	lmov [1021],a
 230  0285              #line 230 "C:\Users\Administrator\Desktop\123\4g\2\Saier-A600N-2260-USA4G-AAL-BG95-UI-V1.0\pressure1.c"
 230  0285  C73A 0003   	lmov a,[954]
 230  0287  C0F8 0003   	lmov [1016],a
 230  0289  C73B 0003   	lmov a,[955]
 230  028B  C0F9 0003   	lmov [1017],a
 230  028D  2800     R  	jmp _L37
 230  028E              _L32:
 142  028E              #line 142 "C:\Users\Administrator\Desktop\123\4g\2\Saier-A600N-2260-USA4G-AAL-BG95-UI-V1.0\pressure1.c"
 142  028E  0F14        	mov a,20
 142  028F  0080     R  	mov _DEFLATION_2[0],a
 142  0290  2800     R  	jmp _L13
 142  0291              _L35:
 180  0291              #line 180 "C:\Users\Administrator\Desktop\123\4g\2\Saier-A600N-2260-USA4G-AAL-BG95-UI-V1.0\pressure1.c"
 180  0291  0F1E        	mov a,30
文件：pressure1.c  编译器版本 HGASM 0202 页次12

 180  0292  0080     R  	mov _DEFLATION_2[0],a
 180  0293  2800     R  	jmp _L13
 180  0294              _L37:
 180  0294  0F1E        	mov a,30
 180  0295  0080     R  	mov _DEFLATION_2[0],a
 180  0296              _L38:
 222  0296              #line 222 "C:\Users\Administrator\Desktop\123\4g\2\Saier-A600N-2260-USA4G-AAL-BG95-UI-V1.0\pressure1.c"
 222  0296  0F64        	mov a,100
 222  0297  0080     R  	mov _DEFLATION_2[1],a
 222  0298              _L13:
 244  0298              #line 244 "C:\Users\Administrator\Desktop\123\4g\2\Saier-A600N-2260-USA4G-AAL-BG95-UI-V1.0\pressure1.c"
 244  0298  0F19        	mov a,25
 244  0299  C250 0003   	lsub a,[976]
 244  029B  3C0A        	sz c
 244  029C  2800     R  	jmp _L26
 246  029D              #line 246 "C:\Users\Administrator\Desktop\123\4g\2\Saier-A600N-2260-USA4G-AAL-BG95-UI-V1.0\pressure1.c"
 246  029D              	fcall _SBR_DISP_DOT_HEART_OFF
 246  02A4              _L26:
 249  02A4              #line 249 "C:\Users\Administrator\Desktop\123\4g\2\Saier-A600N-2260-USA4G-AAL-BG95-UI-V1.0\pressure1.c"
 249  02A4  0F05        	mov a,5
 249  02A5  C245 0003   	lsub a,[965]
 249  02A7  3C0A        	sz c
 249  02A8  2800     R  	jmp _L27
 250  02A9              #line 250 "C:\Users\Administrator\Desktop\123\4g\2\Saier-A600N-2260-USA4G-AAL-BG95-UI-V1.0\pressure1.c"
 250  02A9  0FEC        	mov a,236
 250  02AA  C378 0003   	ladd a,[1016]
 250  02AC  0080     E  	mov rb,a
 250  02AD  0FFF        	mov a,255
 250  02AE  D379 0003   	ladc a,[1017]
 250  02B0  0080     E  	mov rc,a
 250  02B1  C73A 0003   	lmov a,[954]
 250  02B3  0200     E  	sub a,rb
 250  02B4  C73B 0003   	lmov a,[955]
 250  02B6  1200     E  	sbc a,rc
 250  02B7  380A        	snz c
 250  02B8  2800     R  	jmp _L28
 250  02B9              _L27:
 252  02B9              #line 252 "C:\Users\Administrator\Desktop\123\4g\2\Saier-A600N-2260-USA4G-AAL-BG95-UI-V1.0\pressure1.c"
 252  02B9  0F3B        	mov a,59
 252  02BA  C23A 0003   	lsub a,[954]
 252  02BC  0F00        	mov a,0
 252  02BD  D23B 0003   	lsbc a,[955]
 252  02BF  380A        	snz c
 252  02C0  2800     R  	jmp _L29
 252  02C1              _L28:
 257  02C1              #line 257 "C:\Users\Administrator\Desktop\123\4g\2\Saier-A600N-2260-USA4G-AAL-BG95-UI-V1.0\pressure1.c"
 257  02C1  0FEC        	mov a,236
 257  02C2  C3F8 0003   	laddm a,[1016]
 257  02C4  0FFF        	mov a,255
 257  02C5  D3F9 0003   	ladcm a,[1017]
 258  02C7              #line 258 "C:\Users\Administrator\Desktop\123\4g\2\Saier-A600N-2260-USA4G-AAL-BG95-UI-V1.0\pressure1.c"
 258  02C7  C778 0003   	lmov a,[1016]  
 258  02C9  0080     E  	mov _builtin_holtek_mulhi3_2[0],a  
 258  02CA  C779 0003   	lmov a,[1017]  
 258  02CC  0080     E  	mov _builtin_holtek_mulhi3_2[1],a
 258  02CD  0F78        	mov a,120  
 258  02CE  0080     E  	mov _builtin_holtek_mulhi3_2[2],a  
 258  02CF  1F00     E  	clr _builtin_holtek_mulhi3_2[3]
 258  02D0              	fcall _builtin_holtek_mulhi3
 258  02D7  0700     E  	mov a,_builtin_holtek_mulhi3_2[4]  
文件：pressure1.c  编译器版本 HGASM 0202 页次13

 258  02D8  0080     E  	mov _PRE_SYS[0],a  
 258  02D9  0700     E  	mov a,_builtin_holtek_mulhi3_2[5]  
 258  02DA  0080     E  	mov _PRE_SYS[1],a
 259  02DB              #line 259 "C:\Users\Administrator\Desktop\123\4g\2\Saier-A600N-2260-USA4G-AAL-BG95-UI-V1.0\pressure1.c"
 259  02DB  C778 0003   	lmov a,[1016]  
 259  02DD  0080     E  	mov _builtin_holtek_mulhi3_2[0],a  
 259  02DE  C779 0003   	lmov a,[1017]  
 259  02E0  0080     E  	mov _builtin_holtek_mulhi3_2[1],a
 259  02E1  0F50        	mov a,80  
 259  02E2  0080     E  	mov _builtin_holtek_mulhi3_2[2],a  
 259  02E3  1F00     E  	clr _builtin_holtek_mulhi3_2[3]
 259  02E4              	fcall _builtin_holtek_mulhi3
 259  02EB  0700     E  	mov a,_builtin_holtek_mulhi3_2[4]  
 259  02EC  0080     E  	mov _PRE_DIA[0],a  
 259  02ED  0700     E  	mov a,_builtin_holtek_mulhi3_2[5]  
 259  02EE  0080     E  	mov _PRE_DIA[1],a
 262  02EF              #line 262 "C:\Users\Administrator\Desktop\123\4g\2\Saier-A600N-2260-USA4G-AAL-BG95-UI-V1.0\pressure1.c"
 262  02EF  1F00     E  	clr _builtin_holtek_udivmodhi4_2[6]
 262  02F0  0700     E  	mov a,_PRE_SYS[0]  
 262  02F1  0080     E  	mov _builtin_holtek_udivmodhi4_2[0],a  
 262  02F2  0700     E  	mov a,_PRE_SYS[1]  
 262  02F3  0080     E  	mov _builtin_holtek_udivmodhi4_2[1],a
 262  02F4  0F64        	mov a,100  
 262  02F5  0080     E  	mov _builtin_holtek_udivmodhi4_2[2],a  
 262  02F6  1F00     E  	clr _builtin_holtek_udivmodhi4_2[3]
 262  02F7              	fcall _builtin_holtek_udivmodhi4
 262  02FE  0700     E  	mov a,_builtin_holtek_udivmodhi4_2[0]  
 262  02FF  0080     E  	mov _PRE_SYS[0],a  
 262  0300  0700     E  	mov a,_builtin_holtek_udivmodhi4_2[1]  
 262  0301  0080     E  	mov _PRE_SYS[1],a
 263  0302              #line 263 "C:\Users\Administrator\Desktop\123\4g\2\Saier-A600N-2260-USA4G-AAL-BG95-UI-V1.0\pressure1.c"
 263  0302  1F00     E  	clr _builtin_holtek_udivmodhi4_2[6]
 263  0303  0700     E  	mov a,_PRE_DIA[0]  
 263  0304  0080     E  	mov _builtin_holtek_udivmodhi4_2[0],a  
 263  0305  0700     E  	mov a,_PRE_DIA[1]  
 263  0306  0080     E  	mov _builtin_holtek_udivmodhi4_2[1],a
 263  0307  0F64        	mov a,100  
 263  0308  0080     E  	mov _builtin_holtek_udivmodhi4_2[2],a  
 263  0309  1F00     E  	clr _builtin_holtek_udivmodhi4_2[3]
 263  030A              	fcall _builtin_holtek_udivmodhi4
 263  0311  0700     E  	mov a,_builtin_holtek_udivmodhi4_2[0]  
 263  0312  0080     E  	mov _PRE_DIA[0],a  
 263  0313  0700     E  	mov a,_builtin_holtek_udivmodhi4_2[1]  
 263  0314  0080     E  	mov _PRE_DIA[1],a
 264  0315              #line 264 "C:\Users\Administrator\Desktop\123\4g\2\Saier-A600N-2260-USA4G-AAL-BG95-UI-V1.0\pressure1.c"
 264  0315  0F50        	mov a,80
 264  0316  C0C3 0003   	lmov [963],a
 264  0318              _L2:
 264  0318  0003        	ret
 264  0319              _DEFLATION endp
 264  0319              #line 264 "C:\Users\Administrator\Desktop\123\4g\2\Saier-A600N-2260-USA4G-AAL-BG95-UI-V1.0\pressure1.c"
 264  0319              #pragma debug scope 1 1
 264  0319              #pragma debug variable 10 1 _PLSFTM "PLSFTM" 2
 264  0319              #pragma debug variable 8 1 _MAXIHB "MAXIHB" 1
 264  0319              #pragma debug variable 10 1 _OLD_PRE_SYS "OLD_PRE_SYS" 2
 264  0319              #pragma debug variable 8 1 _P1VAL_B "P1VAL_B" 1
 264  0319              #pragma debug variable 8 1 _dowm_time "dowm_time" 1
 264  0319              #pragma debug variable 8 1 _OLD_M1_PH "OLD_M1_PH" 1
 264  0319              #pragma debug variable 8 1 _OLD_M1_PL "OLD_M1_PL" 1
 264  0319              #pragma debug variable 8 1 _M1_PL "M1_PL" 1
文件：pressure1.c  编译器版本 HGASM 0202 页次14

 264  0319              #pragma debug variable 8 1 _M1_PH "M1_PH" 1
 264  0319              #pragma debug variable 8 1 _WAVE_count "WAVE_count" 1
 264  0319              #pragma debug variable 8 1 _PLSCNT "PLSCNT" 1
 264  0319              #pragma debug variable 10 1 _pwm_val1 "pwm_val1" 2
 264  0319              #pragma debug variable 10 1 _counter9ms "counter9ms" 2
 264  0319              #pragma debug variable 10 1 _P0_BUF "P0_BUF" 2
 264  0319              #pragma debug variable 10 1 _ELE_CNT "ELE_CNT" 2
 264  0319              #pragma debug variable 10 1 _PUMPPRE "PUMPPRE" 2
 264  0319              #pragma debug struct_end
 264  0319              #pragma debug struct_end
 264  0319              #pragma debug union_end
 264  0319              #pragma debug union_end
 264  0319              #pragma debug array 44 43 32 1
 264  0319              #pragma debug array 44 43 32 1
 264  0319              #pragma debug variable 44 1 _SEG "SEG" 32
 264  0319              
 264  0319              ; output external variables
 264  0319              extern _PRE_DIA:byte
 264  0319              extern _PRE_SYS:byte
 264  0319              extern _MODEFLAG:byte
 264  0319              extern _ERFLAG:byte
 264  0319              extern _keyval:byte
 264  0319              extern _pres_avl:byte
 264  0319              extern _disp_dia_2:byte
 264  0319              extern _disp_dia:near
 264  0319              extern _SBR_DISP_DOT_JIA_ON:near
 264  0319              extern _SBR_DISP_DOT_JIAN_OFF:near
 264  0319              extern _PWMGVAL1_2:byte
 264  0319              extern _PWMGVAL1:near
 264  0319              extern _STP_PUMP_ON:near
 264  0319              extern _key_scan:near
 264  0319              extern _SBR_DISP_DOT_U1_OFF:near
 264  0319              extern _SBR_DISP_DOT_U2_ON:near
 264  0319              extern _SBR_DISP_DOT_U1_ON:near
 264  0319              extern _SBR_DISP_DOT_U2_OFF:near
 264  0319              extern _SBR_DISP_DOT_JIA_OFF:near
 264  0319              extern _STP_PUMP_OFF:near
 264  0319              extern _SBR_DISP_DOT_HEART_ON:near
 264  0319              extern _SBR_DISP_DOT_HEART_OFF:near
 264  0319              extern _builtin_holtek_mulhi3_2:byte
 264  0319              extern _builtin_holtek_mulhi3:near
 264  0319              extern _builtin_holtek_udivmodhi4_2:byte
 264  0319              extern _builtin_holtek_udivmodhi4:near
 264  0319              
 264  0319              ; 
 264  0319              ; Generated by holtek-gcc v3.19, Fri Jun 24 18:25:13 2022
 264  0319              ; Rebuild 718
 264  0319              ; end of file


        0 Errors, 0