文件：pressure.c   编译器版本 HGASM 0202 页次1


   1  0000              ; Generated by holtek-gcc v3.19, Tue Jul 26 12:07:02 2022
   2  0000              ; 
   3  0000              ; Configuration:
   4  0000              ;       with long instruction
   5  0000              ;       Multi-ROM, Multi-RAM
   6  0000              ;       bits_per_rom_unit:16
   7  0000              ;       with mp1
   8  0000              ;       with tbhp, address(0x9)
   9  0000              ;          Use tabrd-const
  10  0000              ;       
  11  0000              ; SFR address of long-instruction arch:
  12  0000              ;    mp0 = -1,1,0
  13  0000              ;    mp1 = 4,3,2
  14  0000              ;    mp2 = 14,13,12
  15  0000              ;    tbp = 9,7,8
  16  0000              ;    acc = 5
  17  0000              ;    pcl = 6
  18  0000              ;    status = 10
  19  0000              ;    bp = 11
  20  0000              ;    intc = 32
  21  0000              ;       
  22  0000              ;       
  23  0000              ; use 'tabrdc' instead of 'tabrd'
  24  0000              ;       
  25  0000              
  26  0000              #pragma translator "holtek-gcc 4.6.4" "3.19" "build 20130711"
  27  0000              ; Rebuild 718
  28  0000              
  29  0000              ir equ [2]
  30  0000              mp equ [3]
  31  0000              sbp equ [4]
  32  0000              acc equ [5]
  33  0000              bp equ [11]
  34  0000              tblp equ [7]
  35  0000              tbhp equ [9]
  36  0000              status equ [10]
  37  0000              c equ [10].0
  38  0000              ac equ [10].1
  39  0000              z equ [10].2
  40  0000              ov equ [10].3
  41  0000              cz equ [10].6
  42  0000              sc equ [10].7
  43  0000              intc equ [32]
  44  0000              
  45  0000              extern ra:byte
  46  0000              extern rb:byte
  47  0000              extern rc:byte
  48  0000              extern rd:byte
  49  0000              extern re:byte
  50  0000              extern rf:byte
  51  0000              extern rg:byte
  52  0000              extern rh:byte
  53  0000              extern _Crom2Prom:near
  54  0000              extern _Crom2PromNext:near
  55  0000              
  56  0000              RAMBANK 0 @BITDATASEC, @BITDATASEC1
  57  0000              @HCCINIT	.section 'data'
  58  0000              @HCCINIT0	.section 'data'
  59  0000              @BITDATASEC	 .section 'data'
文件：pressure.ASM 编译器版本 HGASM 0202 页次2

  60  0000              @BITDATASEC1	 .section 'data'
  61  0000              
  62  0000              #pragma debug scope 1 1
  63  0000              	extern __DELAY3:near
  64  0000              	extern __DELAYX3:near
  65  0000              	extern __DELAYX6:near
  66  0000              	extern __DELAYY5:near
  67  0000              	extern __DELAYY3:near
  68  0000              	extern _builtin_holtek_delay_2:byte
  69  0000              _P012_avg equ [1006]
  70  0000              _pres_ad_0 equ [998]
  71  0000              _pres_ad_100 equ [996]
  72  0000              _pres_ad_200 equ [994]
  73  0000              _pres_ad_300 equ [992]
  74  0000              _LOW_V equ [1012]
  75  0000              ___pc equ [39]
  76  0000              _FTM31 equ [946]
  77  0000              _COUNT1_JIA equ [990]
  78  0000              _PUMPPRE equ [944]
  79  0000              _PLSCNT equ [963]
  80  0000              _close_time equ [1004]
  81  0000              _OLD_PRE_SYS equ [1016]
  82  0000              _OLD_PRE_DIA equ [1014]
  83  0000              _OLD_PLSCNT equ [913]
  84  0000              _IHB_COUNT equ [1019]
  85  0000              ___pe equ [119]
  86  0000              ___pa equ [20]
  87  0000              _step equ [927]
  88  0000              public _TEST_CON
  89  0000              #pragma debug scope 2 1

  14  0000              #line 14 "k:\55555555555555\test\saier-a600n-2260-usa4g-aal-bg95-ui-v1.0-6\pressure.c"
  14  0000              _TEST_CON .section 'code'
  14  0000              _TEST_CON proc
  14  0000  00              local _TEST_CON_2 db 1 dup(?)	; 0,1
  16  0001              #line 16 "k:\55555555555555\test\saier-a600n-2260-usa4g-aal-bg95-ui-v1.0-6\pressure.c"
  16  0000              	fcall _LCD_INIT_OFF
  17  0007              #line 17 "k:\55555555555555\test\saier-a600n-2260-usa4g-aal-bg95-ui-v1.0-6\pressure.c"
  17  0007  3000     E  	set _MODEFLAG[0].0
  18  0008              #line 18 "k:\55555555555555\test\saier-a600n-2260-usa4g-aal-bg95-ui-v1.0-6\pressure.c"
  18  0008  3000     E  	set _MODEFLAG[0].3
  20  0009              #line 20 "k:\55555555555555\test\saier-a600n-2260-usa4g-aal-bg95-ui-v1.0-6\pressure.c"
  20  0009              	fcall _SBR_UPDATE_TIME
  21  0010              #line 21 "k:\55555555555555\test\saier-a600n-2260-usa4g-aal-bg95-ui-v1.0-6\pressure.c"
  21  0010              	fcall _SBR_UPDATE_BTT
  22  0017              #line 22 "k:\55555555555555\test\saier-a600n-2260-usa4g-aal-bg95-ui-v1.0-6\pressure.c"
  22  0017              	fcall _SBR_DISP_DOT_COL_ON
  23  001E              #line 23 "k:\55555555555555\test\saier-a600n-2260-usa4g-aal-bg95-ui-v1.0-6\pressure.c"
  23  001E  3C00     E  	sz _MODEFLAG[0].5
  23  001F  2800     R  	jmp _L2
  25  0020              #line 25 "k:\55555555555555\test\saier-a600n-2260-usa4g-aal-bg95-ui-v1.0-6\pressure.c"
  25  0020              	fcall _SBR_DISP_DOT_U2_OFF
  26  0027              #line 26 "k:\55555555555555\test\saier-a600n-2260-usa4g-aal-bg95-ui-v1.0-6\pressure.c"
  26  0027              	fcall _SBR_DISP_DOT_U1_ON
  26  002E  2800     R  	jmp _L3
  26  002F              _L2:
  31  002F              #line 31 "k:\55555555555555\test\saier-a600n-2260-usa4g-aal-bg95-ui-v1.0-6\pressure.c"
  31  002F              	fcall _SBR_DISP_DOT_U1_OFF
  32  0036              #line 32 "k:\55555555555555\test\saier-a600n-2260-usa4g-aal-bg95-ui-v1.0-6\pressure.c"
  32  0036              	fcall _SBR_DISP_DOT_U2_ON
文件：pressure.c   编译器版本 HGASM 0202 页次3

  32  003D              _L3:
  34  003D              #line 34 "k:\55555555555555\test\saier-a600n-2260-usa4g-aal-bg95-ui-v1.0-6\pressure.c"
  34  003D  1F00     E  	clr _disp_dia_2[0]
  34  003E  1F00     E  	clr _disp_dia_2[1]
  34  003F              	fcall _disp_dia
  35  0046              #line 35 "k:\55555555555555\test\saier-a600n-2260-usa4g-aal-bg95-ui-v1.0-6\pressure.c"
  35  0046  0F50        	mov a,80
  35  0047  0080     E  	mov _Delay_ms_2[0],a
  35  0048  0F46        	mov a,70
  35  0049  0080     E  	mov _Delay_ms_2[1],a
  35  004A              	fcall _Delay_ms
  38  0051              #line 38 "k:\55555555555555\test\saier-a600n-2260-usa4g-aal-bg95-ui-v1.0-6\pressure.c"
  38  0051  1F00     E  	clr _R_TEMPDATA[0]
  38  0052  1F00     E  	clr _R_TEMPDATA[1]
  38  0053  0F10        	mov a,16
  38  0054  0080     R  	mov _TEST_CON_2[0],a
  38  0055              _L5:
  41  0055              #line 41 "k:\55555555555555\test\saier-a600n-2260-usa4g-aal-bg95-ui-v1.0-6\pressure.c"
  41  0055  C76E 0003   	lmov a,[1006]
  41  0057  0380     E  	addm a,_R_TEMPDATA[0]
  41  0058  C76F 0003   	lmov a,[1007]
  41  005A  1380     E  	adcm a,_R_TEMPDATA[1]
  42  005B              #line 42 "k:\55555555555555\test\saier-a600n-2260-usa4g-aal-bg95-ui-v1.0-6\pressure.c"
  42  005B  0F23        	mov a,35
  42  005C  0080     E  	mov _Delay_ms_2[0],a
  42  005D  1F00     E  	clr _Delay_ms_2[1]
  42  005E              	fcall _Delay_ms
  42  0065  1780     R  	sdz _TEST_CON_2[0]
  42  0066  2800     R  	jmp _L5
  44  0067              #line 44 "k:\55555555555555\test\saier-a600n-2260-usa4g-aal-bg95-ui-v1.0-6\pressure.c"
  44  0067  0F04        	mov a,4
  44  0068              _LI1:
  44  0068  340A        	clr c
  44  0069  1B80     E  	rrc _R_TEMPDATA[1]
  44  006A  1B80     E  	rrc _R_TEMPDATA[0]
  44  006B  1785        	sdz acc
  44  006C  2800     R  	jmp _LI1
  45  006D              #line 45 "k:\55555555555555\test\saier-a600n-2260-usa4g-aal-bg95-ui-v1.0-6\pressure.c"
  45  006D  0700     E  	mov a,_R_TEMPDATA[0]
  45  006E  C266 0003   	lsub a,[998]
  45  0070  0700     E  	mov a,_R_TEMPDATA[1]
  45  0071  D267 0003   	lsbc a,[999]
  45  0073  3C0A        	sz c
  45  0074  2800     R  	jmp _L6
  47  0075              #line 47 "k:\55555555555555\test\saier-a600n-2260-usa4g-aal-bg95-ui-v1.0-6\pressure.c"
  47  0075  C766 0003   	lmov a,[998]
  47  0077  0200     E  	sub a,_R_TEMPDATA[0]
  47  0078  0080     E  	mov rd,a
  47  0079  C767 0003   	lmov a,[999]
  47  007B  1200     E  	sbc a,_R_TEMPDATA[1]
  47  007C  0080     E  	mov re,a
  47  007D  0F31        	mov a,49
  47  007E  0200     E  	sub a,rd
  47  007F  0F00        	mov a,0
  47  0080  1200     E  	sbc a,re
  47  0081  380A        	snz c
  47  0082  2800     R  	jmp _L7
  49  0083              #line 49 "k:\55555555555555\test\saier-a600n-2260-usa4g-aal-bg95-ui-v1.0-6\pressure.c"
  49  0083  C766 0003   	lmov a,[998]
  49  0085  0080     E  	mov rd,a
文件：pressure.c   编译器版本 HGASM 0202 页次4

  49  0086  C767 0003   	lmov a,[999]
  49  0088  0080     E  	mov re,a
  49  0089  0700     E  	mov a,_R_TEMPDATA[0]
  49  008A  0080     E  	mov rb,a
  49  008B  0700     E  	mov a,_R_TEMPDATA[1]
  49  008C  0080     E  	mov rc,a
  49  008D  0700     E  	mov a,rd
  49  008E  0280     E  	subm a,rb
  50  008F              #line 50 "k:\55555555555555\test\saier-a600n-2260-usa4g-aal-bg95-ui-v1.0-6\pressure.c"
  50  008F  1F00     E  	clr rc
  50  0090  C766 0003   	lmov a,[998]
  50  0092  0200     E  	sub a,rb
  50  0093  C0E6 0003   	lmov [998],a
  50  0095  C767 0003   	lmov a,[999]
  50  0097  1200     E  	sbc a,rc
  50  0098  C0E7 0003   	lmov [999],a
  51  009A              #line 51 "k:\55555555555555\test\saier-a600n-2260-usa4g-aal-bg95-ui-v1.0-6\pressure.c"
  51  009A  C764 0003   	lmov a,[996]
  51  009C  0200     E  	sub a,rb
  51  009D  C0E4 0003   	lmov [996],a
  51  009F  C765 0003   	lmov a,[997]
  51  00A1  1200     E  	sbc a,rc
  51  00A2  C0E5 0003   	lmov [997],a
  52  00A4              #line 52 "k:\55555555555555\test\saier-a600n-2260-usa4g-aal-bg95-ui-v1.0-6\pressure.c"
  52  00A4  C762 0003   	lmov a,[994]
  52  00A6  0200     E  	sub a,rb
  52  00A7  C0E2 0003   	lmov [994],a
  52  00A9  C763 0003   	lmov a,[995]
  52  00AB  1200     E  	sbc a,rc
  52  00AC  C0E3 0003   	lmov [995],a
  53  00AE              #line 53 "k:\55555555555555\test\saier-a600n-2260-usa4g-aal-bg95-ui-v1.0-6\pressure.c"
  53  00AE  C760 0003   	lmov a,[992]
  53  00B0  0200     E  	sub a,rb
  53  00B1  C0E0 0003   	lmov [992],a
  53  00B3  C761 0003   	lmov a,[993]
  53  00B5  1200     E  	sbc a,rc
  53  00B6  C0E1 0003   	lmov [993],a
  53  00B8  2800     R  	jmp _L7
  53  00B9              _L6:
  58  00B9              #line 58 "k:\55555555555555\test\saier-a600n-2260-usa4g-aal-bg95-ui-v1.0-6\pressure.c"
  58  00B9  0700     E  	mov a,_R_TEMPDATA[0]
  58  00BA  C266 0003   	lsub a,[998]
  58  00BC  0080     E  	mov rd,a
  58  00BD  0700     E  	mov a,_R_TEMPDATA[1]
  58  00BE  D267 0003   	lsbc a,[999]
  58  00C0  0080     E  	mov re,a
  58  00C1  0F31        	mov a,49
  58  00C2  0200     E  	sub a,rd
  58  00C3  0F00        	mov a,0
  58  00C4  1200     E  	sbc a,re
  58  00C5  380A        	snz c
  58  00C6  2800     R  	jmp _L7
  60  00C7              #line 60 "k:\55555555555555\test\saier-a600n-2260-usa4g-aal-bg95-ui-v1.0-6\pressure.c"
  60  00C7  0700     E  	mov a,_R_TEMPDATA[0]
  60  00C8  0080     E  	mov rd,a
  60  00C9  0700     E  	mov a,_R_TEMPDATA[1]
  60  00CA  0080     E  	mov re,a
  60  00CB  C766 0003   	lmov a,[998]
  60  00CD  0080     E  	mov rb,a
  60  00CE  C767 0003   	lmov a,[999]
文件：pressure.c   编译器版本 HGASM 0202 页次5

  60  00D0  0080     E  	mov rc,a
  60  00D1  0700     E  	mov a,rd
  60  00D2  0280     E  	subm a,rb
  61  00D3              #line 61 "k:\55555555555555\test\saier-a600n-2260-usa4g-aal-bg95-ui-v1.0-6\pressure.c"
  61  00D3  1F00     E  	clr rc
  61  00D4  0700     E  	mov a,rb
  61  00D5  C3E6 0003   	laddm a,[998]
  61  00D7  0700     E  	mov a,rc
  61  00D8  D3E7 0003   	ladcm a,[999]
  62  00DA              #line 62 "k:\55555555555555\test\saier-a600n-2260-usa4g-aal-bg95-ui-v1.0-6\pressure.c"
  62  00DA  0700     E  	mov a,rb
  62  00DB  C3E4 0003   	laddm a,[996]
  62  00DD  0700     E  	mov a,rc
  62  00DE  D3E5 0003   	ladcm a,[997]
  63  00E0              #line 63 "k:\55555555555555\test\saier-a600n-2260-usa4g-aal-bg95-ui-v1.0-6\pressure.c"
  63  00E0  0700     E  	mov a,rb
  63  00E1  C3E2 0003   	laddm a,[994]
  63  00E3  0700     E  	mov a,rc
  63  00E4  D3E3 0003   	ladcm a,[995]
  64  00E6              #line 64 "k:\55555555555555\test\saier-a600n-2260-usa4g-aal-bg95-ui-v1.0-6\pressure.c"
  64  00E6  0700     E  	mov a,rb
  64  00E7  C3E0 0003   	laddm a,[992]
  64  00E9  0700     E  	mov a,rc
  64  00EA  D3E1 0003   	ladcm a,[993]
  64  00EC              _L7:
  69  00EC              #line 69 "k:\55555555555555\test\saier-a600n-2260-usa4g-aal-bg95-ui-v1.0-6\pressure.c"
  69  00EC  0F02        	mov a,2
  69  00ED              	fcall _Samlpe_Adc1
  69  00F4  0700     E  	mov a,ra
  69  00F5  C0F4 0003   	lmov [1012],a
  69  00F7  0700     E  	mov a,rb
  69  00F8  C0F5 0003   	lmov [1013],a
  70  00FA              #line 70 "k:\55555555555555\test\saier-a600n-2260-usa4g-aal-bg95-ui-v1.0-6\pressure.c"
  70  00FA  0F67        	mov a,103
  70  00FB  C274 0003   	lsub a,[1012]
  70  00FD  0F01        	mov a,1
  70  00FE  D275 0003   	lsbc a,[1013]
  70  0100  380A        	snz c
  70  0101  2800     R  	jmp _L8
  72  0102              #line 72 "k:\55555555555555\test\saier-a600n-2260-usa4g-aal-bg95-ui-v1.0-6\pressure.c"
  72  0102  0F02        	mov a,2
  72  0103              	fcall _Samlpe_Adc1
  72  010A  0700     E  	mov a,ra
  72  010B  C0F4 0003   	lmov [1012],a
  72  010D  0700     E  	mov a,rb
  72  010E  C0F5 0003   	lmov [1013],a
  73  0110              #line 73 "k:\55555555555555\test\saier-a600n-2260-usa4g-aal-bg95-ui-v1.0-6\pressure.c"
  73  0110  0F67        	mov a,103
  73  0111  C274 0003   	lsub a,[1012]
  73  0113  0F01        	mov a,1
  73  0114  D275 0003   	lsbc a,[1013]
  73  0116  380A        	snz c
  73  0117  2800     R  	jmp _L8
  75  0118              #line 75 "k:\55555555555555\test\saier-a600n-2260-usa4g-aal-bg95-ui-v1.0-6\pressure.c"
  75  0118  0F2B        	mov a,43
  75  0119  0080     E  	mov _BPPLAY_ONE_INFOEND_2[0],a
  75  011A  1F00     E  	clr _BPPLAY_ONE_INFOEND_2[1]
  75  011B              	fcall _BPPLAY_ONE_INFOEND
  78  0122              #line 78 "k:\55555555555555\test\saier-a600n-2260-usa4g-aal-bg95-ui-v1.0-6\pressure.c"
  78  0122  35A7        	clr [39].3
文件：pressure.c   编译器版本 HGASM 0202 页次6

  79  0123              #line 79 "k:\55555555555555\test\saier-a600n-2260-usa4g-aal-bg95-ui-v1.0-6\pressure.c"
  79  0123  3000     E  	set _R_alarm_clock[0].0
  80  0124              #line 80 "k:\55555555555555\test\saier-a600n-2260-usa4g-aal-bg95-ui-v1.0-6\pressure.c"
  80  0124  0F01        	mov a,1
  80  0125              	fcall _SBR_DISP_DOT_BTT
  81  012C              #line 81 "k:\55555555555555\test\saier-a600n-2260-usa4g-aal-bg95-ui-v1.0-6\pressure.c"
  81  012C  0F30        	mov a,48
  81  012D  0080     E  	mov _Delay_ms_2[0],a
  81  012E  0F75        	mov a,117
  81  012F  0080     E  	mov _Delay_ms_2[1],a
  81  0130              	fcall _Delay_ms
  82  0137              #line 82 "k:\55555555555555\test\saier-a600n-2260-usa4g-aal-bg95-ui-v1.0-6\pressure.c"
  82  0137  2800     R  	jmp _L1
  82  0138              _L8:
  85  0138              #line 85 "k:\55555555555555\test\saier-a600n-2260-usa4g-aal-bg95-ui-v1.0-6\pressure.c"
  85  0138  31A7        	set [39].3
  86  0139              #line 86 "k:\55555555555555\test\saier-a600n-2260-usa4g-aal-bg95-ui-v1.0-6\pressure.c"
  86  0139  3400     E  	clr _MODEFLAG[0].2
  87  013A              #line 87 "k:\55555555555555\test\saier-a600n-2260-usa4g-aal-bg95-ui-v1.0-6\pressure.c"
  87  013A  DF32 0003   	lclr [946]
  87  013C  DF33 0003   	lclr [947]
  88  013E              #line 88 "k:\55555555555555\test\saier-a600n-2260-usa4g-aal-bg95-ui-v1.0-6\pressure.c"
  88  013E  DF5E 0003   	lclr [990]
  88  0140              _L14:
  91  0140              #line 91 "k:\55555555555555\test\saier-a600n-2260-usa4g-aal-bg95-ui-v1.0-6\pressure.c"
  91  0140  0F1E        	mov a,30
  91  0141  C3B0 0003   	laddm a,[944]
  91  0143  0F00        	mov a,0
  91  0144  D3B1 0003   	ladcm a,[945]
  92  0146              #line 92 "k:\55555555555555\test\saier-a600n-2260-usa4g-aal-bg95-ui-v1.0-6\pressure.c"
  92  0146  0F21        	mov a,33
  92  0147  C230 0003   	lsub a,[944]
  92  0149  0F01        	mov a,1
  92  014A  D231 0003   	lsbc a,[945]
  92  014C  3C0A        	sz c
  92  014D  2800     R  	jmp _L10
  94  014E              #line 94 "k:\55555555555555\test\saier-a600n-2260-usa4g-aal-bg95-ui-v1.0-6\pressure.c"
  94  014E  0F22        	mov a,34
  94  014F  C0B0 0003   	lmov [944],a
  94  0151  0F01        	mov a,1
  94  0152  C0B1 0003   	lmov [945],a
  94  0154              _L10:
  96  0154              #line 96 "k:\55555555555555\test\saier-a600n-2260-usa4g-aal-bg95-ui-v1.0-6\pressure.c"
  96  0154  0F22        	mov a,34
  96  0155  C230 0003   	lsub a,[944]
  96  0157  0F01        	mov a,1
  96  0158  D231 0003   	lsbc a,[945]
  96  015A  380A        	snz c
  96  015B  2800     R  	jmp _L11
  96  015C  0F03        	mov a,3
  96  015D  C25E 0003   	lsub a,[990]
  96  015F  380A        	snz c
  96  0160  2800     R  	jmp _L11
  98  0161              #line 98 "k:\55555555555555\test\saier-a600n-2260-usa4g-aal-bg95-ui-v1.0-6\pressure.c"
  98  0161  1F00     E  	clr _ERFLAG[0]
  99  0162              #line 99 "k:\55555555555555\test\saier-a600n-2260-usa4g-aal-bg95-ui-v1.0-6\pressure.c"
  99  0162              	fcall _DEFLATION
  99  0169  2800     R  	jmp _L12
  99  016A              _L11:
 103  016A              #line 103 "k:\55555555555555\test\saier-a600n-2260-usa4g-aal-bg95-ui-v1.0-6\pressure.c"
文件：pressure.c   编译器版本 HGASM 0202 页次7

 103  016A  3400     E  	clr _ERFLAG[0].0
 104  016B              #line 104 "k:\55555555555555\test\saier-a600n-2260-usa4g-aal-bg95-ui-v1.0-6\pressure.c"
 104  016B  3000     E  	set _ERFLAG[0].2
 104  016C              _L12:
 107  016C              #line 107 "k:\55555555555555\test\saier-a600n-2260-usa4g-aal-bg95-ui-v1.0-6\pressure.c"
 107  016C  3C00     E  	sz _ERFLAG[0].0
 107  016D  2800     R  	jmp _L14
 108  016E              #line 108 "k:\55555555555555\test\saier-a600n-2260-usa4g-aal-bg95-ui-v1.0-6\pressure.c"
 108  016E              	fcall _SBR_DISP_DOT_JIA_OFF
 109  0175              #line 109 "k:\55555555555555\test\saier-a600n-2260-usa4g-aal-bg95-ui-v1.0-6\pressure.c"
 109  0175              	fcall _SBR_DISP_DOT_JIAN_OFF
 110  017C              #line 110 "k:\55555555555555\test\saier-a600n-2260-usa4g-aal-bg95-ui-v1.0-6\pressure.c"
 110  017C  35A7        	clr [39].3
 111  017D              #line 111 "k:\55555555555555\test\saier-a600n-2260-usa4g-aal-bg95-ui-v1.0-6\pressure.c"
 111  017D              	fcall _STP_PUMP_OFF
 112  0184              #line 112 "k:\55555555555555\test\saier-a600n-2260-usa4g-aal-bg95-ui-v1.0-6\pressure.c"
 112  0184  1080     E  	sz _ERFLAG[0]
 112  0185  2800     R  	jmp _L15
 116  0186              #line 116 "k:\55555555555555\test\saier-a600n-2260-usa4g-aal-bg95-ui-v1.0-6\pressure.c"
 116  0186  0F87        	mov a,-121
 116  0187  0080     E  	mov _PRE_SYS[0],a
 116  0188  1F00     E  	clr _PRE_SYS[1]
 117  0189              #line 117 "k:\55555555555555\test\saier-a600n-2260-usa4g-aal-bg95-ui-v1.0-6\pressure.c"
 117  0189  0F78        	mov a,120
 117  018A  0080     E  	mov _PRE_DIA[0],a
 117  018B  1F00     E  	clr _PRE_DIA[1]
 118  018C              #line 118 "k:\55555555555555\test\saier-a600n-2260-usa4g-aal-bg95-ui-v1.0-6\pressure.c"
 118  018C  0F50        	mov a,80
 118  018D  C0C3 0003   	lmov [963],a
 122  018F              #line 122 "k:\55555555555555\test\saier-a600n-2260-usa4g-aal-bg95-ui-v1.0-6\pressure.c"
 122  018F  0700     E  	mov a,_PRE_SYS[0]
 122  0190  0200     E  	sub a,_PRE_DIA[0]
 122  0191  0080     E  	mov rd,a
 122  0192  0700     E  	mov a,_PRE_SYS[1]
 122  0193  1200     E  	sbc a,_PRE_DIA[1]
 122  0194  0080     E  	mov re,a
 122  0195  0F96        	mov a,150
 122  0196  0200     E  	sub a,rd
 122  0197  0F00        	mov a,0
 122  0198  1200     E  	sbc a,re
 122  0199  380A        	snz c
 122  019A  2800     R  	jmp _L16
 122  019B  0F18        	mov a,24
 122  019C  0200     E  	sub a,_PRE_DIA[0]
 122  019D  0F00        	mov a,0
 122  019E  1200     E  	sbc a,_PRE_DIA[1]
 122  019F  3C0A        	sz c
 122  01A0  2800     R  	jmp _L16
 122  01A1  0700     E  	mov a,_PRE_SYS[0]
 122  01A2  0200     E  	sub a,_PRE_DIA[0]
 122  01A3  0700     E  	mov a,_PRE_SYS[1]
 122  01A4  1200     E  	sbc a,_PRE_DIA[1]
 122  01A5  380A        	snz c
 122  01A6  2800     R  	jmp _L16
 122  01A7  0F25        	mov a,37
 122  01A8  C243 0003   	lsub a,[963]
 122  01AA  3C0A        	sz c
 122  01AB  2800     R  	jmp _L16
 122  01AC  0FCC        	mov a,204
 122  01AD  C243 0003   	lsub a,[963]
文件：pressure.c   编译器版本 HGASM 0202 页次8

 122  01AF  3C0A        	sz c
 122  01B0  2800     R  	jmp _L17
 122  01B1              _L16:
 124  01B1              #line 124 "k:\55555555555555\test\saier-a600n-2260-usa4g-aal-bg95-ui-v1.0-6\pressure.c"
 124  01B1              	fcall _SBR_DISP_E4_ON
 125  01B8              #line 125 "k:\55555555555555\test\saier-a600n-2260-usa4g-aal-bg95-ui-v1.0-6\pressure.c"
 125  01B8              	fcall _SBR_DISP_DOT_HEART_OFF
 126  01BF              #line 126 "k:\55555555555555\test\saier-a600n-2260-usa4g-aal-bg95-ui-v1.0-6\pressure.c"
 126  01BF  0F2C        	mov a,44
 126  01C0  0080     E  	mov _BPPLAY_ONE_INFOEND_2[0],a
 126  01C1  1F00     E  	clr _BPPLAY_ONE_INFOEND_2[1]
 126  01C2              	fcall _BPPLAY_ONE_INFOEND
 127  01C9              #line 127 "k:\55555555555555\test\saier-a600n-2260-usa4g-aal-bg95-ui-v1.0-6\pressure.c"
 127  01C9  0FA6        	mov a,-90
 127  01CA  C0EC 0003   	lmov [1004],a
 127  01CC  0F40        	mov a,64
 127  01CD  C0ED 0003   	lmov [1005],a
 127  01CF  2800     R  	jmp _L1
 127  01D0              _L17:
 133  01D0              #line 133 "k:\55555555555555\test\saier-a600n-2260-usa4g-aal-bg95-ui-v1.0-6\pressure.c"
 133  01D0  0700     E  	mov a,_PRE_SYS[0]
 133  01D1  C0F8 0003   	lmov [1016],a
 133  01D3  0700     E  	mov a,_PRE_SYS[1]
 133  01D4  C0F9 0003   	lmov [1017],a
 134  01D6              #line 134 "k:\55555555555555\test\saier-a600n-2260-usa4g-aal-bg95-ui-v1.0-6\pressure.c"
 134  01D6  0700     E  	mov a,_PRE_DIA[0]
 134  01D7  C0F6 0003   	lmov [1014],a
 134  01D9  0700     E  	mov a,_PRE_DIA[1]
 134  01DA  C0F7 0003   	lmov [1015],a
 135  01DC              #line 135 "k:\55555555555555\test\saier-a600n-2260-usa4g-aal-bg95-ui-v1.0-6\pressure.c"
 135  01DC  C743 0003   	lmov a,[963]
 135  01DE  C091 0003   	lmov [913],a
 136  01E0              #line 136 "k:\55555555555555\test\saier-a600n-2260-usa4g-aal-bg95-ui-v1.0-6\pressure.c"
 136  01E0  0700     E  	mov a,_PRE_SYS[0]
 136  01E1  0080     E  	mov _disp_sys_2[0],a
 136  01E2  0700     E  	mov a,_PRE_SYS[1]
 136  01E3  0080     E  	mov _disp_sys_2[1],a
 136  01E4              	fcall _disp_sys
 137  01EB              #line 137 "k:\55555555555555\test\saier-a600n-2260-usa4g-aal-bg95-ui-v1.0-6\pressure.c"
 137  01EB  0700     E  	mov a,_PRE_DIA[0]
 137  01EC  0080     E  	mov _disp_dia_2[0],a
 137  01ED  0700     E  	mov a,_PRE_DIA[1]
 137  01EE  0080     E  	mov _disp_dia_2[1],a
 137  01EF              	fcall _disp_dia
 138  01F6              #line 138 "k:\55555555555555\test\saier-a600n-2260-usa4g-aal-bg95-ui-v1.0-6\pressure.c"
 138  01F6  C743 0003   	lmov a,[963]
 138  01F8  0080     E  	mov _disp_pu_2[0],a
 138  01F9  1F00     E  	clr _disp_pu_2[1]
 138  01FA              	fcall _disp_pu
 139  0201              #line 139 "k:\55555555555555\test\saier-a600n-2260-usa4g-aal-bg95-ui-v1.0-6\pressure.c"
 139  0201              	fcall _SBR_DISP_DOT_ASCVD_OFF
 140  0208              #line 140 "k:\55555555555555\test\saier-a600n-2260-usa4g-aal-bg95-ui-v1.0-6\pressure.c"
 140  0208  0700     E  	mov a,_PRE_SYS[0]
 140  0209  0200     E  	sub a,_PRE_DIA[0]
 140  020A  0080     E  	mov rd,a
 140  020B  0700     E  	mov a,_PRE_SYS[1]
 140  020C  1200     E  	sbc a,_PRE_DIA[1]
 140  020D  0080     E  	mov re,a
 140  020E  0F3B        	mov a,59
 140  020F  0200     E  	sub a,rd
文件：pressure.c   编译器版本 HGASM 0202 页次9

 140  0210  0F00        	mov a,0
 140  0211  1200     E  	sbc a,re
 140  0212  3C0A        	sz c
 140  0213  2800     R  	jmp _L18
 142  0214              #line 142 "k:\55555555555555\test\saier-a600n-2260-usa4g-aal-bg95-ui-v1.0-6\pressure.c"
 142  0214              	fcall _SBR_DISP_DOT_ASCVD_ON
 143  021B              #line 143 "k:\55555555555555\test\saier-a600n-2260-usa4g-aal-bg95-ui-v1.0-6\pressure.c"
 143  021B  3000     E  	set _R_alarm_clock[0].4
 143  021C  2800     R  	jmp _L19
 143  021D              _L18:
 147  021D              #line 147 "k:\55555555555555\test\saier-a600n-2260-usa4g-aal-bg95-ui-v1.0-6\pressure.c"
 147  021D              	fcall _SBR_DISP_DOT_ASCVD_OFF
 148  0224              #line 148 "k:\55555555555555\test\saier-a600n-2260-usa4g-aal-bg95-ui-v1.0-6\pressure.c"
 148  0224  3400     E  	clr _R_alarm_clock[0].4
 148  0225              _L19:
 150  0225              #line 150 "k:\55555555555555\test\saier-a600n-2260-usa4g-aal-bg95-ui-v1.0-6\pressure.c"
 150  0225              	fcall _SBR_DISP_DOT_HEART_OFF
 151  022C              #line 151 "k:\55555555555555\test\saier-a600n-2260-usa4g-aal-bg95-ui-v1.0-6\pressure.c"
 151  022C  0F02        	mov a,2
 151  022D  C27B 0003   	lsub a,[1019]
 151  022F  3C0A        	sz c
 151  0230  2800     R  	jmp _L20
 154  0231              #line 154 "k:\55555555555555\test\saier-a600n-2260-usa4g-aal-bg95-ui-v1.0-6\pressure.c"
 154  0231              	fcall _SBR_DISP_DOT_HEART_ON
 155  0238              #line 155 "k:\55555555555555\test\saier-a600n-2260-usa4g-aal-bg95-ui-v1.0-6\pressure.c"
 155  0238              	fcall _SBR_DISP_DOT_HEART2_ON
 155  023F              _L20:
 157  023F              #line 157 "k:\55555555555555\test\saier-a600n-2260-usa4g-aal-bg95-ui-v1.0-6\pressure.c"
 157  023F              	fcall _DISPLAYWHO
 158  0246              #line 158 "k:\55555555555555\test\saier-a600n-2260-usa4g-aal-bg95-ui-v1.0-6\pressure.c"
 158  0246  33F7        	set [119].7
 159  0247              #line 159 "k:\55555555555555\test\saier-a600n-2260-usa4g-aal-bg95-ui-v1.0-6\pressure.c"
 159  0247  3777        	clr [119].6
 160  0248              #line 160 "k:\55555555555555\test\saier-a600n-2260-usa4g-aal-bg95-ui-v1.0-6\pressure.c"
 160  0248              	fcall _BPPLAYINFOEND
 161  024F              #line 161 "k:\55555555555555\test\saier-a600n-2260-usa4g-aal-bg95-ui-v1.0-6\pressure.c"
 161  024F              	fcall _BPPLAYWHO
 162  0256              #line 162 "k:\55555555555555\test\saier-a600n-2260-usa4g-aal-bg95-ui-v1.0-6\pressure.c"
 162  0256  0F88        	mov a,-120
 162  0257  0080     E  	mov _Delay_ms_2[0],a
 162  0258  0F13        	mov a,19
 162  0259  0080     E  	mov _Delay_ms_2[1],a
 162  025A              	fcall _Delay_ms
 163  0261              #line 163 "k:\55555555555555\test\saier-a600n-2260-usa4g-aal-bg95-ui-v1.0-6\pressure.c"
 163  0261  3377        	set [119].6
 164  0262              #line 164 "k:\55555555555555\test\saier-a600n-2260-usa4g-aal-bg95-ui-v1.0-6\pressure.c"
 164  0262  0FE0        	mov a,-32
 164  0263  0080     E  	mov _Delay_ms_2[0],a
 164  0264  0F2E        	mov a,46
 164  0265  0080     E  	mov _Delay_ms_2[1],a
 164  0266              	fcall _Delay_ms
 165  026D              #line 165 "k:\55555555555555\test\saier-a600n-2260-usa4g-aal-bg95-ui-v1.0-6\pressure.c"
 165  026D  3777        	clr [119].6
 166  026E              #line 166 "k:\55555555555555\test\saier-a600n-2260-usa4g-aal-bg95-ui-v1.0-6\pressure.c"
 166  026E  3400     E  	clr _Usflag[0].0
 168  026F              #line 168 "k:\55555555555555\test\saier-a600n-2260-usa4g-aal-bg95-ui-v1.0-6\pressure.c"
 168  026F              	fcall _SBR_DISP_DOT_GPRST_ON
 169  0276              #line 169 "k:\55555555555555\test\saier-a600n-2260-usa4g-aal-bg95-ui-v1.0-6\pressure.c"
 169  0276              	fcall _SBR_DISP_DOT_GPRSS_ON
 170  027D              #line 170 "k:\55555555555555\test\saier-a600n-2260-usa4g-aal-bg95-ui-v1.0-6\pressure.c"
文件：pressure.c   编译器版本 HGASM 0202 页次10

 170  027D              	fcall _test_data_int
 171  0284              #line 171 "k:\55555555555555\test\saier-a600n-2260-usa4g-aal-bg95-ui-v1.0-6\pressure.c"
 171  0284              	fcall _START_GSM
 171  028B  0080     E  	mov ra,a
 171  028C  0700     E  	mov a,ra
 171  028D  0080     E  	mov _keyvalGSM[0],a
 173  028E              #line 173 "k:\55555555555555\test\saier-a600n-2260-usa4g-aal-bg95-ui-v1.0-6\pressure.c"
 173  028E  3994        	snz [20].3
 173  028F  2800     R  	jmp _L21
 173  0290  3800     E  	snz _KEYFLAG[0].1
 173  0291  2800     R  	jmp _L22
 173  0292              _L21:
 176  0292              #line 176 "k:\55555555555555\test\saier-a600n-2260-usa4g-aal-bg95-ui-v1.0-6\pressure.c"
 176  0292  3C00     E  	sz _MODEFLAG[0].5
 176  0293  2800     R  	jmp _L23
 178  0294              #line 178 "k:\55555555555555\test\saier-a600n-2260-usa4g-aal-bg95-ui-v1.0-6\pressure.c"
 178  0294  0F3A        	mov a,58
 178  0295              	fcall _SBR_EEPROM_READDATA
 178  029C  0080     E  	mov ra,a
 178  029D  0700     E  	mov a,ra
 178  029E  0080     E  	mov _GSM_DATA_CNT[0],a
 179  029F              #line 179 "k:\55555555555555\test\saier-a600n-2260-usa4g-aal-bg95-ui-v1.0-6\pressure.c"
 179  029F  1480     E  	inc _GSM_DATA_CNT[0]
 180  02A0              #line 180 "k:\55555555555555\test\saier-a600n-2260-usa4g-aal-bg95-ui-v1.0-6\pressure.c"
 180  02A0  0F31        	mov a,49
 180  02A1  0200     E  	sub a,_GSM_DATA_CNT[0]
 180  02A2  3C0A        	sz c
 180  02A3  2800     R  	jmp _L24
 182  02A4              #line 182 "k:\55555555555555\test\saier-a600n-2260-usa4g-aal-bg95-ui-v1.0-6\pressure.c"
 182  02A4  0F32        	mov a,50
 182  02A5  0080     E  	mov _GSM_DATA_CNT[0],a
 182  02A6              _L24:
 184  02A6              #line 184 "k:\55555555555555\test\saier-a600n-2260-usa4g-aal-bg95-ui-v1.0-6\pressure.c"
 184  02A6  0700     E  	mov a,_GSM_DATA_CNT[0]
 184  02A7  0080     E  	mov _EEPROM_WRITING_2[0],a
 184  02A8  0F3A        	mov a,58
 184  02A9  2800     R  	jmp _L97
 184  02AA              _L23:
 188  02AA              #line 188 "k:\55555555555555\test\saier-a600n-2260-usa4g-aal-bg95-ui-v1.0-6\pressure.c"
 188  02AA  0F3B        	mov a,59
 188  02AB              	fcall _SBR_EEPROM_READDATA
 188  02B2  0080     E  	mov ra,a
 188  02B3  0700     E  	mov a,ra
 188  02B4  0080     E  	mov _GSM_DATA_CNT[0],a
 189  02B5              #line 189 "k:\55555555555555\test\saier-a600n-2260-usa4g-aal-bg95-ui-v1.0-6\pressure.c"
 189  02B5  1480     E  	inc _GSM_DATA_CNT[0]
 190  02B6              #line 190 "k:\55555555555555\test\saier-a600n-2260-usa4g-aal-bg95-ui-v1.0-6\pressure.c"
 190  02B6  0F31        	mov a,49
 190  02B7  0200     E  	sub a,_GSM_DATA_CNT[0]
 190  02B8  3C0A        	sz c
 190  02B9  2800     R  	jmp _L26
 192  02BA              #line 192 "k:\55555555555555\test\saier-a600n-2260-usa4g-aal-bg95-ui-v1.0-6\pressure.c"
 192  02BA  0F32        	mov a,50
 192  02BB  0080     E  	mov _GSM_DATA_CNT[0],a
 192  02BC              _L26:
 194  02BC              #line 194 "k:\55555555555555\test\saier-a600n-2260-usa4g-aal-bg95-ui-v1.0-6\pressure.c"
 194  02BC  0700     E  	mov a,_GSM_DATA_CNT[0]
 194  02BD  0080     E  	mov _EEPROM_WRITING_2[0],a
 194  02BE  0F3B        	mov a,59
 194  02BF              _L97:
文件：pressure.c   编译器版本 HGASM 0202 页次11

 194  02BF              	fcall _EEPROM_WRITING
 196  02C6              #line 196 "k:\55555555555555\test\saier-a600n-2260-usa4g-aal-bg95-ui-v1.0-6\pressure.c"
 196  02C6              	fcall _SBR_SAVE_MEMORY
 196  02CD  2800     R  	jmp _L101
 196  02CE              _L22:
 203  02CE              #line 203 "k:\55555555555555\test\saier-a600n-2260-usa4g-aal-bg95-ui-v1.0-6\pressure.c"
 203  02CE  1080     E  	sz _keyvalGSM[0]
 203  02CF  2800     R  	jmp _L27
 205  02D0              #line 205 "k:\55555555555555\test\saier-a600n-2260-usa4g-aal-bg95-ui-v1.0-6\pressure.c"
 205  02D0  0F98        	mov a,-104
 205  02D1  0080     E  	mov _Delay_ms_2[0],a
 205  02D2  0F3A        	mov a,58
 205  02D3  0080     E  	mov _Delay_ms_2[1],a
 205  02D4              	fcall _Delay_ms
 206  02DB              #line 206 "k:\55555555555555\test\saier-a600n-2260-usa4g-aal-bg95-ui-v1.0-6\pressure.c"
 206  02DB              	fcall _START_GSM
 206  02E2  0080     E  	mov ra,a
 206  02E3  0700     E  	mov a,ra
 206  02E4  0080     E  	mov _keyvalGSM[0],a
 206  02E5              _L27:
 208  02E5              #line 208 "k:\55555555555555\test\saier-a600n-2260-usa4g-aal-bg95-ui-v1.0-6\pressure.c"
 208  02E5  3C00     E  	sz _MODEFLAG[0].5
 208  02E6  2800     R  	jmp _L28
 210  02E7              #line 210 "k:\55555555555555\test\saier-a600n-2260-usa4g-aal-bg95-ui-v1.0-6\pressure.c"
 210  02E7  0F3A        	mov a,58
 210  02E8              	fcall _SBR_EEPROM_READDATA
 210  02EF  0080     E  	mov ra,a
 210  02F0  0700     E  	mov a,ra
 210  02F1  0080     E  	mov _GSM_DATA_CNT[0],a
 211  02F2              #line 211 "k:\55555555555555\test\saier-a600n-2260-usa4g-aal-bg95-ui-v1.0-6\pressure.c"
 211  02F2  1480     E  	inc _GSM_DATA_CNT[0]
 212  02F3              #line 212 "k:\55555555555555\test\saier-a600n-2260-usa4g-aal-bg95-ui-v1.0-6\pressure.c"
 212  02F3  0F31        	mov a,49
 212  02F4  0200     E  	sub a,_GSM_DATA_CNT[0]
 212  02F5  3C0A        	sz c
 212  02F6  2800     R  	jmp _L29
 214  02F7              #line 214 "k:\55555555555555\test\saier-a600n-2260-usa4g-aal-bg95-ui-v1.0-6\pressure.c"
 214  02F7  0F32        	mov a,50
 214  02F8  0080     E  	mov _GSM_DATA_CNT[0],a
 214  02F9              _L29:
 216  02F9              #line 216 "k:\55555555555555\test\saier-a600n-2260-usa4g-aal-bg95-ui-v1.0-6\pressure.c"
 216  02F9  0700     E  	mov a,_GSM_DATA_CNT[0]
 216  02FA  0080     E  	mov _EEPROM_WRITING_2[0],a
 216  02FB  0F3A        	mov a,58
 216  02FC  2800     R  	jmp _L98
 216  02FD              _L28:
 220  02FD              #line 220 "k:\55555555555555\test\saier-a600n-2260-usa4g-aal-bg95-ui-v1.0-6\pressure.c"
 220  02FD  0F3B        	mov a,59
 220  02FE              	fcall _SBR_EEPROM_READDATA
 220  0305  0080     E  	mov ra,a
 220  0306  0700     E  	mov a,ra
 220  0307  0080     E  	mov _GSM_DATA_CNT[0],a
 221  0308              #line 221 "k:\55555555555555\test\saier-a600n-2260-usa4g-aal-bg95-ui-v1.0-6\pressure.c"
 221  0308  1480     E  	inc _GSM_DATA_CNT[0]
 222  0309              #line 222 "k:\55555555555555\test\saier-a600n-2260-usa4g-aal-bg95-ui-v1.0-6\pressure.c"
 222  0309  0F31        	mov a,49
 222  030A  0200     E  	sub a,_GSM_DATA_CNT[0]
 222  030B  3C0A        	sz c
 222  030C  2800     R  	jmp _L31
 224  030D              #line 224 "k:\55555555555555\test\saier-a600n-2260-usa4g-aal-bg95-ui-v1.0-6\pressure.c"
文件：pressure.c   编译器版本 HGASM 0202 页次12

 224  030D  0F32        	mov a,50
 224  030E  0080     E  	mov _GSM_DATA_CNT[0],a
 224  030F              _L31:
 226  030F              #line 226 "k:\55555555555555\test\saier-a600n-2260-usa4g-aal-bg95-ui-v1.0-6\pressure.c"
 226  030F  0700     E  	mov a,_GSM_DATA_CNT[0]
 226  0310  0080     E  	mov _EEPROM_WRITING_2[0],a
 226  0311  0F3B        	mov a,59
 226  0312              _L98:
 226  0312              	fcall _EEPROM_WRITING
 228  0319              #line 228 "k:\55555555555555\test\saier-a600n-2260-usa4g-aal-bg95-ui-v1.0-6\pressure.c"
 228  0319              	fcall _SBR_SAVE_MEMORY
 231  0320              #line 231 "k:\55555555555555\test\saier-a600n-2260-usa4g-aal-bg95-ui-v1.0-6\pressure.c"
 231  0320  3994        	snz [20].3
 231  0321  2800     R  	jmp _L101
 231  0322  3C00     E  	sz _KEYFLAG[0].1
 231  0323  2800     R  	jmp _L101
 239  0324              #line 239 "k:\55555555555555\test\saier-a600n-2260-usa4g-aal-bg95-ui-v1.0-6\pressure.c"
 239  0324  1080     E  	sz _keyvalGSM[0]
 239  0325  2800     R  	jmp _L84
 241  0326              #line 241 "k:\55555555555555\test\saier-a600n-2260-usa4g-aal-bg95-ui-v1.0-6\pressure.c"
 241  0326  3400     E  	clr _gu8v_uart_flag[0].5
 243  0327              #line 243 "k:\55555555555555\test\saier-a600n-2260-usa4g-aal-bg95-ui-v1.0-6\pressure.c"
 243  0327  3000     E  	set _Usflag[0].0
 244  0328              #line 244 "k:\55555555555555\test\saier-a600n-2260-usa4g-aal-bg95-ui-v1.0-6\pressure.c"
 244  0328              	fcall _GSM_OFF
 245  032F              #line 245 "k:\55555555555555\test\saier-a600n-2260-usa4g-aal-bg95-ui-v1.0-6\pressure.c"
 245  032F  0F1A        	mov a,26
 245  0330  C21F 0003   	lsub a,[927]
 245  0332  380A        	snz c
 245  0333  2800     R  	jmp _L35
 247  0334              #line 247 "k:\55555555555555\test\saier-a600n-2260-usa4g-aal-bg95-ui-v1.0-6\pressure.c"
 247  0334  0F07        	mov a,7
 247  0335  C09F 0003   	lmov [927],a
 247  0337  2800     R  	jmp _L36
 247  0338              _L35:
 251  0338              #line 251 "k:\55555555555555\test\saier-a600n-2260-usa4g-aal-bg95-ui-v1.0-6\pressure.c"
 251  0338  0F08        	mov a,8
 251  0339  C09F 0003   	lmov [927],a
 251  033B              _L36:
 253  033B              #line 253 "k:\55555555555555\test\saier-a600n-2260-usa4g-aal-bg95-ui-v1.0-6\pressure.c"
 253  033B  C71F 0003   	lmov a,[927]
 253  033D  0080     E  	mov ra,a
 253  033E  0700     E  	mov a,ra
 253  033F              	fcall _SBR_DISP_E_NO
 254  0346              #line 254 "k:\55555555555555\test\saier-a600n-2260-usa4g-aal-bg95-ui-v1.0-6\pressure.c"
 254  0346              	fcall _SBR_DISP_DOT_GPRST_OFF
 255  034D              #line 255 "k:\55555555555555\test\saier-a600n-2260-usa4g-aal-bg95-ui-v1.0-6\pressure.c"
 255  034D              	fcall _SBR_DISP_DOT_GPRSS_OFF
 256  0354              #line 256 "k:\55555555555555\test\saier-a600n-2260-usa4g-aal-bg95-ui-v1.0-6\pressure.c"
 256  0354  0F40        	mov a,64
 256  0355  0080     E  	mov _Delay_ms_2[0],a
 256  0356  0F9C        	mov a,-100
 256  0357  0080     E  	mov _Delay_ms_2[1],a
 256  0358              	fcall _Delay_ms
 259  035F              #line 259 "k:\55555555555555\test\saier-a600n-2260-usa4g-aal-bg95-ui-v1.0-6\pressure.c"
 259  035F  3994        	snz [20].3
 259  0360  2800     R  	jmp _L101
 259  0361  3C00     E  	sz _KEYFLAG[0].1
 259  0362  2800     R  	jmp _L101
 259  0363  2800     R  	jmp _L105
文件：pressure.c   编译器版本 HGASM 0202 页次13

 259  0364              _L41:
 295  0364              #line 295 "k:\55555555555555\test\saier-a600n-2260-usa4g-aal-bg95-ui-v1.0-6\pressure.c"
 295  0364  1580     E  	dec _GSM_DATA_CNT[0]
 296  0365              #line 296 "k:\55555555555555\test\saier-a600n-2260-usa4g-aal-bg95-ui-v1.0-6\pressure.c"
 296  0365  3C00     E  	sz _MODEFLAG[0].5
 296  0366  2800     R  	jmp _L44
 298  0367              #line 298 "k:\55555555555555\test\saier-a600n-2260-usa4g-aal-bg95-ui-v1.0-6\pressure.c"
 298  0367  0700     E  	mov a,_GSM_DATA_CNT[0]
 298  0368  0080     E  	mov _EEPROM_WRITING_2[0],a
 298  0369  0F3A        	mov a,58
 298  036A              _L99:
 302  036A              #line 302 "k:\55555555555555\test\saier-a600n-2260-usa4g-aal-bg95-ui-v1.0-6\pressure.c"
 302  036A              	fcall _EEPROM_WRITING
 306  0371              #line 306 "k:\55555555555555\test\saier-a600n-2260-usa4g-aal-bg95-ui-v1.0-6\pressure.c"
 306  0371  1E00     E  	snz _GSM_DATA_CNT[0]
 306  0372  2800     R  	jmp _L46
 306  0373              _L84:
 286  0373              #line 286 "k:\55555555555555\test\saier-a600n-2260-usa4g-aal-bg95-ui-v1.0-6\pressure.c"
 286  0373  0700     E  	mov a,_GSM_DATA_CNT[0]
 286  0374  0080     E  	mov ra,a
 286  0375  0700     E  	mov a,ra
 286  0376              	fcall _UPDATA_MEMORY
 287  037D              #line 287 "k:\55555555555555\test\saier-a600n-2260-usa4g-aal-bg95-ui-v1.0-6\pressure.c"
 287  037D              	fcall _GSM_STNT_DATA
 287  0384  0080     E  	mov ra,a
 287  0385  0700     E  	mov a,ra
 287  0386  0080     E  	mov _keyvalGSM[0],a
 288  0387              #line 288 "k:\55555555555555\test\saier-a600n-2260-usa4g-aal-bg95-ui-v1.0-6\pressure.c"
 288  0387  1080     E  	sz _keyvalGSM[0]
 288  0388  2800     R  	jmp _L41
 288  0389              _L46:
 307  0389              #line 307 "k:\55555555555555\test\saier-a600n-2260-usa4g-aal-bg95-ui-v1.0-6\pressure.c"
 307  0389  1E00     E  	snz _keyvalGSM[0]
 307  038A  2800     R  	jmp _L42
 307  038B  2800     R  	jmp _L108
 307  038C              _L44:
 302  038C              #line 302 "k:\55555555555555\test\saier-a600n-2260-usa4g-aal-bg95-ui-v1.0-6\pressure.c"
 302  038C  0700     E  	mov a,_GSM_DATA_CNT[0]
 302  038D  0080     E  	mov _EEPROM_WRITING_2[0],a
 302  038E  0F3B        	mov a,59
 302  038F  2800     R  	jmp _L99
 302  0390              _L42:
 309  0390              #line 309 "k:\55555555555555\test\saier-a600n-2260-usa4g-aal-bg95-ui-v1.0-6\pressure.c"
 309  0390  3400     E  	clr _gu8v_uart_flag[0].5
 311  0391              #line 311 "k:\55555555555555\test\saier-a600n-2260-usa4g-aal-bg95-ui-v1.0-6\pressure.c"
 311  0391  3000     E  	set _Usflag[0].0
 312  0392              #line 312 "k:\55555555555555\test\saier-a600n-2260-usa4g-aal-bg95-ui-v1.0-6\pressure.c"
 312  0392              	fcall _GSM_OFF
 313  0399              #line 313 "k:\55555555555555\test\saier-a600n-2260-usa4g-aal-bg95-ui-v1.0-6\pressure.c"
 313  0399  0F1A        	mov a,26
 313  039A  C21F 0003   	lsub a,[927]
 313  039C  380A        	snz c
 313  039D  2800     R  	jmp _L48
 315  039E              #line 315 "k:\55555555555555\test\saier-a600n-2260-usa4g-aal-bg95-ui-v1.0-6\pressure.c"
 315  039E  0F07        	mov a,7
 315  039F  C09F 0003   	lmov [927],a
 315  03A1  2800     R  	jmp _L49
 315  03A2              _L48:
 319  03A2              #line 319 "k:\55555555555555\test\saier-a600n-2260-usa4g-aal-bg95-ui-v1.0-6\pressure.c"
 319  03A2  0F08        	mov a,8
文件：pressure.c   编译器版本 HGASM 0202 页次14

 319  03A3  C09F 0003   	lmov [927],a
 319  03A5              _L49:
 321  03A5              #line 321 "k:\55555555555555\test\saier-a600n-2260-usa4g-aal-bg95-ui-v1.0-6\pressure.c"
 321  03A5  C71F 0003   	lmov a,[927]
 321  03A7  0080     E  	mov ra,a
 321  03A8  0700     E  	mov a,ra
 321  03A9              	fcall _SBR_DISP_E_NO
 322  03B0              #line 322 "k:\55555555555555\test\saier-a600n-2260-usa4g-aal-bg95-ui-v1.0-6\pressure.c"
 322  03B0              	fcall _SBR_DISP_DOT_GPRST_OFF
 323  03B7              #line 323 "k:\55555555555555\test\saier-a600n-2260-usa4g-aal-bg95-ui-v1.0-6\pressure.c"
 323  03B7              	fcall _SBR_DISP_DOT_GPRSS_OFF
 324  03BE              #line 324 "k:\55555555555555\test\saier-a600n-2260-usa4g-aal-bg95-ui-v1.0-6\pressure.c"
 324  03BE  0F40        	mov a,64
 324  03BF  0080     E  	mov _Delay_ms_2[0],a
 324  03C0  0F9C        	mov a,-100
 324  03C1  0080     E  	mov _Delay_ms_2[1],a
 324  03C2              	fcall _Delay_ms
 327  03C9              #line 327 "k:\55555555555555\test\saier-a600n-2260-usa4g-aal-bg95-ui-v1.0-6\pressure.c"
 327  03C9  3994        	snz [20].3
 327  03CA  2800     R  	jmp _L101
 327  03CB  3C00     E  	sz _KEYFLAG[0].1
 327  03CC  2800     R  	jmp _L101
 334  03CD              #line 334 "k:\55555555555555\test\saier-a600n-2260-usa4g-aal-bg95-ui-v1.0-6\pressure.c"
 334  03CD  0F10        	mov a,16
 334  03CE  0080     E  	mov _Delay_ms_2[0],a
 334  03CF  0F27        	mov a,39
 334  03D0  0080     E  	mov _Delay_ms_2[1],a
 334  03D1              	fcall _Delay_ms
 334  03D8              _L105:
 338  03D8              #line 338 "k:\55555555555555\test\saier-a600n-2260-usa4g-aal-bg95-ui-v1.0-6\pressure.c"
 338  03D8  C778 0003   	lmov a,[1016]
 338  03DA  0080     E  	mov _disp_sys_2[0],a
 338  03DB  C779 0003   	lmov a,[1017]
 338  03DD  0080     E  	mov _disp_sys_2[1],a
 338  03DE              	fcall _disp_sys
 339  03E5              #line 339 "k:\55555555555555\test\saier-a600n-2260-usa4g-aal-bg95-ui-v1.0-6\pressure.c"
 339  03E5  C776 0003   	lmov a,[1014]
 339  03E7  0080     E  	mov _disp_dia_2[0],a
 339  03E8  C777 0003   	lmov a,[1015]
 339  03EA  0080     E  	mov _disp_dia_2[1],a
 339  03EB              	fcall _disp_dia
 340  03F2              #line 340 "k:\55555555555555\test\saier-a600n-2260-usa4g-aal-bg95-ui-v1.0-6\pressure.c"
 340  03F2  C711 0003   	lmov a,[913]
 340  03F4  0080     E  	mov _disp_pu_2[0],a
 340  03F5  1F00     E  	clr _disp_pu_2[1]
 340  03F6              	fcall _disp_pu
 340  03FD              _L106:
 342  03FD              #line 342 "k:\55555555555555\test\saier-a600n-2260-usa4g-aal-bg95-ui-v1.0-6\pressure.c"
 342  03FD  3D94        	sz [20].3
 342  03FE  2800     R  	jmp _L109
 342  03FF  2800     R  	jmp _L101
 342  0400              _L108:
 352  0400              #line 352 "k:\55555555555555\test\saier-a600n-2260-usa4g-aal-bg95-ui-v1.0-6\pressure.c"
 352  0400  3400     E  	clr _gu8v_uart_flag[0].5
 353  0401              #line 353 "k:\55555555555555\test\saier-a600n-2260-usa4g-aal-bg95-ui-v1.0-6\pressure.c"
 353  0401              	fcall _SBR_DISP_DOT_GPRST_ON
 354  0408              #line 354 "k:\55555555555555\test\saier-a600n-2260-usa4g-aal-bg95-ui-v1.0-6\pressure.c"
 354  0408              	fcall _SBR_DISP_DOT_GPRSS_ON
 354  040F  2800     R  	jmp _L106
 354  0410              _L109:
文件：pressure.c   编译器版本 HGASM 0202 页次15

 357  0410              #line 357 "k:\55555555555555\test\saier-a600n-2260-usa4g-aal-bg95-ui-v1.0-6\pressure.c"
 357  0410  3C00     E  	sz _KEYFLAG[0].1
 357  0411  2800     R  	jmp _L101
 372  0412              #line 372 "k:\55555555555555\test\saier-a600n-2260-usa4g-aal-bg95-ui-v1.0-6\pressure.c"
 372  0412  DF6C 0003   	lclr [1004]
 372  0414  DF6D 0003   	lclr [1005]
 373  0416              #line 373 "k:\55555555555555\test\saier-a600n-2260-usa4g-aal-bg95-ui-v1.0-6\pressure.c"
 373  0416              	fcall _key_scan
 373  041D  0080     E  	mov ra,a
 373  041E  0700     E  	mov a,ra
 373  041F  0080     E  	mov _keyval[0],a
 374  0420              #line 374 "k:\55555555555555\test\saier-a600n-2260-usa4g-aal-bg95-ui-v1.0-6\pressure.c"
 374  0420  1700     E  	sdza _keyval[0]
 374  0421  2800     R  	jmp _L1
 376  0422              #line 376 "k:\55555555555555\test\saier-a600n-2260-usa4g-aal-bg95-ui-v1.0-6\pressure.c"
 376  0422  1F00     E  	clr _keyval[0]
 376  0423              _L101:
 377  0423              #line 377 "k:\55555555555555\test\saier-a600n-2260-usa4g-aal-bg95-ui-v1.0-6\pressure.c"
 377  0423  0F8C        	mov a,-116
 377  0424  C0EC 0003   	lmov [1004],a
 377  0426  0F3C        	mov a,60
 377  0427  C0ED 0003   	lmov [1005],a
 377  0429  2800     R  	jmp _L1
 377  042A              _L15:
 384  042A              #line 384 "k:\55555555555555\test\saier-a600n-2260-usa4g-aal-bg95-ui-v1.0-6\pressure.c"
 384  042A  0700     E  	mov a,_ERFLAG[0]
 384  042B  0080     R  	mov _TEST_CON_2[0],a
 384  042C  0700     R  	mov a,_TEST_CON_2[0]
 384  042D  0A02        	sub a,2
 384  042E  3D0A        	sz z
 384  042F  2800     R  	jmp _L55
 384  0430  0A02        	sub a,(4)-(2)
 384  0431  3D0A        	sz z
 384  0432  2800     R  	jmp _L56
 384  0433  0700     R  	mov a,_TEST_CON_2[0]
 384  0434  0A08        	sub a,8
 384  0435  3D0A        	sz z
 384  0436  2800     R  	jmp _L57
 384  0437  0A08        	sub a,(16)-(8)
 384  0438  3D0A        	sz z
 384  0439  2800     R  	jmp _L58
 384  043A  0700     R  	mov a,_TEST_CON_2[0]
 384  043B  0A20        	sub a,32
 384  043C  3D0A        	sz z
 384  043D  2800     R  	jmp _L59
 384  043E  0A20        	sub a,(64)-(32)
 384  043F  3D0A        	sz z
 384  0440  2800     R  	jmp _L60
 384  0441  0700     R  	mov a,_TEST_CON_2[0]
 384  0442  0A80        	sub a,128
 384  0443  390A        	snz z
 384  0444  2800     R  	jmp _L54
 410  0445              #line 410 "k:\55555555555555\test\saier-a600n-2260-usa4g-aal-bg95-ui-v1.0-6\pressure.c"
 410  0445              	fcall _LCD_INIT_OFF
 411  044C              #line 411 "k:\55555555555555\test\saier-a600n-2260-usa4g-aal-bg95-ui-v1.0-6\pressure.c"
 411  044C  0F8C        	mov a,-116
 411  044D  C0EC 0003   	lmov [1004],a
 411  044F  0F3C        	mov a,60
 411  0450  C0ED 0003   	lmov [1005],a
 412  0452              #line 412 "k:\55555555555555\test\saier-a600n-2260-usa4g-aal-bg95-ui-v1.0-6\pressure.c"
文件：pressure.c   编译器版本 HGASM 0202 页次16

 412  0452  2800     R  	jmp _L54
 412  0453              _L55:
 386  0453              #line 386 "k:\55555555555555\test\saier-a600n-2260-usa4g-aal-bg95-ui-v1.0-6\pressure.c"
 386  0453              	fcall _SBR_DISP_E1_ON
 386  045A  2800     R  	jmp _L100
 386  045B              _L56:
 390  045B              #line 390 "k:\55555555555555\test\saier-a600n-2260-usa4g-aal-bg95-ui-v1.0-6\pressure.c"
 390  045B              	fcall _SBR_DISP_E2_ON
 390  0462              _L100:
 391  0462              #line 391 "k:\55555555555555\test\saier-a600n-2260-usa4g-aal-bg95-ui-v1.0-6\pressure.c"
 391  0462  0F2C        	mov a,44
 391  0463  0080     E  	mov _BPPLAY_ONE_INFOEND_2[0],a
 391  0464  1F00     E  	clr _BPPLAY_ONE_INFOEND_2[1]
 391  0465              	fcall _BPPLAY_ONE_INFOEND
 392  046C              #line 392 "k:\55555555555555\test\saier-a600n-2260-usa4g-aal-bg95-ui-v1.0-6\pressure.c"
 392  046C  0FA4        	mov a,-92
 392  046D  C0EC 0003   	lmov [1004],a
 392  046F  0F38        	mov a,56
 392  0470  C0ED 0003   	lmov [1005],a
 393  0472              #line 393 "k:\55555555555555\test\saier-a600n-2260-usa4g-aal-bg95-ui-v1.0-6\pressure.c"
 393  0472  2800     R  	jmp _L54
 393  0473              _L57:
 394  0473              #line 394 "k:\55555555555555\test\saier-a600n-2260-usa4g-aal-bg95-ui-v1.0-6\pressure.c"
 394  0473              	fcall _SBR_DISP_E3_ON
 394  047A  2800     R  	jmp _L100
 394  047B              _L58:
 398  047B              #line 398 "k:\55555555555555\test\saier-a600n-2260-usa4g-aal-bg95-ui-v1.0-6\pressure.c"
 398  047B              	fcall _SBR_DISP_E4_ON
 398  0482  2800     R  	jmp _L100
 398  0483              _L59:
 402  0483              #line 402 "k:\55555555555555\test\saier-a600n-2260-usa4g-aal-bg95-ui-v1.0-6\pressure.c"
 402  0483              	fcall _SBR_DISP_E5_ON
 402  048A  2800     R  	jmp _L100
 402  048B              _L60:
 406  048B              #line 406 "k:\55555555555555\test\saier-a600n-2260-usa4g-aal-bg95-ui-v1.0-6\pressure.c"
 406  048B              	fcall _SBR_DISP_E6_ON
 406  0492  2800     R  	jmp _L100
 406  0493              _L54:
 415  0493              #line 415 "k:\55555555555555\test\saier-a600n-2260-usa4g-aal-bg95-ui-v1.0-6\pressure.c"
 415  0493  1F00     E  	clr _ERFLAG[0]
 415  0494              _L1:
 415  0494  0003        	ret
 415  0495              _TEST_CON endp
 415  0495              #line 415 "k:\55555555555555\test\saier-a600n-2260-usa4g-aal-bg95-ui-v1.0-6\pressure.c"
 415  0495              #pragma debug scope 1 1
 415  0495              #pragma debug struct_end
 415  0495              #pragma debug struct_end
 415  0495              #pragma debug union_end
 415  0495              #pragma debug union_end
 415  0495              #pragma debug variable 43 1 ___pa "__pa" 1
 415  0495              #pragma debug struct_end
 415  0495              #pragma debug struct_end
 415  0495              #pragma debug union_end
 415  0495              #pragma debug union_end
 415  0495              #pragma debug variable 45 1 ___pc "__pc" 1
 415  0495              #pragma debug struct_end
 415  0495              #pragma debug struct_end
 415  0495              #pragma debug union_end
 415  0495              #pragma debug union_end
 415  0495              #pragma debug variable 47 1 ___pe "__pe" 1
文件：pressure.c   编译器版本 HGASM 0202 页次17

 415  0495              #pragma debug variable 8 1 _step "step" 1
 415  0495              #pragma debug variable 8 1 _OLD_PLSCNT "OLD_PLSCNT" 1
 415  0495              #pragma debug variable 8 1 _IHB_COUNT "IHB_COUNT" 1
 415  0495              #pragma debug variable 10 1 _OLD_PRE_SYS "OLD_PRE_SYS" 2
 415  0495              #pragma debug variable 10 1 _OLD_PRE_DIA "OLD_PRE_DIA" 2
 415  0495              #pragma debug variable 10 1 _LOW_V "LOW_V" 2
 415  0495              #pragma debug variable 10 1 _P012_avg "P012_avg" 2
 415  0495              #pragma debug variable 10 1 _close_time "close_time" 2
 415  0495              #pragma debug variable 10 1 _pres_ad_0 "pres_ad_0" 2
 415  0495              #pragma debug variable 10 1 _pres_ad_100 "pres_ad_100" 2
 415  0495              #pragma debug variable 10 1 _pres_ad_200 "pres_ad_200" 2
 415  0495              #pragma debug variable 10 1 _pres_ad_300 "pres_ad_300" 2
 415  0495              #pragma debug variable 8 1 _COUNT1_JIA "COUNT1_JIA" 1
 415  0495              #pragma debug variable 8 1 _PLSCNT "PLSCNT" 1
 415  0495              #pragma debug variable 10 1 _FTM31 "FTM31" 2
 415  0495              #pragma debug variable 10 1 _PUMPPRE "PUMPPRE" 2
 415  0495              
 415  0495              ; output external variables
 415  0495              extern _keyval:byte
 415  0495              extern _gu8v_uart_flag:byte
 415  0495              extern _GSM_DATA_CNT:byte
 415  0495              extern _KEYFLAG:byte
 415  0495              extern _keyvalGSM:byte
 415  0495              extern _Usflag:byte
 415  0495              extern _PRE_DIA:byte
 415  0495              extern _PRE_SYS:byte
 415  0495              extern _ERFLAG:byte
 415  0495              extern _R_alarm_clock:byte
 415  0495              extern _R_TEMPDATA:byte
 415  0495              extern _MODEFLAG:byte
 415  0495              extern _LCD_INIT_OFF:near
 415  0495              extern _SBR_UPDATE_TIME:near
 415  0495              extern _SBR_UPDATE_BTT:near
 415  0495              extern _SBR_DISP_DOT_COL_ON:near
 415  0495              extern _SBR_DISP_DOT_U2_OFF:near
 415  0495              extern _SBR_DISP_DOT_U1_ON:near
 415  0495              extern _SBR_DISP_DOT_U1_OFF:near
 415  0495              extern _SBR_DISP_DOT_U2_ON:near
 415  0495              extern _disp_dia_2:byte
 415  0495              extern _disp_dia:near
 415  0495              extern _Delay_ms_2:byte
 415  0495              extern _Delay_ms:near
 415  0495              extern _Samlpe_Adc1:near
 415  0495              extern _BPPLAY_ONE_INFOEND_2:byte
 415  0495              extern _BPPLAY_ONE_INFOEND:near
 415  0495              extern _SBR_DISP_DOT_BTT:near
 415  0495              extern _DEFLATION:near
 415  0495              extern _SBR_DISP_DOT_JIA_OFF:near
 415  0495              extern _SBR_DISP_DOT_JIAN_OFF:near
 415  0495              extern _STP_PUMP_OFF:near
 415  0495              extern _SBR_DISP_E4_ON:near
 415  0495              extern _SBR_DISP_DOT_HEART_OFF:near
 415  0495              extern _disp_sys_2:byte
 415  0495              extern _disp_sys:near
 415  0495              extern _disp_pu_2:byte
 415  0495              extern _disp_pu:near
 415  0495              extern _SBR_DISP_DOT_ASCVD_OFF:near
 415  0495              extern _SBR_DISP_DOT_ASCVD_ON:near
 415  0495              extern _SBR_DISP_DOT_HEART_ON:near
 415  0495              extern _SBR_DISP_DOT_HEART2_ON:near
文件：pressure.c   编译器版本 HGASM 0202 页次18

 415  0495              extern _DISPLAYWHO:near
 415  0495              extern _BPPLAYINFOEND:near
 415  0495              extern _BPPLAYWHO:near
 415  0495              extern _SBR_DISP_DOT_GPRST_ON:near
 415  0495              extern _SBR_DISP_DOT_GPRSS_ON:near
 415  0495              extern _test_data_int:near
 415  0495              extern _START_GSM:near
 415  0495              extern _SBR_EEPROM_READDATA:near
 415  0495              extern _EEPROM_WRITING_2:byte
 415  0495              extern _EEPROM_WRITING:near
 415  0495              extern _SBR_SAVE_MEMORY:near
 415  0495              extern _GSM_OFF:near
 415  0495              extern _SBR_DISP_E_NO:near
 415  0495              extern _SBR_DISP_DOT_GPRST_OFF:near
 415  0495              extern _SBR_DISP_DOT_GPRSS_OFF:near
 415  0495              extern _UPDATA_MEMORY:near
 415  0495              extern _GSM_STNT_DATA:near
 415  0495              extern _key_scan:near
 415  0495              extern _SBR_DISP_E1_ON:near
 415  0495              extern _SBR_DISP_E2_ON:near
 415  0495              extern _SBR_DISP_E3_ON:near
 415  0495              extern _SBR_DISP_E5_ON:near
 415  0495              extern _SBR_DISP_E6_ON:near
 415  0495              
 415  0495              ; 
 415  0495              ; Generated by holtek-gcc v3.19, Tue Jul 26 12:07:02 2022
 415  0495              ; Rebuild 718
 415  0495              ; end of file


        0 Errors, 0