文件：voice.c      编译器版本 HGASM 0202 页次1


   1  0000              ; Generated by holtek-gcc v3.19, Tue Jul 26 12:07:02 2022
   2  0000              ; 
   3  0000              ; Configuration:
   4  0000              ;       with long instruction
   5  0000              ;       Multi-ROM, Multi-RAM
   6  0000              ;       bits_per_rom_unit:16
   7  0000              ;       with mp1
   8  0000              ;       with tbhp, address(0x9)
   9  0000              ;          Use tabrd-const
  10  0000              ;       
  11  0000              ; SFR address of long-instruction arch:
  12  0000              ;    mp0 = -1,1,0
  13  0000              ;    mp1 = 4,3,2
  14  0000              ;    mp2 = 14,13,12
  15  0000              ;    tbp = 9,7,8
  16  0000              ;    acc = 5
  17  0000              ;    pcl = 6
  18  0000              ;    status = 10
  19  0000              ;    bp = 11
  20  0000              ;    intc = 32
  21  0000              ;       
  22  0000              ;       
  23  0000              ; use 'tabrdc' instead of 'tabrd'
  24  0000              ;       
  25  0000              
  26  0000              #pragma translator "holtek-gcc 4.6.4" "3.19" "build 20130711"
  27  0000              ; Rebuild 718
  28  0000              
  29  0000              ir equ [2]
  30  0000              mp equ [3]
  31  0000              sbp equ [4]
  32  0000              acc equ [5]
  33  0000              bp equ [11]
  34  0000              tblp equ [7]
  35  0000              tbhp equ [9]
  36  0000              status equ [10]
  37  0000              c equ [10].0
  38  0000              ac equ [10].1
  39  0000              z equ [10].2
  40  0000              ov equ [10].3
  41  0000              cz equ [10].6
  42  0000              sc equ [10].7
  43  0000              intc equ [32]
  44  0000              
  45  0000              extern ra:byte
  46  0000              extern rb:byte
  47  0000              extern rc:byte
  48  0000              extern rd:byte
  49  0000              extern re:byte
  50  0000              extern rf:byte
  51  0000              extern rg:byte
  52  0000              extern rh:byte
  53  0000              extern _Crom2Prom:near
  54  0000              extern _Crom2PromNext:near
  55  0000              
  56  0000              RAMBANK 0 @BITDATASEC, @BITDATASEC1
  57  0000              @HCCINIT	.section 'data'
  58  0000              @HCCINIT0	.section 'data'
  59  0000              @BITDATASEC	 .section 'data'
文件：voice.ASM    编译器版本 HGASM 0202 页次2

  60  0000              @BITDATASEC1	 .section 'data'
  61  0000              
  62  0000              #pragma debug scope 1 1
  63  0000              	extern __DELAY3:near
  64  0000              	extern __DELAYX3:near
  65  0000              	extern __DELAYX6:near
  66  0000              	extern __DELAYY5:near
  67  0000              	extern __DELAYY3:near
  68  0000              	extern _builtin_holtek_delay_2:byte
  69  0000              ___pbc equ [37]
  70  0000              ___pb equ [36]
  71  0000              public _SK080G_PlaySoundIndex
  72  0000              #pragma debug scope 2 1

  80  0000              #line 80 "k:\55555555555555\test\saier-a600n-2260-usa4g-aal-bg95-ui-v1.0-6\voice.c"
  80  0000              _SK080G_PlaySoundIndex .section 'code'
  80  0000              _SK080G_PlaySoundIndex proc
  80  0000  0002[           local _SK080G_PlaySoundIndex_2 db 2 dup(?)	; 0,2
            00
            ]
  80  0000  0080     E  	mov ra,a
  80  0001  0080     R  	mov _SK080G_PlaySoundIndex_2[0],a
  80  0002              #pragma debug variable 8 2 _SK080G_PlaySoundIndex_2+0 "index"
  81  0002              #line 81 "k:\55555555555555\test\saier-a600n-2260-usa4g-aal-bg95-ui-v1.0-6\voice.c"
  81  0002  1E00     E  	snz ra
  81  0003  2800     R  	jmp _L1
  82  0004              #line 82 "k:\55555555555555\test\saier-a600n-2260-usa4g-aal-bg95-ui-v1.0-6\voice.c"
  82  0004  34A5        	clr [37].1
  83  0005              #line 83 "k:\55555555555555\test\saier-a600n-2260-usa4g-aal-bg95-ui-v1.0-6\voice.c"
  83  0005  34A4        	clr [36].1
  84  0006              #line 84 "k:\55555555555555\test\saier-a600n-2260-usa4g-aal-bg95-ui-v1.0-6\voice.c"
  84  0006  0F02        	mov a,2
  84  0007  0080     E  	mov _Delay_ms_2[0],a
  84  0008  1F00     E  	clr _Delay_ms_2[1]
  84  0009              	fcall _Delay_ms
  85  0010              #line 85 "k:\55555555555555\test\saier-a600n-2260-usa4g-aal-bg95-ui-v1.0-6\voice.c"
  85  0010  30A5        	set [37].1
  86  0011              #line 86 "k:\55555555555555\test\saier-a600n-2260-usa4g-aal-bg95-ui-v1.0-6\voice.c"
  86  0011  0F02        	mov a,2
  86  0012  0080     E  	mov _Delay_ms_2[0],a
  86  0013  1F00     E  	clr _Delay_ms_2[1]
  86  0014              	fcall _Delay_ms
  87  001B              #line 87 "k:\55555555555555\test\saier-a600n-2260-usa4g-aal-bg95-ui-v1.0-6\voice.c"
  87  001B  34A5        	clr [37].1
  88  001C              #line 88 "k:\55555555555555\test\saier-a600n-2260-usa4g-aal-bg95-ui-v1.0-6\voice.c"
  88  001C  34A4        	clr [36].1
  89  001D              #line 89 "k:\55555555555555\test\saier-a600n-2260-usa4g-aal-bg95-ui-v1.0-6\voice.c"
  89  001D  3525        	clr [37].2
  90  001E              #line 90 "k:\55555555555555\test\saier-a600n-2260-usa4g-aal-bg95-ui-v1.0-6\voice.c"
  90  001E  3524        	clr [36].2
  91  001F              #line 91 "k:\55555555555555\test\saier-a600n-2260-usa4g-aal-bg95-ui-v1.0-6\voice.c"
  91  001F  0F02        	mov a,2
  91  0020  0080     E  	mov _Delay_ms_2[0],a
  91  0021  1F00     E  	clr _Delay_ms_2[1]
  91  0022              	fcall _Delay_ms
  91  0029  0700     R  	mov a,_SK080G_PlaySoundIndex_2[0]
  91  002A  0080     R  	mov _SK080G_PlaySoundIndex_2[1],a
  91  002B              _L3:
  94  002B              #line 94 "k:\55555555555555\test\saier-a600n-2260-usa4g-aal-bg95-ui-v1.0-6\voice.c"
  94  002B  3125        	set [37].2
文件：voice.c      编译器版本 HGASM 0202 页次3

  95  002C              #line 95 "k:\55555555555555\test\saier-a600n-2260-usa4g-aal-bg95-ui-v1.0-6\voice.c"
  95  002C  0F02        	mov a,2
  95  002D  0080     E  	mov _Delay_ms_2[0],a
  95  002E  1F00     E  	clr _Delay_ms_2[1]
  95  002F              	fcall _Delay_ms
  96  0036              #line 96 "k:\55555555555555\test\saier-a600n-2260-usa4g-aal-bg95-ui-v1.0-6\voice.c"
  96  0036  3525        	clr [37].2
  97  0037              #line 97 "k:\55555555555555\test\saier-a600n-2260-usa4g-aal-bg95-ui-v1.0-6\voice.c"
  97  0037  3524        	clr [36].2
  98  0038              #line 98 "k:\55555555555555\test\saier-a600n-2260-usa4g-aal-bg95-ui-v1.0-6\voice.c"
  98  0038  0F02        	mov a,2
  98  0039  0080     E  	mov _Delay_ms_2[0],a
  98  003A  1F00     E  	clr _Delay_ms_2[1]
  98  003B              	fcall _Delay_ms
  98  0042  1780     R  	sdz _SK080G_PlaySoundIndex_2[1]
  98  0043  2800     R  	jmp _L3
 100  0044              #line 100 "k:\55555555555555\test\saier-a600n-2260-usa4g-aal-bg95-ui-v1.0-6\voice.c"
 100  0044  0F07        	mov a,7
 100  0045  0080     E  	mov _Delay_ms_2[0],a
 100  0046  1F00     E  	clr _Delay_ms_2[1]
 100  0047              	fcall _Delay_ms
 100  004E              _L1:
 100  004E  0003        	ret
 100  004F              _SK080G_PlaySoundIndex endp
 100  004F              #line 100 "k:\55555555555555\test\saier-a600n-2260-usa4g-aal-bg95-ui-v1.0-6\voice.c"
 100  004F              #pragma debug scope 1 1
 100  004F              public _AKW_IsPlaySound
 100  004F              #pragma debug scope 3 1
 108  004F              #line 108 "k:\55555555555555\test\saier-a600n-2260-usa4g-aal-bg95-ui-v1.0-6\voice.c"
 108  0000              _AKW_IsPlaySound .section 'code'
 108  0000              _AKW_IsPlaySound proc
 110  0000              #line 110 "k:\55555555555555\test\saier-a600n-2260-usa4g-aal-bg95-ui-v1.0-6\voice.c"
 110  0000  3824        	snz [36].0
 110  0001  2800     R  	jmp _L7
 112  0002              #line 112 "k:\55555555555555\test\saier-a600n-2260-usa4g-aal-bg95-ui-v1.0-6\voice.c"
 112  0002  1F00     R  	clr ___cnt_2948[0]
 113  0003              #line 113 "k:\55555555555555\test\saier-a600n-2260-usa4g-aal-bg95-ui-v1.0-6\voice.c"
 113  0003  3000     E  	set _MODEFLAG[0].6
 113  0004  2800     R  	jmp _L6
 113  0005              _L7:
 117  0005              #line 117 "k:\55555555555555\test\saier-a600n-2260-usa4g-aal-bg95-ui-v1.0-6\voice.c"
 117  0005  0700     R  	mov a,___cnt_2948[0]
 117  0006  0080     E  	mov ra,a
 117  0007  1E00     E  	snz ra
 117  0008  2800     R  	jmp _L9
 119  0009              #line 119 "k:\55555555555555\test\saier-a600n-2260-usa4g-aal-bg95-ui-v1.0-6\voice.c"
 119  0009  3400     E  	clr _MODEFLAG[0].6
 119  000A              _L9:
 121  000A              #line 121 "k:\55555555555555\test\saier-a600n-2260-usa4g-aal-bg95-ui-v1.0-6\voice.c"
 121  000A  1400     E  	inca ra
 121  000B  0080     R  	mov ___cnt_2948[0],a
 121  000C              _L6:
 121  000C  0003        	ret
 121  000D              _AKW_IsPlaySound endp
 121  000D              #line 121 "k:\55555555555555\test\saier-a600n-2260-usa4g-aal-bg95-ui-v1.0-6\voice.c"
 121  000D              #pragma debug scope 1 1
 121  000D              public _AKW_StopPlayVoice
 121  000D              #pragma debug scope 4 1
 125  000D              #line 125 "k:\55555555555555\test\saier-a600n-2260-usa4g-aal-bg95-ui-v1.0-6\voice.c"
 125  0000              _AKW_StopPlayVoice .section 'code'
文件：voice.c      编译器版本 HGASM 0202 页次4

 125  0000              _AKW_StopPlayVoice proc
 126  0000              #line 126 "k:\55555555555555\test\saier-a600n-2260-usa4g-aal-bg95-ui-v1.0-6\voice.c"
 126  0000  34A5        	clr [37].1
 127  0001              #line 127 "k:\55555555555555\test\saier-a600n-2260-usa4g-aal-bg95-ui-v1.0-6\voice.c"
 127  0001  34A4        	clr [36].1
 128  0002              #line 128 "k:\55555555555555\test\saier-a600n-2260-usa4g-aal-bg95-ui-v1.0-6\voice.c"
 128  0002  0F02        	mov a,2
 128  0003  0080     E  	mov _Delay_ms_2[0],a
 128  0004  1F00     E  	clr _Delay_ms_2[1]
 128  0005              	fcall _Delay_ms
 129  000C              #line 129 "k:\55555555555555\test\saier-a600n-2260-usa4g-aal-bg95-ui-v1.0-6\voice.c"
 129  000C  30A5        	set [37].1
 130  000D              #line 130 "k:\55555555555555\test\saier-a600n-2260-usa4g-aal-bg95-ui-v1.0-6\voice.c"
 130  000D  0F02        	mov a,2
 130  000E  0080     E  	mov _Delay_ms_2[0],a
 130  000F  1F00     E  	clr _Delay_ms_2[1]
 130  0010              	fcall _Delay_ms
 131  0017              #line 131 "k:\55555555555555\test\saier-a600n-2260-usa4g-aal-bg95-ui-v1.0-6\voice.c"
 131  0017  34A5        	clr [37].1
 132  0018              #line 132 "k:\55555555555555\test\saier-a600n-2260-usa4g-aal-bg95-ui-v1.0-6\voice.c"
 132  0018  34A4        	clr [36].1
 133  0019              #line 133 "k:\55555555555555\test\saier-a600n-2260-usa4g-aal-bg95-ui-v1.0-6\voice.c"
 133  0019  0F02        	mov a,2
 133  001A  0080     E  	mov _Delay_ms_2[0],a
 133  001B  1F00     E  	clr _Delay_ms_2[1]
 133  001C              	fcall _Delay_ms
 134  0023              #line 134 "k:\55555555555555\test\saier-a600n-2260-usa4g-aal-bg95-ui-v1.0-6\voice.c"
 134  0023  3525        	clr [37].2
 135  0024              #line 135 "k:\55555555555555\test\saier-a600n-2260-usa4g-aal-bg95-ui-v1.0-6\voice.c"
 135  0024  3524        	clr [36].2
 135  0025  0003        	ret
 135  0026              _AKW_StopPlayVoice endp
 135  0026              #line 135 "k:\55555555555555\test\saier-a600n-2260-usa4g-aal-bg95-ui-v1.0-6\voice.c"
 135  0026              #pragma debug scope 1 1
 135  0026              public _playSDFile
 135  0026              #pragma debug scope 5 1
 166  0026              #line 166 "k:\55555555555555\test\saier-a600n-2260-usa4g-aal-bg95-ui-v1.0-6\voice.c"
 166  0000              _playSDFile .section 'code'
 166  0000              _playSDFile proc
 166  0000  00              local _playSDFile_2 db 1 dup(?)	; 0,1
 166  0001              #pragma debug variable 8 5 _playSDFile_2+0 "len"
 166  0000  0003        	ret
 166  0001              _playSDFile endp
 166  0001              #line 166 "k:\55555555555555\test\saier-a600n-2260-usa4g-aal-bg95-ui-v1.0-6\voice.c"
 166  0001              #pragma debug scope 1 1
 166  0001              public _ISD_SpeakNum
 166  0001              #pragma debug scope 6 1
 190  0001              #line 190 "k:\55555555555555\test\saier-a600n-2260-usa4g-aal-bg95-ui-v1.0-6\voice.c"
 190  0000              _ISD_SpeakNum .section 'code'
 190  0000              _ISD_SpeakNum proc
 190  0000              public _ISD_SpeakNum_2
 190  0000  0002[           local _ISD_SpeakNum_2 db 2 dup(?)	; 2,0
            00
            ]
 190  0002              #pragma debug variable 10 6 _ISD_SpeakNum_2+0 "val"
 190  0000  0003        	ret
 190  0001              _ISD_SpeakNum endp
 190  0001              #line 190 "k:\55555555555555\test\saier-a600n-2260-usa4g-aal-bg95-ui-v1.0-6\voice.c"
 190  0001              #pragma debug scope 1 1
 190  0001              public _BPPLAY_ONE_INFOEND
文件：voice.c      编译器版本 HGASM 0202 页次5

 190  0001              #pragma debug scope 7 1
 257  0001              #line 257 "k:\55555555555555\test\saier-a600n-2260-usa4g-aal-bg95-ui-v1.0-6\voice.c"
 257  0000              _BPPLAY_ONE_INFOEND .section 'code'
 257  0000              _BPPLAY_ONE_INFOEND proc
 257  0000              public _BPPLAY_ONE_INFOEND_2
 257  0000  0002[           local _BPPLAY_ONE_INFOEND_2 db 2 dup(?)	; 2,0
            00
            ]
 257  0002              #pragma debug variable 10 7 _BPPLAY_ONE_INFOEND_2+0 "idnumb"
 257  0000  0003        	ret
 257  0001              _BPPLAY_ONE_INFOEND endp
 257  0001              #line 257 "k:\55555555555555\test\saier-a600n-2260-usa4g-aal-bg95-ui-v1.0-6\voice.c"
 257  0001              #pragma debug scope 1 1
 257  0001              public _BPPLAYINFOEND
 257  0001              #pragma debug scope 8 1
 316  0001              #line 316 "k:\55555555555555\test\saier-a600n-2260-usa4g-aal-bg95-ui-v1.0-6\voice.c"
 316  0000              _BPPLAYINFOEND .section 'code'
 316  0000              _BPPLAYINFOEND proc
 316  0000  0003        	ret
 316  0001              _BPPLAYINFOEND endp
 316  0001              #line 316 "k:\55555555555555\test\saier-a600n-2260-usa4g-aal-bg95-ui-v1.0-6\voice.c"
 316  0001              #pragma debug scope 1 1
 316  0001              public _BPPLAYWHO
 316  0001              #pragma debug scope 9 1
 335  0001              #line 335 "k:\55555555555555\test\saier-a600n-2260-usa4g-aal-bg95-ui-v1.0-6\voice.c"
 335  0000              _BPPLAYWHO .section 'code'
 335  0000              _BPPLAYWHO proc
 335  0000  0003        	ret
 335  0001              _BPPLAYWHO endp
 335  0001              #line 335 "k:\55555555555555\test\saier-a600n-2260-usa4g-aal-bg95-ui-v1.0-6\voice.c"
 335  0001              #pragma debug scope 1 1
 335  0001              public _DISPLAYWHO
 335  0001              #pragma debug scope 10 1
 350  0001              #line 350 "k:\55555555555555\test\saier-a600n-2260-usa4g-aal-bg95-ui-v1.0-6\voice.c"
 350  0000              _DISPLAYWHO .section 'code'
 350  0000              _DISPLAYWHO proc
 352  0000              #line 352 "k:\55555555555555\test\saier-a600n-2260-usa4g-aal-bg95-ui-v1.0-6\voice.c"
 352  0000  0F3B        	mov a,59
 352  0001  0200     E  	sub a,_PRE_SYS[0]
 352  0002  0F00        	mov a,0
 352  0003  1200     E  	sbc a,_PRE_SYS[1]
 352  0004  380A        	snz c
 352  0005  2800     R  	jmp _L20
 355  0006              #line 355 "k:\55555555555555\test\saier-a600n-2260-usa4g-aal-bg95-ui-v1.0-6\voice.c"
 355  0006  0F01        	mov a,1
 355  0007  2800     R  	jmp _L35
 355  0008              _L20:
 357  0008              #line 357 "k:\55555555555555\test\saier-a600n-2260-usa4g-aal-bg95-ui-v1.0-6\voice.c"
 357  0008  0F59        	mov a,89
 357  0009  0200     E  	sub a,_PRE_SYS[0]
 357  000A  0F00        	mov a,0
 357  000B  1200     E  	sbc a,_PRE_SYS[1]
 357  000C  380A        	snz c
 357  000D  2800     R  	jmp _L22
 360  000E              #line 360 "k:\55555555555555\test\saier-a600n-2260-usa4g-aal-bg95-ui-v1.0-6\voice.c"
 360  000E  0F02        	mov a,2
 360  000F  2800     R  	jmp _L35
 360  0010              _L22:
 362  0010              #line 362 "k:\55555555555555\test\saier-a600n-2260-usa4g-aal-bg95-ui-v1.0-6\voice.c"
 362  0010  0F6A        	mov a,106
文件：voice.c      编译器版本 HGASM 0202 页次6

 362  0011  0200     E  	sub a,_PRE_SYS[0]
 362  0012  0F00        	mov a,0
 362  0013  1200     E  	sbc a,_PRE_SYS[1]
 362  0014  380A        	snz c
 362  0015  2800     R  	jmp _L23
 365  0016              #line 365 "k:\55555555555555\test\saier-a600n-2260-usa4g-aal-bg95-ui-v1.0-6\voice.c"
 365  0016  0F03        	mov a,3
 365  0017  2800     R  	jmp _L35
 365  0018              _L23:
 367  0018              #line 367 "k:\55555555555555\test\saier-a600n-2260-usa4g-aal-bg95-ui-v1.0-6\voice.c"
 367  0018  0F7B        	mov a,123
 367  0019  0200     E  	sub a,_PRE_SYS[0]
 367  001A  0F00        	mov a,0
 367  001B  1200     E  	sbc a,_PRE_SYS[1]
 367  001C  380A        	snz c
 367  001D  2800     R  	jmp _L24
 370  001E              #line 370 "k:\55555555555555\test\saier-a600n-2260-usa4g-aal-bg95-ui-v1.0-6\voice.c"
 370  001E  0F04        	mov a,4
 370  001F  2800     R  	jmp _L35
 370  0020              _L24:
 372  0020              #line 372 "k:\55555555555555\test\saier-a600n-2260-usa4g-aal-bg95-ui-v1.0-6\voice.c"
 372  0020  0F8B        	mov a,139
 372  0021  0200     E  	sub a,_PRE_SYS[0]
 372  0022  0F00        	mov a,0
 372  0023  1200     E  	sbc a,_PRE_SYS[1]
 372  0024  380A        	snz c
 372  0025  2800     R  	jmp _L25
 375  0026              #line 375 "k:\55555555555555\test\saier-a600n-2260-usa4g-aal-bg95-ui-v1.0-6\voice.c"
 375  0026  0F05        	mov a,5
 375  0027  2800     R  	jmp _L35
 375  0028              _L25:
 377  0028              #line 377 "k:\55555555555555\test\saier-a600n-2260-usa4g-aal-bg95-ui-v1.0-6\voice.c"
 377  0028  0F95        	mov a,149
 377  0029  0200     E  	sub a,_PRE_SYS[0]
 377  002A  0F00        	mov a,0
 377  002B  1200     E  	sbc a,_PRE_SYS[1]
 377  002C  380A        	snz c
 377  002D  2800     R  	jmp _L26
 380  002E              #line 380 "k:\55555555555555\test\saier-a600n-2260-usa4g-aal-bg95-ui-v1.0-6\voice.c"
 380  002E  0F06        	mov a,6
 380  002F  2800     R  	jmp _L35
 380  0030              _L26:
 382  0030              #line 382 "k:\55555555555555\test\saier-a600n-2260-usa4g-aal-bg95-ui-v1.0-6\voice.c"
 382  0030  0F9F        	mov a,159
 382  0031  0200     E  	sub a,_PRE_SYS[0]
 382  0032  0F00        	mov a,0
 382  0033  1200     E  	sbc a,_PRE_SYS[1]
 382  0034  380A        	snz c
 382  0035  2800     R  	jmp _L27
 385  0036              #line 385 "k:\55555555555555\test\saier-a600n-2260-usa4g-aal-bg95-ui-v1.0-6\voice.c"
 385  0036  0F07        	mov a,7
 385  0037  2800     R  	jmp _L35
 385  0038              _L27:
 390  0038              #line 390 "k:\55555555555555\test\saier-a600n-2260-usa4g-aal-bg95-ui-v1.0-6\voice.c"
 390  0038  0F08        	mov a,8
 390  0039              _L35:
 390  0039              	fcall _SBR_DISP_DOT_WX
 392  0040              #line 392 "k:\55555555555555\test\saier-a600n-2260-usa4g-aal-bg95-ui-v1.0-6\voice.c"
 392  0040  0F9F        	mov a,159
 392  0041  0200     E  	sub a,_PRE_DIA[0]
文件：voice.c      编译器版本 HGASM 0202 页次7

 392  0042  0F00        	mov a,0
 392  0043  1200     E  	sbc a,_PRE_DIA[1]
 392  0044  3C0A        	sz c
 392  0045  2800     R  	jmp _L28
 395  0046              #line 395 "k:\55555555555555\test\saier-a600n-2260-usa4g-aal-bg95-ui-v1.0-6\voice.c"
 395  0046  0F07        	mov a,7
 395  0047  2800     R  	jmp _L36
 395  0048              _L28:
 397  0048              #line 397 "k:\55555555555555\test\saier-a600n-2260-usa4g-aal-bg95-ui-v1.0-6\voice.c"
 397  0048  0F95        	mov a,149
 397  0049  0200     E  	sub a,_PRE_DIA[0]
 397  004A  0F00        	mov a,0
 397  004B  1200     E  	sbc a,_PRE_DIA[1]
 397  004C  3C0A        	sz c
 397  004D  2800     R  	jmp _L30
 400  004E              #line 400 "k:\55555555555555\test\saier-a600n-2260-usa4g-aal-bg95-ui-v1.0-6\voice.c"
 400  004E  0F06        	mov a,6
 400  004F  2800     R  	jmp _L36
 400  0050              _L30:
 402  0050              #line 402 "k:\55555555555555\test\saier-a600n-2260-usa4g-aal-bg95-ui-v1.0-6\voice.c"
 402  0050  0F8B        	mov a,139
 402  0051  0200     E  	sub a,_PRE_DIA[0]
 402  0052  0F00        	mov a,0
 402  0053  1200     E  	sbc a,_PRE_DIA[1]
 402  0054  3C0A        	sz c
 402  0055  2800     R  	jmp _L31
 405  0056              #line 405 "k:\55555555555555\test\saier-a600n-2260-usa4g-aal-bg95-ui-v1.0-6\voice.c"
 405  0056  0F05        	mov a,5
 405  0057  2800     R  	jmp _L36
 405  0058              _L31:
 407  0058              #line 407 "k:\55555555555555\test\saier-a600n-2260-usa4g-aal-bg95-ui-v1.0-6\voice.c"
 407  0058  0F7B        	mov a,123
 407  0059  0200     E  	sub a,_PRE_DIA[0]
 407  005A  0F00        	mov a,0
 407  005B  1200     E  	sbc a,_PRE_DIA[1]
 407  005C  3C0A        	sz c
 407  005D  2800     R  	jmp _L32
 410  005E              #line 410 "k:\55555555555555\test\saier-a600n-2260-usa4g-aal-bg95-ui-v1.0-6\voice.c"
 410  005E  0F04        	mov a,4
 410  005F  2800     R  	jmp _L36
 410  0060              _L32:
 412  0060              #line 412 "k:\55555555555555\test\saier-a600n-2260-usa4g-aal-bg95-ui-v1.0-6\voice.c"
 412  0060  0F6A        	mov a,106
 412  0061  0200     E  	sub a,_PRE_DIA[0]
 412  0062  0F00        	mov a,0
 412  0063  1200     E  	sbc a,_PRE_DIA[1]
 412  0064  3C0A        	sz c
 412  0065  2800     R  	jmp _L33
 415  0066              #line 415 "k:\55555555555555\test\saier-a600n-2260-usa4g-aal-bg95-ui-v1.0-6\voice.c"
 415  0066  0F03        	mov a,3
 415  0067  2800     R  	jmp _L36
 415  0068              _L33:
 417  0068              #line 417 "k:\55555555555555\test\saier-a600n-2260-usa4g-aal-bg95-ui-v1.0-6\voice.c"
 417  0068  0F59        	mov a,89
 417  0069  0200     E  	sub a,_PRE_DIA[0]
 417  006A  0F00        	mov a,0
 417  006B  1200     E  	sbc a,_PRE_DIA[1]
 417  006C  3C0A        	sz c
 417  006D  2800     R  	jmp _L34
 420  006E              #line 420 "k:\55555555555555\test\saier-a600n-2260-usa4g-aal-bg95-ui-v1.0-6\voice.c"
文件：voice.c      编译器版本 HGASM 0202 页次8

 420  006E  0F02        	mov a,2
 420  006F  2800     R  	jmp _L36
 420  0070              _L34:
 422  0070              #line 422 "k:\55555555555555\test\saier-a600n-2260-usa4g-aal-bg95-ui-v1.0-6\voice.c"
 422  0070  0F3B        	mov a,59
 422  0071  0200     E  	sub a,_PRE_DIA[0]
 422  0072  0F00        	mov a,0
 422  0073  1200     E  	sbc a,_PRE_DIA[1]
 422  0074  3C0A        	sz c
 422  0075  2800     R  	jmp _L19
 425  0076              #line 425 "k:\55555555555555\test\saier-a600n-2260-usa4g-aal-bg95-ui-v1.0-6\voice.c"
 425  0076  0F01        	mov a,1
 425  0077              _L36:
 425  0077              	fcall _SBR_DISP_DOT_WX_DIA
 425  007E              _L19:
 425  007E  0003        	ret
 425  007F              _DISPLAYWHO endp
 425  007F              #line 425 "k:\55555555555555\test\saier-a600n-2260-usa4g-aal-bg95-ui-v1.0-6\voice.c"
 425  007F              #pragma debug scope 1 1
 425  0000              @HCCINIT	.section 'data'
 109  0000              #line 109 "k:\55555555555555\test\saier-a600n-2260-usa4g-aal-bg95-ui-v1.0-6\voice.c"
 109  0000              @HCCINIT___cnt_2948 .section 'data'
 109  0000              ___cnt_2948 label byte
 109  0000              #pragma debug variable 8 3 ___cnt_2948 "cnt"
 109  0000              	db 0
 109  0000              @ROMDATA_BASE .section inpage 'code'
 109  0000              	db 0
 109  0001              @HCCINIT___cnt_2948 .section 'data'
 109  0001              #pragma debug struct_end
 109  0001              #pragma debug struct_end
 109  0001              #pragma debug union_end
 109  0001              #pragma debug union_end
 109  0001              #pragma debug variable 43 1 ___pb "__pb" 1
 109  0001              #pragma debug struct_end
 109  0001              #pragma debug struct_end
 109  0001              #pragma debug union_end
 109  0001              #pragma debug union_end
 109  0001              #pragma debug variable 45 1 ___pbc "__pbc" 1
 109  0001              
 109  0001              ; output external variables
 109  0001              extern _PRE_DIA:byte
 109  0001              extern _PRE_SYS:byte
 109  0001              extern _MODEFLAG:byte
 109  0001              extern _Delay_ms_2:byte
 109  0001              extern _Delay_ms:near
 109  0001              extern _SBR_DISP_DOT_WX:near
 109  0001              extern _SBR_DISP_DOT_WX_DIA:near
 109  0001              
 109  0001              ; 
 109  0001              ; Generated by holtek-gcc v3.19, Tue Jul 26 12:07:02 2022
 109  0001              ; Rebuild 718
 109  0001              ; end of file


        0 Errors, 0